ARM GAS  /tmp/ccE67uTv.s 			page 1


   1              		.cpu cortex-m7
   2              		.eabi_attribute 28, 1
   3              		.eabi_attribute 20, 1
   4              		.eabi_attribute 21, 1
   5              		.eabi_attribute 23, 3
   6              		.eabi_attribute 24, 1
   7              		.eabi_attribute 25, 1
   8              		.eabi_attribute 26, 1
   9              		.eabi_attribute 30, 1
  10              		.eabi_attribute 34, 1
  11              		.eabi_attribute 18, 4
  12              		.file	"ltc.c"
  13              		.text
  14              	.Ltext0:
  15              		.cfi_sections	.debug_frame
  16              		.section	.text.set_pins,"ax",%progbits
  17              		.align	1
  18              		.global	set_pins
  19              		.syntax unified
  20              		.thumb
  21              		.thumb_func
  22              		.fpu fpv5-d16
  24              	set_pins:
  25              	.LFB141:
  26              		.file 1 "Src/ltc.c"
   1:Src/ltc.c     **** 
   2:Src/ltc.c     **** #include "ltc.h"
   3:Src/ltc.c     **** /*
   4:Src/ltc.c     **** * default sample frequency -> 7kHz
   5:Src/ltc.c     **** * 670 us needed to synchronize
   6:Src/ltc.c     **** * 
   7:Src/ltc.c     **** */
   8:Src/ltc.c     **** 
   9:Src/ltc.c     **** void set_pins(GPIO_TypeDef *pinx, uint8_t pinn)
  10:Src/ltc.c     **** {
  27              		.loc 1 10 0
  28              		.cfi_startproc
  29              		@ args = 0, pretend = 0, frame = 0
  30              		@ frame_needed = 0, uses_anonymous_args = 0
  31              		@ link register save eliminated.
  32              	.LVL0:
  11:Src/ltc.c     ****     CS_LTCx = pinx;
  33              		.loc 1 11 0
  34 0000 024B     		ldr	r3, .L2
  35 0002 1860     		str	r0, [r3]
  12:Src/ltc.c     ****     CS_LTCn = pinn;
  36              		.loc 1 12 0
  37 0004 024B     		ldr	r3, .L2+4
  38 0006 1970     		strb	r1, [r3]
  39 0008 7047     		bx	lr
  40              	.L3:
  41 000a 00BF     		.align	2
  42              	.L2:
  43 000c 00000000 		.word	CS_LTCx
  44 0010 00000000 		.word	CS_LTCn
  45              		.cfi_endproc
  46              	.LFE141:
ARM GAS  /tmp/ccE67uTv.s 			page 2


  48              		.section	.text.init,"ax",%progbits
  49              		.align	1
  50              		.global	init
  51              		.syntax unified
  52              		.thumb
  53              		.thumb_func
  54              		.fpu fpv5-d16
  56              	init:
  57              	.LFB142:
  13:Src/ltc.c     **** }
  14:Src/ltc.c     **** 
  15:Src/ltc.c     **** void init()
  16:Src/ltc.c     **** {
  58              		.loc 1 16 0
  59              		.cfi_startproc
  60              		@ args = 0, pretend = 0, frame = 0
  61              		@ frame_needed = 0, uses_anonymous_args = 0
  62              		@ link register save eliminated.
  63 0000 7047     		bx	lr
  64              		.cfi_endproc
  65              	.LFE142:
  67              		.section	.text.read_voltages,"ax",%progbits
  68              		.align	1
  69              		.global	read_voltages
  70              		.syntax unified
  71              		.thumb
  72              		.thumb_func
  73              		.fpu fpv5-d16
  75              	read_voltages:
  76              	.LFB143:
  17:Src/ltc.c     **** }
  18:Src/ltc.c     **** 
  19:Src/ltc.c     **** void read_voltages()
  20:Src/ltc.c     **** {
  77              		.loc 1 20 0
  78              		.cfi_startproc
  79              		@ args = 0, pretend = 0, frame = 0
  80              		@ frame_needed = 0, uses_anonymous_args = 0
  81              		@ link register save eliminated.
  82 0000 7047     		bx	lr
  83              		.cfi_endproc
  84              	.LFE143:
  86              		.section	.text.read_temperatures,"ax",%progbits
  87              		.align	1
  88              		.global	read_temperatures
  89              		.syntax unified
  90              		.thumb
  91              		.thumb_func
  92              		.fpu fpv5-d16
  94              	read_temperatures:
  95              	.LFB144:
  21:Src/ltc.c     **** }
  22:Src/ltc.c     **** 
  23:Src/ltc.c     **** void read_temperatures()
  24:Src/ltc.c     **** {
  96              		.loc 1 24 0
  97              		.cfi_startproc
ARM GAS  /tmp/ccE67uTv.s 			page 3


  98              		@ args = 0, pretend = 0, frame = 0
  99              		@ frame_needed = 0, uses_anonymous_args = 0
 100              		@ link register save eliminated.
 101 0000 7047     		bx	lr
 102              		.cfi_endproc
 103              	.LFE144:
 105              		.section	.text.ltc6813_wakeup_idle,"ax",%progbits
 106              		.align	1
 107              		.global	ltc6813_wakeup_idle
 108              		.syntax unified
 109              		.thumb
 110              		.thumb_func
 111              		.fpu fpv5-d16
 113              	ltc6813_wakeup_idle:
 114              	.LFB145:
  25:Src/ltc.c     **** }
  26:Src/ltc.c     **** 
  27:Src/ltc.c     **** void ltc6813_wakeup_idle(SPI_HandleTypeDef *hspi)
  28:Src/ltc.c     **** {
 115              		.loc 1 28 0
 116              		.cfi_startproc
 117              		@ args = 0, pretend = 0, frame = 8
 118              		@ frame_needed = 0, uses_anonymous_args = 0
 119              	.LVL1:
 120              		.loc 1 28 0
 121 0000 F0B5     		push	{r4, r5, r6, r7, lr}
 122              	.LCFI0:
 123              		.cfi_def_cfa_offset 20
 124              		.cfi_offset 4, -20
 125              		.cfi_offset 5, -16
 126              		.cfi_offset 6, -12
 127              		.cfi_offset 7, -8
 128              		.cfi_offset 14, -4
 129 0002 83B0     		sub	sp, sp, #12
 130              	.LCFI1:
 131              		.cfi_def_cfa_offset 32
 132 0004 0746     		mov	r7, r0
  29:Src/ltc.c     ****     uint8_t data = 0xFF;
 133              		.loc 1 29 0
 134 0006 02AC     		add	r4, sp, #8
 135 0008 FF23     		movs	r3, #255
 136 000a 04F8013D 		strb	r3, [r4, #-1]!
  30:Src/ltc.c     ****     HAL_GPIO_WritePin(CS_LTCx, CS_LTCn, GPIO_PIN_RESET);
 137              		.loc 1 30 0
 138 000e 0A4E     		ldr	r6, .L9
 139 0010 0A4D     		ldr	r5, .L9+4
 140 0012 0022     		movs	r2, #0
 141 0014 3178     		ldrb	r1, [r6]	@ zero_extendqisi2
 142 0016 2868     		ldr	r0, [r5]
 143              	.LVL2:
 144 0018 FFF7FEFF 		bl	HAL_GPIO_WritePin
 145              	.LVL3:
  31:Src/ltc.c     ****     HAL_SPI_Transmit(hspi, &data, 1, 1);
 146              		.loc 1 31 0
 147 001c 0123     		movs	r3, #1
 148 001e 1A46     		mov	r2, r3
 149 0020 2146     		mov	r1, r4
ARM GAS  /tmp/ccE67uTv.s 			page 4


 150 0022 3846     		mov	r0, r7
 151 0024 FFF7FEFF 		bl	HAL_SPI_Transmit
 152              	.LVL4:
  32:Src/ltc.c     ****     HAL_GPIO_WritePin(CS_LTCx, CS_LTCn, GPIO_PIN_SET);
 153              		.loc 1 32 0
 154 0028 0122     		movs	r2, #1
 155 002a 3178     		ldrb	r1, [r6]	@ zero_extendqisi2
 156 002c 2868     		ldr	r0, [r5]
 157 002e FFF7FEFF 		bl	HAL_GPIO_WritePin
 158              	.LVL5:
  33:Src/ltc.c     **** }
 159              		.loc 1 33 0
 160 0032 03B0     		add	sp, sp, #12
 161              	.LCFI2:
 162              		.cfi_def_cfa_offset 20
 163              		@ sp needed
 164 0034 F0BD     		pop	{r4, r5, r6, r7, pc}
 165              	.LVL6:
 166              	.L10:
 167 0036 00BF     		.align	2
 168              	.L9:
 169 0038 00000000 		.word	CS_LTCn
 170 003c 00000000 		.word	CS_LTCx
 171              		.cfi_endproc
 172              	.LFE145:
 174              		.comm	CS_LTCn,1,1
 175              		.comm	CS_LTCx,4,4
 176              		.text
 177              	.Letext0:
 178              		.file 2 "/usr/include/newlib/machine/_default_types.h"
 179              		.file 3 "/usr/include/newlib/sys/_stdint.h"
 180              		.file 4 "Drivers/CMSIS/Include/core_cm7.h"
 181              		.file 5 "Drivers/CMSIS/Device/ST/STM32F7xx/Include/system_stm32f7xx.h"
 182              		.file 6 "Drivers/CMSIS/Device/ST/STM32F7xx/Include/stm32f767xx.h"
 183              		.file 7 "Drivers/STM32F7xx_HAL_Driver/Inc/stm32f7xx_hal_def.h"
 184              		.file 8 "Drivers/STM32F7xx_HAL_Driver/Inc/stm32f7xx_hal_gpio.h"
 185              		.file 9 "Drivers/STM32F7xx_HAL_Driver/Inc/stm32f7xx_hal_dma.h"
 186              		.file 10 "Drivers/STM32F7xx_HAL_Driver/Inc/stm32f7xx_hal_spi.h"
 187              		.file 11 "Drivers/STM32F7xx_HAL_Driver/Inc/stm32f7xx_hal.h"
 188              		.file 12 "Inc/ltc.h"
ARM GAS  /tmp/ccE67uTv.s 			page 5


DEFINED SYMBOLS
                            *ABS*:0000000000000000 ltc.c
     /tmp/ccE67uTv.s:17     .text.set_pins:0000000000000000 $t
     /tmp/ccE67uTv.s:24     .text.set_pins:0000000000000000 set_pins
     /tmp/ccE67uTv.s:43     .text.set_pins:000000000000000c $d
                            *COM*:0000000000000004 CS_LTCx
                            *COM*:0000000000000001 CS_LTCn
     /tmp/ccE67uTv.s:49     .text.init:0000000000000000 $t
     /tmp/ccE67uTv.s:56     .text.init:0000000000000000 init
     /tmp/ccE67uTv.s:68     .text.read_voltages:0000000000000000 $t
     /tmp/ccE67uTv.s:75     .text.read_voltages:0000000000000000 read_voltages
     /tmp/ccE67uTv.s:87     .text.read_temperatures:0000000000000000 $t
     /tmp/ccE67uTv.s:94     .text.read_temperatures:0000000000000000 read_temperatures
     /tmp/ccE67uTv.s:106    .text.ltc6813_wakeup_idle:0000000000000000 $t
     /tmp/ccE67uTv.s:113    .text.ltc6813_wakeup_idle:0000000000000000 ltc6813_wakeup_idle
     /tmp/ccE67uTv.s:169    .text.ltc6813_wakeup_idle:0000000000000038 $d
                     .debug_frame:0000000000000010 $d

UNDEFINED SYMBOLS
HAL_GPIO_WritePin
HAL_SPI_Transmit
