ARM GAS  /tmp/cc7e9tqS.s 			page 1


   1              		.cpu cortex-m7
   2              		.eabi_attribute 28, 1
   3              		.eabi_attribute 20, 1
   4              		.eabi_attribute 21, 1
   5              		.eabi_attribute 23, 3
   6              		.eabi_attribute 24, 1
   7              		.eabi_attribute 25, 1
   8              		.eabi_attribute 26, 1
   9              		.eabi_attribute 30, 1
  10              		.eabi_attribute 34, 1
  11              		.eabi_attribute 18, 4
  12              		.file	"stm32f7xx_hal_pwr.c"
  13              		.text
  14              	.Ltext0:
  15              		.cfi_sections	.debug_frame
  16              		.section	.text.HAL_PWR_DeInit,"ax",%progbits
  17              		.align	1
  18              		.global	HAL_PWR_DeInit
  19              		.syntax unified
  20              		.thumb
  21              		.thumb_func
  22              		.fpu fpv5-d16
  24              	HAL_PWR_DeInit:
  25              	.LFB141:
  26              		.file 1 "Drivers/STM32F7xx_HAL_Driver/Src/stm32f7xx_hal_pwr.c"
   1:Drivers/STM32F7xx_HAL_Driver/Src/stm32f7xx_hal_pwr.c **** /**
   2:Drivers/STM32F7xx_HAL_Driver/Src/stm32f7xx_hal_pwr.c ****   ******************************************************************************
   3:Drivers/STM32F7xx_HAL_Driver/Src/stm32f7xx_hal_pwr.c ****   * @file    stm32f7xx_hal_pwr.c
   4:Drivers/STM32F7xx_HAL_Driver/Src/stm32f7xx_hal_pwr.c ****   * @author  MCD Application Team
   5:Drivers/STM32F7xx_HAL_Driver/Src/stm32f7xx_hal_pwr.c ****   * @brief   PWR HAL module driver.
   6:Drivers/STM32F7xx_HAL_Driver/Src/stm32f7xx_hal_pwr.c ****   *          This file provides firmware functions to manage the following 
   7:Drivers/STM32F7xx_HAL_Driver/Src/stm32f7xx_hal_pwr.c ****   *          functionalities of the Power Controller (PWR) peripheral:
   8:Drivers/STM32F7xx_HAL_Driver/Src/stm32f7xx_hal_pwr.c ****   *           + Initialization and de-initialization functions
   9:Drivers/STM32F7xx_HAL_Driver/Src/stm32f7xx_hal_pwr.c ****   *           + Peripheral Control functions 
  10:Drivers/STM32F7xx_HAL_Driver/Src/stm32f7xx_hal_pwr.c ****   *         
  11:Drivers/STM32F7xx_HAL_Driver/Src/stm32f7xx_hal_pwr.c ****   ******************************************************************************
  12:Drivers/STM32F7xx_HAL_Driver/Src/stm32f7xx_hal_pwr.c ****   * @attention
  13:Drivers/STM32F7xx_HAL_Driver/Src/stm32f7xx_hal_pwr.c ****   *
  14:Drivers/STM32F7xx_HAL_Driver/Src/stm32f7xx_hal_pwr.c ****   * <h2><center>&copy; Copyright (c) 2017 STMicroelectronics.
  15:Drivers/STM32F7xx_HAL_Driver/Src/stm32f7xx_hal_pwr.c ****   * All rights reserved.</center></h2>
  16:Drivers/STM32F7xx_HAL_Driver/Src/stm32f7xx_hal_pwr.c ****   *
  17:Drivers/STM32F7xx_HAL_Driver/Src/stm32f7xx_hal_pwr.c ****   * This software component is licensed by ST under BSD 3-Clause license,
  18:Drivers/STM32F7xx_HAL_Driver/Src/stm32f7xx_hal_pwr.c ****   * the "License"; You may not use this file except in compliance with the
  19:Drivers/STM32F7xx_HAL_Driver/Src/stm32f7xx_hal_pwr.c ****   * License. You may obtain a copy of the License at:
  20:Drivers/STM32F7xx_HAL_Driver/Src/stm32f7xx_hal_pwr.c ****   *                        opensource.org/licenses/BSD-3-Clause
  21:Drivers/STM32F7xx_HAL_Driver/Src/stm32f7xx_hal_pwr.c ****   *
  22:Drivers/STM32F7xx_HAL_Driver/Src/stm32f7xx_hal_pwr.c ****   ******************************************************************************
  23:Drivers/STM32F7xx_HAL_Driver/Src/stm32f7xx_hal_pwr.c ****   */ 
  24:Drivers/STM32F7xx_HAL_Driver/Src/stm32f7xx_hal_pwr.c **** 
  25:Drivers/STM32F7xx_HAL_Driver/Src/stm32f7xx_hal_pwr.c **** /* Includes ------------------------------------------------------------------*/
  26:Drivers/STM32F7xx_HAL_Driver/Src/stm32f7xx_hal_pwr.c **** #include "stm32f7xx_hal.h"
  27:Drivers/STM32F7xx_HAL_Driver/Src/stm32f7xx_hal_pwr.c **** 
  28:Drivers/STM32F7xx_HAL_Driver/Src/stm32f7xx_hal_pwr.c **** /** @addtogroup STM32F7xx_HAL_Driver
  29:Drivers/STM32F7xx_HAL_Driver/Src/stm32f7xx_hal_pwr.c ****   * @{
  30:Drivers/STM32F7xx_HAL_Driver/Src/stm32f7xx_hal_pwr.c ****   */
  31:Drivers/STM32F7xx_HAL_Driver/Src/stm32f7xx_hal_pwr.c **** 
  32:Drivers/STM32F7xx_HAL_Driver/Src/stm32f7xx_hal_pwr.c **** /** @defgroup PWR PWR
ARM GAS  /tmp/cc7e9tqS.s 			page 2


  33:Drivers/STM32F7xx_HAL_Driver/Src/stm32f7xx_hal_pwr.c ****   * @brief PWR HAL module driver
  34:Drivers/STM32F7xx_HAL_Driver/Src/stm32f7xx_hal_pwr.c ****   * @{
  35:Drivers/STM32F7xx_HAL_Driver/Src/stm32f7xx_hal_pwr.c ****   */
  36:Drivers/STM32F7xx_HAL_Driver/Src/stm32f7xx_hal_pwr.c **** 
  37:Drivers/STM32F7xx_HAL_Driver/Src/stm32f7xx_hal_pwr.c **** #ifdef HAL_PWR_MODULE_ENABLED
  38:Drivers/STM32F7xx_HAL_Driver/Src/stm32f7xx_hal_pwr.c **** 
  39:Drivers/STM32F7xx_HAL_Driver/Src/stm32f7xx_hal_pwr.c **** /* Private typedef -----------------------------------------------------------*/
  40:Drivers/STM32F7xx_HAL_Driver/Src/stm32f7xx_hal_pwr.c **** /* Private define ------------------------------------------------------------*/
  41:Drivers/STM32F7xx_HAL_Driver/Src/stm32f7xx_hal_pwr.c **** /** @addtogroup PWR_Private_Constants
  42:Drivers/STM32F7xx_HAL_Driver/Src/stm32f7xx_hal_pwr.c ****   * @{
  43:Drivers/STM32F7xx_HAL_Driver/Src/stm32f7xx_hal_pwr.c ****   */
  44:Drivers/STM32F7xx_HAL_Driver/Src/stm32f7xx_hal_pwr.c **** 	
  45:Drivers/STM32F7xx_HAL_Driver/Src/stm32f7xx_hal_pwr.c **** /** @defgroup PWR_PVD_Mode_Mask PWR PVD Mode Mask
  46:Drivers/STM32F7xx_HAL_Driver/Src/stm32f7xx_hal_pwr.c ****   * @{
  47:Drivers/STM32F7xx_HAL_Driver/Src/stm32f7xx_hal_pwr.c ****   */     
  48:Drivers/STM32F7xx_HAL_Driver/Src/stm32f7xx_hal_pwr.c **** #define PVD_MODE_IT               ((uint32_t)0x00010000U)
  49:Drivers/STM32F7xx_HAL_Driver/Src/stm32f7xx_hal_pwr.c **** #define PVD_MODE_EVT              ((uint32_t)0x00020000U)
  50:Drivers/STM32F7xx_HAL_Driver/Src/stm32f7xx_hal_pwr.c **** #define PVD_RISING_EDGE           ((uint32_t)0x00000001U)
  51:Drivers/STM32F7xx_HAL_Driver/Src/stm32f7xx_hal_pwr.c **** #define PVD_FALLING_EDGE          ((uint32_t)0x00000002U)
  52:Drivers/STM32F7xx_HAL_Driver/Src/stm32f7xx_hal_pwr.c **** /**
  53:Drivers/STM32F7xx_HAL_Driver/Src/stm32f7xx_hal_pwr.c ****   * @}
  54:Drivers/STM32F7xx_HAL_Driver/Src/stm32f7xx_hal_pwr.c ****   */
  55:Drivers/STM32F7xx_HAL_Driver/Src/stm32f7xx_hal_pwr.c **** 
  56:Drivers/STM32F7xx_HAL_Driver/Src/stm32f7xx_hal_pwr.c **** /** @defgroup PWR_ENABLE_WUP_Mask PWR Enable WUP Mask
  57:Drivers/STM32F7xx_HAL_Driver/Src/stm32f7xx_hal_pwr.c ****   * @{
  58:Drivers/STM32F7xx_HAL_Driver/Src/stm32f7xx_hal_pwr.c ****   */  
  59:Drivers/STM32F7xx_HAL_Driver/Src/stm32f7xx_hal_pwr.c **** #define  PWR_EWUP_MASK                          ((uint32_t)0x00003F00)
  60:Drivers/STM32F7xx_HAL_Driver/Src/stm32f7xx_hal_pwr.c **** /**
  61:Drivers/STM32F7xx_HAL_Driver/Src/stm32f7xx_hal_pwr.c ****   * @}
  62:Drivers/STM32F7xx_HAL_Driver/Src/stm32f7xx_hal_pwr.c ****   */
  63:Drivers/STM32F7xx_HAL_Driver/Src/stm32f7xx_hal_pwr.c **** 
  64:Drivers/STM32F7xx_HAL_Driver/Src/stm32f7xx_hal_pwr.c **** /**
  65:Drivers/STM32F7xx_HAL_Driver/Src/stm32f7xx_hal_pwr.c ****   * @}
  66:Drivers/STM32F7xx_HAL_Driver/Src/stm32f7xx_hal_pwr.c ****   */
  67:Drivers/STM32F7xx_HAL_Driver/Src/stm32f7xx_hal_pwr.c **** /* Private macro -------------------------------------------------------------*/
  68:Drivers/STM32F7xx_HAL_Driver/Src/stm32f7xx_hal_pwr.c **** /* Private variables ---------------------------------------------------------*/
  69:Drivers/STM32F7xx_HAL_Driver/Src/stm32f7xx_hal_pwr.c **** /* Private function prototypes -----------------------------------------------*/
  70:Drivers/STM32F7xx_HAL_Driver/Src/stm32f7xx_hal_pwr.c **** /* Private functions ---------------------------------------------------------*/
  71:Drivers/STM32F7xx_HAL_Driver/Src/stm32f7xx_hal_pwr.c **** 
  72:Drivers/STM32F7xx_HAL_Driver/Src/stm32f7xx_hal_pwr.c **** /** @defgroup PWR_Exported_Functions PWR Exported Functions
  73:Drivers/STM32F7xx_HAL_Driver/Src/stm32f7xx_hal_pwr.c ****   * @{
  74:Drivers/STM32F7xx_HAL_Driver/Src/stm32f7xx_hal_pwr.c ****   */
  75:Drivers/STM32F7xx_HAL_Driver/Src/stm32f7xx_hal_pwr.c **** 
  76:Drivers/STM32F7xx_HAL_Driver/Src/stm32f7xx_hal_pwr.c **** /** @defgroup PWR_Exported_Functions_Group1 Initialization and de-initialization functions 
  77:Drivers/STM32F7xx_HAL_Driver/Src/stm32f7xx_hal_pwr.c ****   *  @brief    Initialization and de-initialization functions
  78:Drivers/STM32F7xx_HAL_Driver/Src/stm32f7xx_hal_pwr.c ****   *
  79:Drivers/STM32F7xx_HAL_Driver/Src/stm32f7xx_hal_pwr.c **** @verbatim
  80:Drivers/STM32F7xx_HAL_Driver/Src/stm32f7xx_hal_pwr.c ****  ===============================================================================
  81:Drivers/STM32F7xx_HAL_Driver/Src/stm32f7xx_hal_pwr.c ****               ##### Initialization and de-initialization functions #####
  82:Drivers/STM32F7xx_HAL_Driver/Src/stm32f7xx_hal_pwr.c ****  ===============================================================================
  83:Drivers/STM32F7xx_HAL_Driver/Src/stm32f7xx_hal_pwr.c ****     [..]
  84:Drivers/STM32F7xx_HAL_Driver/Src/stm32f7xx_hal_pwr.c ****       After reset, the backup domain (RTC registers, RTC backup data 
  85:Drivers/STM32F7xx_HAL_Driver/Src/stm32f7xx_hal_pwr.c ****       registers and backup SRAM) is protected against possible unwanted 
  86:Drivers/STM32F7xx_HAL_Driver/Src/stm32f7xx_hal_pwr.c ****       write accesses. 
  87:Drivers/STM32F7xx_HAL_Driver/Src/stm32f7xx_hal_pwr.c ****       To enable access to the RTC Domain and RTC registers, proceed as follows:
  88:Drivers/STM32F7xx_HAL_Driver/Src/stm32f7xx_hal_pwr.c ****         (+) Enable the Power Controller (PWR) APB1 interface clock using the
  89:Drivers/STM32F7xx_HAL_Driver/Src/stm32f7xx_hal_pwr.c ****             __HAL_RCC_PWR_CLK_ENABLE() macro.
ARM GAS  /tmp/cc7e9tqS.s 			page 3


  90:Drivers/STM32F7xx_HAL_Driver/Src/stm32f7xx_hal_pwr.c ****         (+) Enable access to RTC domain using the HAL_PWR_EnableBkUpAccess() function.
  91:Drivers/STM32F7xx_HAL_Driver/Src/stm32f7xx_hal_pwr.c ****  
  92:Drivers/STM32F7xx_HAL_Driver/Src/stm32f7xx_hal_pwr.c **** @endverbatim
  93:Drivers/STM32F7xx_HAL_Driver/Src/stm32f7xx_hal_pwr.c ****   * @{
  94:Drivers/STM32F7xx_HAL_Driver/Src/stm32f7xx_hal_pwr.c ****   */
  95:Drivers/STM32F7xx_HAL_Driver/Src/stm32f7xx_hal_pwr.c **** 
  96:Drivers/STM32F7xx_HAL_Driver/Src/stm32f7xx_hal_pwr.c **** /**
  97:Drivers/STM32F7xx_HAL_Driver/Src/stm32f7xx_hal_pwr.c ****   * @brief Deinitializes the HAL PWR peripheral registers to their default reset values.
  98:Drivers/STM32F7xx_HAL_Driver/Src/stm32f7xx_hal_pwr.c ****   * @retval None
  99:Drivers/STM32F7xx_HAL_Driver/Src/stm32f7xx_hal_pwr.c ****   */
 100:Drivers/STM32F7xx_HAL_Driver/Src/stm32f7xx_hal_pwr.c **** void HAL_PWR_DeInit(void)
 101:Drivers/STM32F7xx_HAL_Driver/Src/stm32f7xx_hal_pwr.c **** {
  27              		.loc 1 101 0
  28              		.cfi_startproc
  29              		@ args = 0, pretend = 0, frame = 0
  30              		@ frame_needed = 0, uses_anonymous_args = 0
  31              		@ link register save eliminated.
 102:Drivers/STM32F7xx_HAL_Driver/Src/stm32f7xx_hal_pwr.c ****   __HAL_RCC_PWR_FORCE_RESET();
  32              		.loc 1 102 0
  33 0000 044B     		ldr	r3, .L2
  34 0002 1A6A     		ldr	r2, [r3, #32]
  35 0004 42F08052 		orr	r2, r2, #268435456
  36 0008 1A62     		str	r2, [r3, #32]
 103:Drivers/STM32F7xx_HAL_Driver/Src/stm32f7xx_hal_pwr.c ****   __HAL_RCC_PWR_RELEASE_RESET();
  37              		.loc 1 103 0
  38 000a 1A6A     		ldr	r2, [r3, #32]
  39 000c 22F08052 		bic	r2, r2, #268435456
  40 0010 1A62     		str	r2, [r3, #32]
  41 0012 7047     		bx	lr
  42              	.L3:
  43              		.align	2
  44              	.L2:
  45 0014 00380240 		.word	1073887232
  46              		.cfi_endproc
  47              	.LFE141:
  49              		.section	.text.HAL_PWR_EnableBkUpAccess,"ax",%progbits
  50              		.align	1
  51              		.global	HAL_PWR_EnableBkUpAccess
  52              		.syntax unified
  53              		.thumb
  54              		.thumb_func
  55              		.fpu fpv5-d16
  57              	HAL_PWR_EnableBkUpAccess:
  58              	.LFB142:
 104:Drivers/STM32F7xx_HAL_Driver/Src/stm32f7xx_hal_pwr.c **** }
 105:Drivers/STM32F7xx_HAL_Driver/Src/stm32f7xx_hal_pwr.c **** 
 106:Drivers/STM32F7xx_HAL_Driver/Src/stm32f7xx_hal_pwr.c **** /**
 107:Drivers/STM32F7xx_HAL_Driver/Src/stm32f7xx_hal_pwr.c ****   * @brief Enables access to the backup domain (RTC registers, RTC 
 108:Drivers/STM32F7xx_HAL_Driver/Src/stm32f7xx_hal_pwr.c ****   *         backup data registers and backup SRAM).
 109:Drivers/STM32F7xx_HAL_Driver/Src/stm32f7xx_hal_pwr.c ****   * @note If the HSE divided by 2, 3, ..31 is used as the RTC clock, the 
 110:Drivers/STM32F7xx_HAL_Driver/Src/stm32f7xx_hal_pwr.c ****   *         Backup Domain Access should be kept enabled.
 111:Drivers/STM32F7xx_HAL_Driver/Src/stm32f7xx_hal_pwr.c ****   * @retval None
 112:Drivers/STM32F7xx_HAL_Driver/Src/stm32f7xx_hal_pwr.c ****   */
 113:Drivers/STM32F7xx_HAL_Driver/Src/stm32f7xx_hal_pwr.c **** void HAL_PWR_EnableBkUpAccess(void)
 114:Drivers/STM32F7xx_HAL_Driver/Src/stm32f7xx_hal_pwr.c **** {
  59              		.loc 1 114 0
  60              		.cfi_startproc
ARM GAS  /tmp/cc7e9tqS.s 			page 4


  61              		@ args = 0, pretend = 0, frame = 0
  62              		@ frame_needed = 0, uses_anonymous_args = 0
  63              		@ link register save eliminated.
 115:Drivers/STM32F7xx_HAL_Driver/Src/stm32f7xx_hal_pwr.c ****   /* Enable access to RTC and backup registers */
 116:Drivers/STM32F7xx_HAL_Driver/Src/stm32f7xx_hal_pwr.c ****   SET_BIT(PWR->CR1, PWR_CR1_DBP);
  64              		.loc 1 116 0
  65 0000 024A     		ldr	r2, .L5
  66 0002 1368     		ldr	r3, [r2]
  67 0004 43F48073 		orr	r3, r3, #256
  68 0008 1360     		str	r3, [r2]
  69 000a 7047     		bx	lr
  70              	.L6:
  71              		.align	2
  72              	.L5:
  73 000c 00700040 		.word	1073770496
  74              		.cfi_endproc
  75              	.LFE142:
  77              		.section	.text.HAL_PWR_DisableBkUpAccess,"ax",%progbits
  78              		.align	1
  79              		.global	HAL_PWR_DisableBkUpAccess
  80              		.syntax unified
  81              		.thumb
  82              		.thumb_func
  83              		.fpu fpv5-d16
  85              	HAL_PWR_DisableBkUpAccess:
  86              	.LFB143:
 117:Drivers/STM32F7xx_HAL_Driver/Src/stm32f7xx_hal_pwr.c **** }
 118:Drivers/STM32F7xx_HAL_Driver/Src/stm32f7xx_hal_pwr.c **** 
 119:Drivers/STM32F7xx_HAL_Driver/Src/stm32f7xx_hal_pwr.c **** /**
 120:Drivers/STM32F7xx_HAL_Driver/Src/stm32f7xx_hal_pwr.c ****   * @brief Disables access to the backup domain (RTC registers, RTC 
 121:Drivers/STM32F7xx_HAL_Driver/Src/stm32f7xx_hal_pwr.c ****   *         backup data registers and backup SRAM).
 122:Drivers/STM32F7xx_HAL_Driver/Src/stm32f7xx_hal_pwr.c ****   * @note If the HSE divided by 2, 3, ..31 is used as the RTC clock, the 
 123:Drivers/STM32F7xx_HAL_Driver/Src/stm32f7xx_hal_pwr.c ****   *         Backup Domain Access should be kept enabled.
 124:Drivers/STM32F7xx_HAL_Driver/Src/stm32f7xx_hal_pwr.c ****   * @retval None
 125:Drivers/STM32F7xx_HAL_Driver/Src/stm32f7xx_hal_pwr.c ****   */
 126:Drivers/STM32F7xx_HAL_Driver/Src/stm32f7xx_hal_pwr.c **** void HAL_PWR_DisableBkUpAccess(void)
 127:Drivers/STM32F7xx_HAL_Driver/Src/stm32f7xx_hal_pwr.c **** {
  87              		.loc 1 127 0
  88              		.cfi_startproc
  89              		@ args = 0, pretend = 0, frame = 0
  90              		@ frame_needed = 0, uses_anonymous_args = 0
  91              		@ link register save eliminated.
 128:Drivers/STM32F7xx_HAL_Driver/Src/stm32f7xx_hal_pwr.c ****   /* Disable access to RTC and backup registers */
 129:Drivers/STM32F7xx_HAL_Driver/Src/stm32f7xx_hal_pwr.c **** 	CLEAR_BIT(PWR->CR1, PWR_CR1_DBP);
  92              		.loc 1 129 0
  93 0000 024A     		ldr	r2, .L8
  94 0002 1368     		ldr	r3, [r2]
  95 0004 23F48073 		bic	r3, r3, #256
  96 0008 1360     		str	r3, [r2]
  97 000a 7047     		bx	lr
  98              	.L9:
  99              		.align	2
 100              	.L8:
 101 000c 00700040 		.word	1073770496
 102              		.cfi_endproc
 103              	.LFE143:
 105              		.section	.text.HAL_PWR_ConfigPVD,"ax",%progbits
ARM GAS  /tmp/cc7e9tqS.s 			page 5


 106              		.align	1
 107              		.global	HAL_PWR_ConfigPVD
 108              		.syntax unified
 109              		.thumb
 110              		.thumb_func
 111              		.fpu fpv5-d16
 113              	HAL_PWR_ConfigPVD:
 114              	.LFB144:
 130:Drivers/STM32F7xx_HAL_Driver/Src/stm32f7xx_hal_pwr.c **** }
 131:Drivers/STM32F7xx_HAL_Driver/Src/stm32f7xx_hal_pwr.c **** 
 132:Drivers/STM32F7xx_HAL_Driver/Src/stm32f7xx_hal_pwr.c **** /**
 133:Drivers/STM32F7xx_HAL_Driver/Src/stm32f7xx_hal_pwr.c ****   * @}
 134:Drivers/STM32F7xx_HAL_Driver/Src/stm32f7xx_hal_pwr.c ****   */
 135:Drivers/STM32F7xx_HAL_Driver/Src/stm32f7xx_hal_pwr.c **** 
 136:Drivers/STM32F7xx_HAL_Driver/Src/stm32f7xx_hal_pwr.c **** /** @defgroup PWR_Exported_Functions_Group2 Peripheral Control functions 
 137:Drivers/STM32F7xx_HAL_Driver/Src/stm32f7xx_hal_pwr.c ****   *  @brief Low Power modes configuration functions 
 138:Drivers/STM32F7xx_HAL_Driver/Src/stm32f7xx_hal_pwr.c ****   *
 139:Drivers/STM32F7xx_HAL_Driver/Src/stm32f7xx_hal_pwr.c **** @verbatim
 140:Drivers/STM32F7xx_HAL_Driver/Src/stm32f7xx_hal_pwr.c **** 
 141:Drivers/STM32F7xx_HAL_Driver/Src/stm32f7xx_hal_pwr.c ****  ===============================================================================
 142:Drivers/STM32F7xx_HAL_Driver/Src/stm32f7xx_hal_pwr.c ****                  ##### Peripheral Control functions #####
 143:Drivers/STM32F7xx_HAL_Driver/Src/stm32f7xx_hal_pwr.c ****  ===============================================================================
 144:Drivers/STM32F7xx_HAL_Driver/Src/stm32f7xx_hal_pwr.c ****      
 145:Drivers/STM32F7xx_HAL_Driver/Src/stm32f7xx_hal_pwr.c ****     *** PVD configuration ***
 146:Drivers/STM32F7xx_HAL_Driver/Src/stm32f7xx_hal_pwr.c ****     =========================
 147:Drivers/STM32F7xx_HAL_Driver/Src/stm32f7xx_hal_pwr.c ****     [..]
 148:Drivers/STM32F7xx_HAL_Driver/Src/stm32f7xx_hal_pwr.c ****       (+) The PVD is used to monitor the VDD power supply by comparing it to a 
 149:Drivers/STM32F7xx_HAL_Driver/Src/stm32f7xx_hal_pwr.c ****           threshold selected by the PVD Level (PLS[2:0] bits in the PWR_CR).
 150:Drivers/STM32F7xx_HAL_Driver/Src/stm32f7xx_hal_pwr.c ****       (+) A PVDO flag is available to indicate if VDD/VDDA is higher or lower 
 151:Drivers/STM32F7xx_HAL_Driver/Src/stm32f7xx_hal_pwr.c ****           than the PVD threshold. This event is internally connected to the EXTI 
 152:Drivers/STM32F7xx_HAL_Driver/Src/stm32f7xx_hal_pwr.c ****           line16 and can generate an interrupt if enabled. This is done through
 153:Drivers/STM32F7xx_HAL_Driver/Src/stm32f7xx_hal_pwr.c ****           __HAL_PWR_PVD_EXTI_ENABLE_IT() macro.
 154:Drivers/STM32F7xx_HAL_Driver/Src/stm32f7xx_hal_pwr.c ****       (+) The PVD is stopped in Standby mode.
 155:Drivers/STM32F7xx_HAL_Driver/Src/stm32f7xx_hal_pwr.c **** 
 156:Drivers/STM32F7xx_HAL_Driver/Src/stm32f7xx_hal_pwr.c ****     *** Wake-up pin configuration ***
 157:Drivers/STM32F7xx_HAL_Driver/Src/stm32f7xx_hal_pwr.c ****     ================================
 158:Drivers/STM32F7xx_HAL_Driver/Src/stm32f7xx_hal_pwr.c ****     [..]
 159:Drivers/STM32F7xx_HAL_Driver/Src/stm32f7xx_hal_pwr.c ****       (+) Wake-up pin is used to wake up the system from Standby mode. This pin is 
 160:Drivers/STM32F7xx_HAL_Driver/Src/stm32f7xx_hal_pwr.c ****           forced in input pull-down configuration and is active on rising edges.
 161:Drivers/STM32F7xx_HAL_Driver/Src/stm32f7xx_hal_pwr.c ****       (+) There are up to 6 Wake-up pin in the STM32F7 devices family
 162:Drivers/STM32F7xx_HAL_Driver/Src/stm32f7xx_hal_pwr.c **** 
 163:Drivers/STM32F7xx_HAL_Driver/Src/stm32f7xx_hal_pwr.c ****     *** Low Power modes configuration ***
 164:Drivers/STM32F7xx_HAL_Driver/Src/stm32f7xx_hal_pwr.c ****     =====================================
 165:Drivers/STM32F7xx_HAL_Driver/Src/stm32f7xx_hal_pwr.c ****     [..]
 166:Drivers/STM32F7xx_HAL_Driver/Src/stm32f7xx_hal_pwr.c ****       The devices feature 3 low-power modes:
 167:Drivers/STM32F7xx_HAL_Driver/Src/stm32f7xx_hal_pwr.c ****       (+) Sleep mode: Cortex-M7 core stopped, peripherals kept running.
 168:Drivers/STM32F7xx_HAL_Driver/Src/stm32f7xx_hal_pwr.c ****       (+) Stop mode: all clocks are stopped, regulator running, regulator 
 169:Drivers/STM32F7xx_HAL_Driver/Src/stm32f7xx_hal_pwr.c ****           in low power mode
 170:Drivers/STM32F7xx_HAL_Driver/Src/stm32f7xx_hal_pwr.c ****       (+) Standby mode: 1.2V domain powered off.
 171:Drivers/STM32F7xx_HAL_Driver/Src/stm32f7xx_hal_pwr.c ****    
 172:Drivers/STM32F7xx_HAL_Driver/Src/stm32f7xx_hal_pwr.c ****    *** Sleep mode ***
 173:Drivers/STM32F7xx_HAL_Driver/Src/stm32f7xx_hal_pwr.c ****    ==================
 174:Drivers/STM32F7xx_HAL_Driver/Src/stm32f7xx_hal_pwr.c ****     [..]
 175:Drivers/STM32F7xx_HAL_Driver/Src/stm32f7xx_hal_pwr.c ****       (+) Entry:
 176:Drivers/STM32F7xx_HAL_Driver/Src/stm32f7xx_hal_pwr.c ****         The Sleep mode is entered by using the HAL_PWR_EnterSLEEPMode(PWR_MAINREGULATOR_ON, PWR_SLE
 177:Drivers/STM32F7xx_HAL_Driver/Src/stm32f7xx_hal_pwr.c ****               functions with
 178:Drivers/STM32F7xx_HAL_Driver/Src/stm32f7xx_hal_pwr.c ****           (++) PWR_SLEEPENTRY_WFI: enter SLEEP mode with WFI instruction
ARM GAS  /tmp/cc7e9tqS.s 			page 6


 179:Drivers/STM32F7xx_HAL_Driver/Src/stm32f7xx_hal_pwr.c ****           (++) PWR_SLEEPENTRY_WFE: enter SLEEP mode with WFE instruction
 180:Drivers/STM32F7xx_HAL_Driver/Src/stm32f7xx_hal_pwr.c ****       
 181:Drivers/STM32F7xx_HAL_Driver/Src/stm32f7xx_hal_pwr.c ****       -@@- The Regulator parameter is not used for the STM32F7 family 
 182:Drivers/STM32F7xx_HAL_Driver/Src/stm32f7xx_hal_pwr.c ****               and is kept as parameter just to maintain compatibility with the 
 183:Drivers/STM32F7xx_HAL_Driver/Src/stm32f7xx_hal_pwr.c ****               lower power families (STM32L).
 184:Drivers/STM32F7xx_HAL_Driver/Src/stm32f7xx_hal_pwr.c ****       (+) Exit:
 185:Drivers/STM32F7xx_HAL_Driver/Src/stm32f7xx_hal_pwr.c ****         Any peripheral interrupt acknowledged by the nested vectored interrupt 
 186:Drivers/STM32F7xx_HAL_Driver/Src/stm32f7xx_hal_pwr.c ****               controller (NVIC) can wake up the device from Sleep mode.
 187:Drivers/STM32F7xx_HAL_Driver/Src/stm32f7xx_hal_pwr.c **** 
 188:Drivers/STM32F7xx_HAL_Driver/Src/stm32f7xx_hal_pwr.c ****    *** Stop mode ***
 189:Drivers/STM32F7xx_HAL_Driver/Src/stm32f7xx_hal_pwr.c ****    =================
 190:Drivers/STM32F7xx_HAL_Driver/Src/stm32f7xx_hal_pwr.c ****     [..]
 191:Drivers/STM32F7xx_HAL_Driver/Src/stm32f7xx_hal_pwr.c ****       In Stop mode, all clocks in the 1.2V domain are stopped, the PLL, the HSI,
 192:Drivers/STM32F7xx_HAL_Driver/Src/stm32f7xx_hal_pwr.c ****       and the HSE RC oscillators are disabled. Internal SRAM and register contents 
 193:Drivers/STM32F7xx_HAL_Driver/Src/stm32f7xx_hal_pwr.c ****       are preserved.
 194:Drivers/STM32F7xx_HAL_Driver/Src/stm32f7xx_hal_pwr.c ****       The voltage regulator can be configured either in normal or low-power mode.
 195:Drivers/STM32F7xx_HAL_Driver/Src/stm32f7xx_hal_pwr.c ****       To minimize the consumption In Stop mode, FLASH can be powered off before 
 196:Drivers/STM32F7xx_HAL_Driver/Src/stm32f7xx_hal_pwr.c ****       entering the Stop mode using the HAL_PWREx_EnableFlashPowerDown() function.
 197:Drivers/STM32F7xx_HAL_Driver/Src/stm32f7xx_hal_pwr.c ****       It can be switched on again by software after exiting the Stop mode using
 198:Drivers/STM32F7xx_HAL_Driver/Src/stm32f7xx_hal_pwr.c ****       the HAL_PWREx_DisableFlashPowerDown() function. 
 199:Drivers/STM32F7xx_HAL_Driver/Src/stm32f7xx_hal_pwr.c **** 
 200:Drivers/STM32F7xx_HAL_Driver/Src/stm32f7xx_hal_pwr.c ****       (+) Entry:
 201:Drivers/STM32F7xx_HAL_Driver/Src/stm32f7xx_hal_pwr.c ****          The Stop mode is entered using the HAL_PWR_EnterSTOPMode(PWR_MAINREGULATOR_ON) 
 202:Drivers/STM32F7xx_HAL_Driver/Src/stm32f7xx_hal_pwr.c ****              function with:
 203:Drivers/STM32F7xx_HAL_Driver/Src/stm32f7xx_hal_pwr.c ****           (++) Main regulator ON.
 204:Drivers/STM32F7xx_HAL_Driver/Src/stm32f7xx_hal_pwr.c ****           (++) Low Power regulator ON.
 205:Drivers/STM32F7xx_HAL_Driver/Src/stm32f7xx_hal_pwr.c ****       (+) Exit:
 206:Drivers/STM32F7xx_HAL_Driver/Src/stm32f7xx_hal_pwr.c ****         Any EXTI Line (Internal or External) configured in Interrupt/Event mode.
 207:Drivers/STM32F7xx_HAL_Driver/Src/stm32f7xx_hal_pwr.c **** 
 208:Drivers/STM32F7xx_HAL_Driver/Src/stm32f7xx_hal_pwr.c ****    *** Standby mode ***
 209:Drivers/STM32F7xx_HAL_Driver/Src/stm32f7xx_hal_pwr.c ****    ====================
 210:Drivers/STM32F7xx_HAL_Driver/Src/stm32f7xx_hal_pwr.c ****     [..]
 211:Drivers/STM32F7xx_HAL_Driver/Src/stm32f7xx_hal_pwr.c ****     (+)
 212:Drivers/STM32F7xx_HAL_Driver/Src/stm32f7xx_hal_pwr.c ****       The Standby mode allows to achieve the lowest power consumption. It is based 
 213:Drivers/STM32F7xx_HAL_Driver/Src/stm32f7xx_hal_pwr.c ****       on the Cortex-M7 deep sleep mode, with the voltage regulator disabled. 
 214:Drivers/STM32F7xx_HAL_Driver/Src/stm32f7xx_hal_pwr.c ****       The 1.2V domain is consequently powered off. The PLL, the HSI oscillator and 
 215:Drivers/STM32F7xx_HAL_Driver/Src/stm32f7xx_hal_pwr.c ****       the HSE oscillator are also switched off. SRAM and register contents are lost 
 216:Drivers/STM32F7xx_HAL_Driver/Src/stm32f7xx_hal_pwr.c ****       except for the RTC registers, RTC backup registers, backup SRAM and Standby 
 217:Drivers/STM32F7xx_HAL_Driver/Src/stm32f7xx_hal_pwr.c ****       circuitry.
 218:Drivers/STM32F7xx_HAL_Driver/Src/stm32f7xx_hal_pwr.c ****    
 219:Drivers/STM32F7xx_HAL_Driver/Src/stm32f7xx_hal_pwr.c ****       The voltage regulator is OFF.
 220:Drivers/STM32F7xx_HAL_Driver/Src/stm32f7xx_hal_pwr.c ****       
 221:Drivers/STM32F7xx_HAL_Driver/Src/stm32f7xx_hal_pwr.c ****       (++) Entry:
 222:Drivers/STM32F7xx_HAL_Driver/Src/stm32f7xx_hal_pwr.c ****         (+++) The Standby mode is entered using the HAL_PWR_EnterSTANDBYMode() function.
 223:Drivers/STM32F7xx_HAL_Driver/Src/stm32f7xx_hal_pwr.c ****       (++) Exit:
 224:Drivers/STM32F7xx_HAL_Driver/Src/stm32f7xx_hal_pwr.c ****         (+++) WKUP pin rising or falling edge, RTC alarm (Alarm A and Alarm B), RTC
 225:Drivers/STM32F7xx_HAL_Driver/Src/stm32f7xx_hal_pwr.c ****              wakeup, tamper event, time stamp event, external reset in NRST pin, IWDG reset.
 226:Drivers/STM32F7xx_HAL_Driver/Src/stm32f7xx_hal_pwr.c **** 
 227:Drivers/STM32F7xx_HAL_Driver/Src/stm32f7xx_hal_pwr.c ****    *** Auto-wakeup (AWU) from low-power mode ***
 228:Drivers/STM32F7xx_HAL_Driver/Src/stm32f7xx_hal_pwr.c ****    =============================================
 229:Drivers/STM32F7xx_HAL_Driver/Src/stm32f7xx_hal_pwr.c ****     [..]
 230:Drivers/STM32F7xx_HAL_Driver/Src/stm32f7xx_hal_pwr.c ****     
 231:Drivers/STM32F7xx_HAL_Driver/Src/stm32f7xx_hal_pwr.c ****      (+) The MCU can be woken up from low-power mode by an RTC Alarm event, an RTC 
 232:Drivers/STM32F7xx_HAL_Driver/Src/stm32f7xx_hal_pwr.c ****       Wakeup event, a tamper event or a time-stamp event, without depending on 
 233:Drivers/STM32F7xx_HAL_Driver/Src/stm32f7xx_hal_pwr.c ****       an external interrupt (Auto-wakeup mode).
 234:Drivers/STM32F7xx_HAL_Driver/Src/stm32f7xx_hal_pwr.c **** 
 235:Drivers/STM32F7xx_HAL_Driver/Src/stm32f7xx_hal_pwr.c ****       (+) RTC auto-wakeup (AWU) from the Stop and Standby modes
ARM GAS  /tmp/cc7e9tqS.s 			page 7


 236:Drivers/STM32F7xx_HAL_Driver/Src/stm32f7xx_hal_pwr.c ****        
 237:Drivers/STM32F7xx_HAL_Driver/Src/stm32f7xx_hal_pwr.c ****         (++) To wake up from the Stop mode with an RTC alarm event, it is necessary to 
 238:Drivers/STM32F7xx_HAL_Driver/Src/stm32f7xx_hal_pwr.c ****               configure the RTC to generate the RTC alarm using the HAL_RTC_SetAlarm_IT() function.
 239:Drivers/STM32F7xx_HAL_Driver/Src/stm32f7xx_hal_pwr.c **** 
 240:Drivers/STM32F7xx_HAL_Driver/Src/stm32f7xx_hal_pwr.c ****         (++) To wake up from the Stop mode with an RTC Tamper or time stamp event, it 
 241:Drivers/STM32F7xx_HAL_Driver/Src/stm32f7xx_hal_pwr.c ****              is necessary to configure the RTC to detect the tamper or time stamp event using the
 242:Drivers/STM32F7xx_HAL_Driver/Src/stm32f7xx_hal_pwr.c ****                 HAL_RTCEx_SetTimeStamp_IT() or HAL_RTCEx_SetTamper_IT() functions.
 243:Drivers/STM32F7xx_HAL_Driver/Src/stm32f7xx_hal_pwr.c ****                   
 244:Drivers/STM32F7xx_HAL_Driver/Src/stm32f7xx_hal_pwr.c ****         (++) To wake up from the Stop mode with an RTC WakeUp event, it is necessary to
 245:Drivers/STM32F7xx_HAL_Driver/Src/stm32f7xx_hal_pwr.c ****               configure the RTC to generate the RTC WakeUp event using the HAL_RTCEx_SetWakeUpTimer
 246:Drivers/STM32F7xx_HAL_Driver/Src/stm32f7xx_hal_pwr.c **** 
 247:Drivers/STM32F7xx_HAL_Driver/Src/stm32f7xx_hal_pwr.c **** @endverbatim
 248:Drivers/STM32F7xx_HAL_Driver/Src/stm32f7xx_hal_pwr.c ****   * @{
 249:Drivers/STM32F7xx_HAL_Driver/Src/stm32f7xx_hal_pwr.c ****   */
 250:Drivers/STM32F7xx_HAL_Driver/Src/stm32f7xx_hal_pwr.c **** 
 251:Drivers/STM32F7xx_HAL_Driver/Src/stm32f7xx_hal_pwr.c **** /**
 252:Drivers/STM32F7xx_HAL_Driver/Src/stm32f7xx_hal_pwr.c ****   * @brief Configures the voltage threshold detected by the Power Voltage Detector(PVD).
 253:Drivers/STM32F7xx_HAL_Driver/Src/stm32f7xx_hal_pwr.c ****   * @param sConfigPVD pointer to an PWR_PVDTypeDef structure that contains the configuration
 254:Drivers/STM32F7xx_HAL_Driver/Src/stm32f7xx_hal_pwr.c ****   *        information for the PVD.
 255:Drivers/STM32F7xx_HAL_Driver/Src/stm32f7xx_hal_pwr.c ****   * @note Refer to the electrical characteristics of your device datasheet for
 256:Drivers/STM32F7xx_HAL_Driver/Src/stm32f7xx_hal_pwr.c ****   *         more details about the voltage threshold corresponding to each 
 257:Drivers/STM32F7xx_HAL_Driver/Src/stm32f7xx_hal_pwr.c ****   *         detection level.
 258:Drivers/STM32F7xx_HAL_Driver/Src/stm32f7xx_hal_pwr.c ****   * @retval None
 259:Drivers/STM32F7xx_HAL_Driver/Src/stm32f7xx_hal_pwr.c ****   */
 260:Drivers/STM32F7xx_HAL_Driver/Src/stm32f7xx_hal_pwr.c **** void HAL_PWR_ConfigPVD(PWR_PVDTypeDef *sConfigPVD)
 261:Drivers/STM32F7xx_HAL_Driver/Src/stm32f7xx_hal_pwr.c **** {
 115              		.loc 1 261 0
 116              		.cfi_startproc
 117              		@ args = 0, pretend = 0, frame = 0
 118              		@ frame_needed = 0, uses_anonymous_args = 0
 119              		@ link register save eliminated.
 120              	.LVL0:
 262:Drivers/STM32F7xx_HAL_Driver/Src/stm32f7xx_hal_pwr.c ****   /* Check the parameters */
 263:Drivers/STM32F7xx_HAL_Driver/Src/stm32f7xx_hal_pwr.c ****   assert_param(IS_PWR_PVD_LEVEL(sConfigPVD->PVDLevel));
 264:Drivers/STM32F7xx_HAL_Driver/Src/stm32f7xx_hal_pwr.c ****   assert_param(IS_PWR_PVD_MODE(sConfigPVD->Mode));
 265:Drivers/STM32F7xx_HAL_Driver/Src/stm32f7xx_hal_pwr.c ****   
 266:Drivers/STM32F7xx_HAL_Driver/Src/stm32f7xx_hal_pwr.c ****   /* Set PLS[7:5] bits according to PVDLevel value */
 267:Drivers/STM32F7xx_HAL_Driver/Src/stm32f7xx_hal_pwr.c ****   MODIFY_REG(PWR->CR1, PWR_CR1_PLS, sConfigPVD->PVDLevel);
 121              		.loc 1 267 0
 122 0000 1E4A     		ldr	r2, .L15
 123 0002 1368     		ldr	r3, [r2]
 124 0004 23F0E003 		bic	r3, r3, #224
 125 0008 0168     		ldr	r1, [r0]
 126 000a 0B43     		orrs	r3, r3, r1
 127 000c 1360     		str	r3, [r2]
 268:Drivers/STM32F7xx_HAL_Driver/Src/stm32f7xx_hal_pwr.c ****   
 269:Drivers/STM32F7xx_HAL_Driver/Src/stm32f7xx_hal_pwr.c ****   /* Clear any previous config. Keep it clear if no event or IT mode is selected */
 270:Drivers/STM32F7xx_HAL_Driver/Src/stm32f7xx_hal_pwr.c ****   __HAL_PWR_PVD_EXTI_DISABLE_EVENT();
 128              		.loc 1 270 0
 129 000e 1C4B     		ldr	r3, .L15+4
 130 0010 5A68     		ldr	r2, [r3, #4]
 131 0012 22F48032 		bic	r2, r2, #65536
 132 0016 5A60     		str	r2, [r3, #4]
 271:Drivers/STM32F7xx_HAL_Driver/Src/stm32f7xx_hal_pwr.c ****   __HAL_PWR_PVD_EXTI_DISABLE_IT();
 133              		.loc 1 271 0
 134 0018 1A68     		ldr	r2, [r3]
 135 001a 22F48032 		bic	r2, r2, #65536
ARM GAS  /tmp/cc7e9tqS.s 			page 8


 136 001e 1A60     		str	r2, [r3]
 272:Drivers/STM32F7xx_HAL_Driver/Src/stm32f7xx_hal_pwr.c ****   __HAL_PWR_PVD_EXTI_DISABLE_RISING_EDGE();
 137              		.loc 1 272 0
 138 0020 9A68     		ldr	r2, [r3, #8]
 139 0022 22F48032 		bic	r2, r2, #65536
 140 0026 9A60     		str	r2, [r3, #8]
 273:Drivers/STM32F7xx_HAL_Driver/Src/stm32f7xx_hal_pwr.c ****   __HAL_PWR_PVD_EXTI_DISABLE_FALLING_EDGE(); 
 141              		.loc 1 273 0
 142 0028 DA68     		ldr	r2, [r3, #12]
 143 002a 22F48032 		bic	r2, r2, #65536
 144 002e DA60     		str	r2, [r3, #12]
 274:Drivers/STM32F7xx_HAL_Driver/Src/stm32f7xx_hal_pwr.c **** 
 275:Drivers/STM32F7xx_HAL_Driver/Src/stm32f7xx_hal_pwr.c ****   /* Configure interrupt mode */
 276:Drivers/STM32F7xx_HAL_Driver/Src/stm32f7xx_hal_pwr.c ****   if((sConfigPVD->Mode & PVD_MODE_IT) == PVD_MODE_IT)
 145              		.loc 1 276 0
 146 0030 4368     		ldr	r3, [r0, #4]
 147 0032 13F4803F 		tst	r3, #65536
 148 0036 04D0     		beq	.L11
 277:Drivers/STM32F7xx_HAL_Driver/Src/stm32f7xx_hal_pwr.c ****   {
 278:Drivers/STM32F7xx_HAL_Driver/Src/stm32f7xx_hal_pwr.c ****     __HAL_PWR_PVD_EXTI_ENABLE_IT();
 149              		.loc 1 278 0
 150 0038 114A     		ldr	r2, .L15+4
 151 003a 1368     		ldr	r3, [r2]
 152 003c 43F48033 		orr	r3, r3, #65536
 153 0040 1360     		str	r3, [r2]
 154              	.L11:
 279:Drivers/STM32F7xx_HAL_Driver/Src/stm32f7xx_hal_pwr.c ****   }
 280:Drivers/STM32F7xx_HAL_Driver/Src/stm32f7xx_hal_pwr.c ****   
 281:Drivers/STM32F7xx_HAL_Driver/Src/stm32f7xx_hal_pwr.c ****   /* Configure event mode */
 282:Drivers/STM32F7xx_HAL_Driver/Src/stm32f7xx_hal_pwr.c ****   if((sConfigPVD->Mode & PVD_MODE_EVT) == PVD_MODE_EVT)
 155              		.loc 1 282 0
 156 0042 4368     		ldr	r3, [r0, #4]
 157 0044 13F4003F 		tst	r3, #131072
 158 0048 04D0     		beq	.L12
 283:Drivers/STM32F7xx_HAL_Driver/Src/stm32f7xx_hal_pwr.c ****   {
 284:Drivers/STM32F7xx_HAL_Driver/Src/stm32f7xx_hal_pwr.c ****     __HAL_PWR_PVD_EXTI_ENABLE_EVENT();
 159              		.loc 1 284 0
 160 004a 0D4A     		ldr	r2, .L15+4
 161 004c 5368     		ldr	r3, [r2, #4]
 162 004e 43F48033 		orr	r3, r3, #65536
 163 0052 5360     		str	r3, [r2, #4]
 164              	.L12:
 285:Drivers/STM32F7xx_HAL_Driver/Src/stm32f7xx_hal_pwr.c ****   }
 286:Drivers/STM32F7xx_HAL_Driver/Src/stm32f7xx_hal_pwr.c ****   
 287:Drivers/STM32F7xx_HAL_Driver/Src/stm32f7xx_hal_pwr.c ****   /* Configure the edge */
 288:Drivers/STM32F7xx_HAL_Driver/Src/stm32f7xx_hal_pwr.c ****   if((sConfigPVD->Mode & PVD_RISING_EDGE) == PVD_RISING_EDGE)
 165              		.loc 1 288 0
 166 0054 4368     		ldr	r3, [r0, #4]
 167 0056 13F0010F 		tst	r3, #1
 168 005a 04D0     		beq	.L13
 289:Drivers/STM32F7xx_HAL_Driver/Src/stm32f7xx_hal_pwr.c ****   {
 290:Drivers/STM32F7xx_HAL_Driver/Src/stm32f7xx_hal_pwr.c ****     __HAL_PWR_PVD_EXTI_ENABLE_RISING_EDGE();
 169              		.loc 1 290 0
 170 005c 084A     		ldr	r2, .L15+4
 171 005e 9368     		ldr	r3, [r2, #8]
 172 0060 43F48033 		orr	r3, r3, #65536
 173 0064 9360     		str	r3, [r2, #8]
ARM GAS  /tmp/cc7e9tqS.s 			page 9


 174              	.L13:
 291:Drivers/STM32F7xx_HAL_Driver/Src/stm32f7xx_hal_pwr.c ****   }
 292:Drivers/STM32F7xx_HAL_Driver/Src/stm32f7xx_hal_pwr.c ****   
 293:Drivers/STM32F7xx_HAL_Driver/Src/stm32f7xx_hal_pwr.c ****   if((sConfigPVD->Mode & PVD_FALLING_EDGE) == PVD_FALLING_EDGE)
 175              		.loc 1 293 0
 176 0066 4368     		ldr	r3, [r0, #4]
 177 0068 13F0020F 		tst	r3, #2
 178 006c 04D0     		beq	.L10
 294:Drivers/STM32F7xx_HAL_Driver/Src/stm32f7xx_hal_pwr.c ****   {
 295:Drivers/STM32F7xx_HAL_Driver/Src/stm32f7xx_hal_pwr.c ****     __HAL_PWR_PVD_EXTI_ENABLE_FALLING_EDGE();
 179              		.loc 1 295 0
 180 006e 044A     		ldr	r2, .L15+4
 181 0070 D368     		ldr	r3, [r2, #12]
 182 0072 43F48033 		orr	r3, r3, #65536
 183 0076 D360     		str	r3, [r2, #12]
 184              	.L10:
 185 0078 7047     		bx	lr
 186              	.L16:
 187 007a 00BF     		.align	2
 188              	.L15:
 189 007c 00700040 		.word	1073770496
 190 0080 003C0140 		.word	1073822720
 191              		.cfi_endproc
 192              	.LFE144:
 194              		.section	.text.HAL_PWR_EnablePVD,"ax",%progbits
 195              		.align	1
 196              		.global	HAL_PWR_EnablePVD
 197              		.syntax unified
 198              		.thumb
 199              		.thumb_func
 200              		.fpu fpv5-d16
 202              	HAL_PWR_EnablePVD:
 203              	.LFB145:
 296:Drivers/STM32F7xx_HAL_Driver/Src/stm32f7xx_hal_pwr.c ****   }
 297:Drivers/STM32F7xx_HAL_Driver/Src/stm32f7xx_hal_pwr.c **** }
 298:Drivers/STM32F7xx_HAL_Driver/Src/stm32f7xx_hal_pwr.c **** 
 299:Drivers/STM32F7xx_HAL_Driver/Src/stm32f7xx_hal_pwr.c **** /**
 300:Drivers/STM32F7xx_HAL_Driver/Src/stm32f7xx_hal_pwr.c ****   * @brief Enables the Power Voltage Detector(PVD).
 301:Drivers/STM32F7xx_HAL_Driver/Src/stm32f7xx_hal_pwr.c ****   * @retval None
 302:Drivers/STM32F7xx_HAL_Driver/Src/stm32f7xx_hal_pwr.c ****   */
 303:Drivers/STM32F7xx_HAL_Driver/Src/stm32f7xx_hal_pwr.c **** void HAL_PWR_EnablePVD(void)
 304:Drivers/STM32F7xx_HAL_Driver/Src/stm32f7xx_hal_pwr.c **** {
 204              		.loc 1 304 0
 205              		.cfi_startproc
 206              		@ args = 0, pretend = 0, frame = 0
 207              		@ frame_needed = 0, uses_anonymous_args = 0
 208              		@ link register save eliminated.
 305:Drivers/STM32F7xx_HAL_Driver/Src/stm32f7xx_hal_pwr.c ****   /* Enable the power voltage detector */
 306:Drivers/STM32F7xx_HAL_Driver/Src/stm32f7xx_hal_pwr.c **** 	SET_BIT(PWR->CR1, PWR_CR1_PVDE);
 209              		.loc 1 306 0
 210 0000 024A     		ldr	r2, .L18
 211 0002 1368     		ldr	r3, [r2]
 212 0004 43F01003 		orr	r3, r3, #16
 213 0008 1360     		str	r3, [r2]
 214 000a 7047     		bx	lr
 215              	.L19:
 216              		.align	2
ARM GAS  /tmp/cc7e9tqS.s 			page 10


 217              	.L18:
 218 000c 00700040 		.word	1073770496
 219              		.cfi_endproc
 220              	.LFE145:
 222              		.section	.text.HAL_PWR_DisablePVD,"ax",%progbits
 223              		.align	1
 224              		.global	HAL_PWR_DisablePVD
 225              		.syntax unified
 226              		.thumb
 227              		.thumb_func
 228              		.fpu fpv5-d16
 230              	HAL_PWR_DisablePVD:
 231              	.LFB146:
 307:Drivers/STM32F7xx_HAL_Driver/Src/stm32f7xx_hal_pwr.c **** }
 308:Drivers/STM32F7xx_HAL_Driver/Src/stm32f7xx_hal_pwr.c **** 
 309:Drivers/STM32F7xx_HAL_Driver/Src/stm32f7xx_hal_pwr.c **** /**
 310:Drivers/STM32F7xx_HAL_Driver/Src/stm32f7xx_hal_pwr.c ****   * @brief Disables the Power Voltage Detector(PVD).
 311:Drivers/STM32F7xx_HAL_Driver/Src/stm32f7xx_hal_pwr.c ****   * @retval None
 312:Drivers/STM32F7xx_HAL_Driver/Src/stm32f7xx_hal_pwr.c ****   */
 313:Drivers/STM32F7xx_HAL_Driver/Src/stm32f7xx_hal_pwr.c **** void HAL_PWR_DisablePVD(void)
 314:Drivers/STM32F7xx_HAL_Driver/Src/stm32f7xx_hal_pwr.c **** {
 232              		.loc 1 314 0
 233              		.cfi_startproc
 234              		@ args = 0, pretend = 0, frame = 0
 235              		@ frame_needed = 0, uses_anonymous_args = 0
 236              		@ link register save eliminated.
 315:Drivers/STM32F7xx_HAL_Driver/Src/stm32f7xx_hal_pwr.c ****   /* Disable the power voltage detector */
 316:Drivers/STM32F7xx_HAL_Driver/Src/stm32f7xx_hal_pwr.c **** 	CLEAR_BIT(PWR->CR1, PWR_CR1_PVDE);
 237              		.loc 1 316 0
 238 0000 024A     		ldr	r2, .L21
 239 0002 1368     		ldr	r3, [r2]
 240 0004 23F01003 		bic	r3, r3, #16
 241 0008 1360     		str	r3, [r2]
 242 000a 7047     		bx	lr
 243              	.L22:
 244              		.align	2
 245              	.L21:
 246 000c 00700040 		.word	1073770496
 247              		.cfi_endproc
 248              	.LFE146:
 250              		.section	.text.HAL_PWR_EnableWakeUpPin,"ax",%progbits
 251              		.align	1
 252              		.global	HAL_PWR_EnableWakeUpPin
 253              		.syntax unified
 254              		.thumb
 255              		.thumb_func
 256              		.fpu fpv5-d16
 258              	HAL_PWR_EnableWakeUpPin:
 259              	.LFB147:
 317:Drivers/STM32F7xx_HAL_Driver/Src/stm32f7xx_hal_pwr.c **** }
 318:Drivers/STM32F7xx_HAL_Driver/Src/stm32f7xx_hal_pwr.c **** 
 319:Drivers/STM32F7xx_HAL_Driver/Src/stm32f7xx_hal_pwr.c **** /**
 320:Drivers/STM32F7xx_HAL_Driver/Src/stm32f7xx_hal_pwr.c ****   * @brief Enable the WakeUp PINx functionality.
 321:Drivers/STM32F7xx_HAL_Driver/Src/stm32f7xx_hal_pwr.c ****   * @param WakeUpPinPolarity Specifies which Wake-Up pin to enable.
 322:Drivers/STM32F7xx_HAL_Driver/Src/stm32f7xx_hal_pwr.c ****   *         This parameter can be one of the following legacy values, which sets the default polari
 323:Drivers/STM32F7xx_HAL_Driver/Src/stm32f7xx_hal_pwr.c ****   *         detection on high level (rising edge):
 324:Drivers/STM32F7xx_HAL_Driver/Src/stm32f7xx_hal_pwr.c ****   *           @arg PWR_WAKEUP_PIN1, PWR_WAKEUP_PIN2, PWR_WAKEUP_PIN3, PWR_WAKEUP_PIN4, PWR_WAKEUP_P
ARM GAS  /tmp/cc7e9tqS.s 			page 11


 325:Drivers/STM32F7xx_HAL_Driver/Src/stm32f7xx_hal_pwr.c ****   *         or one of the following value where the user can explicitly states the enabled pin and
 326:Drivers/STM32F7xx_HAL_Driver/Src/stm32f7xx_hal_pwr.c ****   *         the chosen polarity  
 327:Drivers/STM32F7xx_HAL_Driver/Src/stm32f7xx_hal_pwr.c ****   *           @arg PWR_WAKEUP_PIN1_HIGH or PWR_WAKEUP_PIN1_LOW 
 328:Drivers/STM32F7xx_HAL_Driver/Src/stm32f7xx_hal_pwr.c ****   *           @arg PWR_WAKEUP_PIN2_HIGH or PWR_WAKEUP_PIN2_LOW 
 329:Drivers/STM32F7xx_HAL_Driver/Src/stm32f7xx_hal_pwr.c ****   *           @arg PWR_WAKEUP_PIN3_HIGH or PWR_WAKEUP_PIN3_LOW 
 330:Drivers/STM32F7xx_HAL_Driver/Src/stm32f7xx_hal_pwr.c ****   *           @arg PWR_WAKEUP_PIN4_HIGH or PWR_WAKEUP_PIN4_LOW
 331:Drivers/STM32F7xx_HAL_Driver/Src/stm32f7xx_hal_pwr.c ****   *           @arg PWR_WAKEUP_PIN5_HIGH or PWR_WAKEUP_PIN5_LOW 
 332:Drivers/STM32F7xx_HAL_Driver/Src/stm32f7xx_hal_pwr.c ****   *           @arg PWR_WAKEUP_PIN6_HIGH or PWR_WAKEUP_PIN6_LOW 
 333:Drivers/STM32F7xx_HAL_Driver/Src/stm32f7xx_hal_pwr.c ****   * @note  PWR_WAKEUP_PINx and PWR_WAKEUP_PINx_HIGH are equivalent.               
 334:Drivers/STM32F7xx_HAL_Driver/Src/stm32f7xx_hal_pwr.c ****   * @retval None
 335:Drivers/STM32F7xx_HAL_Driver/Src/stm32f7xx_hal_pwr.c ****   */
 336:Drivers/STM32F7xx_HAL_Driver/Src/stm32f7xx_hal_pwr.c **** void HAL_PWR_EnableWakeUpPin(uint32_t WakeUpPinPolarity)
 337:Drivers/STM32F7xx_HAL_Driver/Src/stm32f7xx_hal_pwr.c **** {
 260              		.loc 1 337 0
 261              		.cfi_startproc
 262              		@ args = 0, pretend = 0, frame = 0
 263              		@ frame_needed = 0, uses_anonymous_args = 0
 264              		@ link register save eliminated.
 265              	.LVL1:
 266 0000 10B4     		push	{r4}
 267              	.LCFI0:
 268              		.cfi_def_cfa_offset 4
 269              		.cfi_offset 4, -4
 338:Drivers/STM32F7xx_HAL_Driver/Src/stm32f7xx_hal_pwr.c ****   assert_param(IS_PWR_WAKEUP_PIN(WakeUpPinPolarity));
 339:Drivers/STM32F7xx_HAL_Driver/Src/stm32f7xx_hal_pwr.c ****   
 340:Drivers/STM32F7xx_HAL_Driver/Src/stm32f7xx_hal_pwr.c ****   /* Enable wake-up pin */
 341:Drivers/STM32F7xx_HAL_Driver/Src/stm32f7xx_hal_pwr.c ****   SET_BIT(PWR->CSR2, (PWR_EWUP_MASK & WakeUpPinPolarity));
 270              		.loc 1 341 0
 271 0002 074A     		ldr	r2, .L25
 272 0004 D168     		ldr	r1, [r2, #12]
 273 0006 00F47C54 		and	r4, r0, #16128
 274 000a 2143     		orrs	r1, r1, r4
 275 000c D160     		str	r1, [r2, #12]
 342:Drivers/STM32F7xx_HAL_Driver/Src/stm32f7xx_hal_pwr.c **** 	
 343:Drivers/STM32F7xx_HAL_Driver/Src/stm32f7xx_hal_pwr.c ****   /* Specifies the Wake-Up pin polarity for the event detection
 344:Drivers/STM32F7xx_HAL_Driver/Src/stm32f7xx_hal_pwr.c ****     (rising or falling edge) */
 345:Drivers/STM32F7xx_HAL_Driver/Src/stm32f7xx_hal_pwr.c ****   MODIFY_REG(PWR->CR2, (PWR_EWUP_MASK & WakeUpPinPolarity), (WakeUpPinPolarity >> 0x06));
 276              		.loc 1 345 0
 277 000e 9368     		ldr	r3, [r2, #8]
 278 0010 23EA0403 		bic	r3, r3, r4
 279 0014 43EA9010 		orr	r0, r3, r0, lsr #6
 280              	.LVL2:
 281 0018 9060     		str	r0, [r2, #8]
 346:Drivers/STM32F7xx_HAL_Driver/Src/stm32f7xx_hal_pwr.c **** }
 282              		.loc 1 346 0
 283 001a 5DF8044B 		ldr	r4, [sp], #4
 284              	.LCFI1:
 285              		.cfi_restore 4
 286              		.cfi_def_cfa_offset 0
 287 001e 7047     		bx	lr
 288              	.L26:
 289              		.align	2
 290              	.L25:
 291 0020 00700040 		.word	1073770496
 292              		.cfi_endproc
 293              	.LFE147:
 295              		.section	.text.HAL_PWR_DisableWakeUpPin,"ax",%progbits
ARM GAS  /tmp/cc7e9tqS.s 			page 12


 296              		.align	1
 297              		.global	HAL_PWR_DisableWakeUpPin
 298              		.syntax unified
 299              		.thumb
 300              		.thumb_func
 301              		.fpu fpv5-d16
 303              	HAL_PWR_DisableWakeUpPin:
 304              	.LFB148:
 347:Drivers/STM32F7xx_HAL_Driver/Src/stm32f7xx_hal_pwr.c **** 
 348:Drivers/STM32F7xx_HAL_Driver/Src/stm32f7xx_hal_pwr.c **** /**
 349:Drivers/STM32F7xx_HAL_Driver/Src/stm32f7xx_hal_pwr.c ****   * @brief Disables the WakeUp PINx functionality.
 350:Drivers/STM32F7xx_HAL_Driver/Src/stm32f7xx_hal_pwr.c ****   * @param WakeUpPinx Specifies the Power Wake-Up pin to disable.
 351:Drivers/STM32F7xx_HAL_Driver/Src/stm32f7xx_hal_pwr.c ****   *         This parameter can be one of the following values:
 352:Drivers/STM32F7xx_HAL_Driver/Src/stm32f7xx_hal_pwr.c ****   *           @arg PWR_WAKEUP_PIN1
 353:Drivers/STM32F7xx_HAL_Driver/Src/stm32f7xx_hal_pwr.c ****   *           @arg PWR_WAKEUP_PIN2
 354:Drivers/STM32F7xx_HAL_Driver/Src/stm32f7xx_hal_pwr.c ****   *           @arg PWR_WAKEUP_PIN3
 355:Drivers/STM32F7xx_HAL_Driver/Src/stm32f7xx_hal_pwr.c ****   *           @arg PWR_WAKEUP_PIN4
 356:Drivers/STM32F7xx_HAL_Driver/Src/stm32f7xx_hal_pwr.c ****   *           @arg PWR_WAKEUP_PIN5
 357:Drivers/STM32F7xx_HAL_Driver/Src/stm32f7xx_hal_pwr.c ****   *           @arg PWR_WAKEUP_PIN6 
 358:Drivers/STM32F7xx_HAL_Driver/Src/stm32f7xx_hal_pwr.c ****   * @retval None
 359:Drivers/STM32F7xx_HAL_Driver/Src/stm32f7xx_hal_pwr.c ****   */
 360:Drivers/STM32F7xx_HAL_Driver/Src/stm32f7xx_hal_pwr.c **** void HAL_PWR_DisableWakeUpPin(uint32_t WakeUpPinx)
 361:Drivers/STM32F7xx_HAL_Driver/Src/stm32f7xx_hal_pwr.c **** {
 305              		.loc 1 361 0
 306              		.cfi_startproc
 307              		@ args = 0, pretend = 0, frame = 0
 308              		@ frame_needed = 0, uses_anonymous_args = 0
 309              		@ link register save eliminated.
 310              	.LVL3:
 362:Drivers/STM32F7xx_HAL_Driver/Src/stm32f7xx_hal_pwr.c ****   assert_param(IS_PWR_WAKEUP_PIN(WakeUpPinx));
 363:Drivers/STM32F7xx_HAL_Driver/Src/stm32f7xx_hal_pwr.c **** 
 364:Drivers/STM32F7xx_HAL_Driver/Src/stm32f7xx_hal_pwr.c ****   CLEAR_BIT(PWR->CSR2, WakeUpPinx);
 311              		.loc 1 364 0
 312 0000 024A     		ldr	r2, .L28
 313 0002 D368     		ldr	r3, [r2, #12]
 314 0004 23EA0000 		bic	r0, r3, r0
 315              	.LVL4:
 316 0008 D060     		str	r0, [r2, #12]
 317 000a 7047     		bx	lr
 318              	.L29:
 319              		.align	2
 320              	.L28:
 321 000c 00700040 		.word	1073770496
 322              		.cfi_endproc
 323              	.LFE148:
 325              		.section	.text.HAL_PWR_EnterSLEEPMode,"ax",%progbits
 326              		.align	1
 327              		.global	HAL_PWR_EnterSLEEPMode
 328              		.syntax unified
 329              		.thumb
 330              		.thumb_func
 331              		.fpu fpv5-d16
 333              	HAL_PWR_EnterSLEEPMode:
 334              	.LFB149:
 365:Drivers/STM32F7xx_HAL_Driver/Src/stm32f7xx_hal_pwr.c **** }
 366:Drivers/STM32F7xx_HAL_Driver/Src/stm32f7xx_hal_pwr.c ****   
 367:Drivers/STM32F7xx_HAL_Driver/Src/stm32f7xx_hal_pwr.c **** /**
ARM GAS  /tmp/cc7e9tqS.s 			page 13


 368:Drivers/STM32F7xx_HAL_Driver/Src/stm32f7xx_hal_pwr.c ****   * @brief Enters Sleep mode.
 369:Drivers/STM32F7xx_HAL_Driver/Src/stm32f7xx_hal_pwr.c ****   *   
 370:Drivers/STM32F7xx_HAL_Driver/Src/stm32f7xx_hal_pwr.c ****   * @note In Sleep mode, all I/O pins keep the same state as in Run mode.
 371:Drivers/STM32F7xx_HAL_Driver/Src/stm32f7xx_hal_pwr.c ****   * 
 372:Drivers/STM32F7xx_HAL_Driver/Src/stm32f7xx_hal_pwr.c ****   * @note In Sleep mode, the systick is stopped to avoid exit from this mode with
 373:Drivers/STM32F7xx_HAL_Driver/Src/stm32f7xx_hal_pwr.c ****   *       systick interrupt when used as time base for Timeout 
 374:Drivers/STM32F7xx_HAL_Driver/Src/stm32f7xx_hal_pwr.c ****   *                
 375:Drivers/STM32F7xx_HAL_Driver/Src/stm32f7xx_hal_pwr.c ****   * @param Regulator Specifies the regulator state in SLEEP mode.
 376:Drivers/STM32F7xx_HAL_Driver/Src/stm32f7xx_hal_pwr.c ****   *            This parameter can be one of the following values:
 377:Drivers/STM32F7xx_HAL_Driver/Src/stm32f7xx_hal_pwr.c ****   *            @arg PWR_MAINREGULATOR_ON: SLEEP mode with regulator ON
 378:Drivers/STM32F7xx_HAL_Driver/Src/stm32f7xx_hal_pwr.c ****   *            @arg PWR_LOWPOWERREGULATOR_ON: SLEEP mode with low power regulator ON
 379:Drivers/STM32F7xx_HAL_Driver/Src/stm32f7xx_hal_pwr.c ****   * @note This parameter is not used for the STM32F7 family and is kept as parameter
 380:Drivers/STM32F7xx_HAL_Driver/Src/stm32f7xx_hal_pwr.c ****   *       just to maintain compatibility with the lower power families.
 381:Drivers/STM32F7xx_HAL_Driver/Src/stm32f7xx_hal_pwr.c ****   * @param SLEEPEntry Specifies if SLEEP mode in entered with WFI or WFE instruction.
 382:Drivers/STM32F7xx_HAL_Driver/Src/stm32f7xx_hal_pwr.c ****   *          This parameter can be one of the following values:
 383:Drivers/STM32F7xx_HAL_Driver/Src/stm32f7xx_hal_pwr.c ****   *            @arg PWR_SLEEPENTRY_WFI: enter SLEEP mode with WFI instruction
 384:Drivers/STM32F7xx_HAL_Driver/Src/stm32f7xx_hal_pwr.c ****   *            @arg PWR_SLEEPENTRY_WFE: enter SLEEP mode with WFE instruction
 385:Drivers/STM32F7xx_HAL_Driver/Src/stm32f7xx_hal_pwr.c ****   * @retval None
 386:Drivers/STM32F7xx_HAL_Driver/Src/stm32f7xx_hal_pwr.c ****   */
 387:Drivers/STM32F7xx_HAL_Driver/Src/stm32f7xx_hal_pwr.c **** void HAL_PWR_EnterSLEEPMode(uint32_t Regulator, uint8_t SLEEPEntry)
 388:Drivers/STM32F7xx_HAL_Driver/Src/stm32f7xx_hal_pwr.c **** {
 335              		.loc 1 388 0
 336              		.cfi_startproc
 337              		@ args = 0, pretend = 0, frame = 0
 338              		@ frame_needed = 0, uses_anonymous_args = 0
 339              		@ link register save eliminated.
 340              	.LVL5:
 389:Drivers/STM32F7xx_HAL_Driver/Src/stm32f7xx_hal_pwr.c ****   /* Check the parameters */
 390:Drivers/STM32F7xx_HAL_Driver/Src/stm32f7xx_hal_pwr.c ****   assert_param(IS_PWR_REGULATOR(Regulator));
 391:Drivers/STM32F7xx_HAL_Driver/Src/stm32f7xx_hal_pwr.c ****   assert_param(IS_PWR_SLEEP_ENTRY(SLEEPEntry));
 392:Drivers/STM32F7xx_HAL_Driver/Src/stm32f7xx_hal_pwr.c **** 
 393:Drivers/STM32F7xx_HAL_Driver/Src/stm32f7xx_hal_pwr.c ****   /* Clear SLEEPDEEP bit of Cortex System Control Register */
 394:Drivers/STM32F7xx_HAL_Driver/Src/stm32f7xx_hal_pwr.c ****   CLEAR_BIT(SCB->SCR, ((uint32_t)SCB_SCR_SLEEPDEEP_Msk));
 341              		.loc 1 394 0
 342 0000 084A     		ldr	r2, .L34
 343 0002 1369     		ldr	r3, [r2, #16]
 344 0004 23F00403 		bic	r3, r3, #4
 345 0008 1361     		str	r3, [r2, #16]
 346              	.LBB10:
 347              	.LBB11:
 348              		.file 2 "Drivers/CMSIS/Include/cmsis_gcc.h"
   1:Drivers/CMSIS/Include/cmsis_gcc.h **** /**************************************************************************//**
   2:Drivers/CMSIS/Include/cmsis_gcc.h ****  * @file     cmsis_gcc.h
   3:Drivers/CMSIS/Include/cmsis_gcc.h ****  * @brief    CMSIS compiler GCC header file
   4:Drivers/CMSIS/Include/cmsis_gcc.h ****  * @version  V5.0.4
   5:Drivers/CMSIS/Include/cmsis_gcc.h ****  * @date     09. April 2018
   6:Drivers/CMSIS/Include/cmsis_gcc.h ****  ******************************************************************************/
   7:Drivers/CMSIS/Include/cmsis_gcc.h **** /*
   8:Drivers/CMSIS/Include/cmsis_gcc.h ****  * Copyright (c) 2009-2018 Arm Limited. All rights reserved.
   9:Drivers/CMSIS/Include/cmsis_gcc.h ****  *
  10:Drivers/CMSIS/Include/cmsis_gcc.h ****  * SPDX-License-Identifier: Apache-2.0
  11:Drivers/CMSIS/Include/cmsis_gcc.h ****  *
  12:Drivers/CMSIS/Include/cmsis_gcc.h ****  * Licensed under the Apache License, Version 2.0 (the License); you may
  13:Drivers/CMSIS/Include/cmsis_gcc.h ****  * not use this file except in compliance with the License.
  14:Drivers/CMSIS/Include/cmsis_gcc.h ****  * You may obtain a copy of the License at
  15:Drivers/CMSIS/Include/cmsis_gcc.h ****  *
  16:Drivers/CMSIS/Include/cmsis_gcc.h ****  * www.apache.org/licenses/LICENSE-2.0
ARM GAS  /tmp/cc7e9tqS.s 			page 14


  17:Drivers/CMSIS/Include/cmsis_gcc.h ****  *
  18:Drivers/CMSIS/Include/cmsis_gcc.h ****  * Unless required by applicable law or agreed to in writing, software
  19:Drivers/CMSIS/Include/cmsis_gcc.h ****  * distributed under the License is distributed on an AS IS BASIS, WITHOUT
  20:Drivers/CMSIS/Include/cmsis_gcc.h ****  * WARRANTIES OR CONDITIONS OF ANY KIND, either express or implied.
  21:Drivers/CMSIS/Include/cmsis_gcc.h ****  * See the License for the specific language governing permissions and
  22:Drivers/CMSIS/Include/cmsis_gcc.h ****  * limitations under the License.
  23:Drivers/CMSIS/Include/cmsis_gcc.h ****  */
  24:Drivers/CMSIS/Include/cmsis_gcc.h **** 
  25:Drivers/CMSIS/Include/cmsis_gcc.h **** #ifndef __CMSIS_GCC_H
  26:Drivers/CMSIS/Include/cmsis_gcc.h **** #define __CMSIS_GCC_H
  27:Drivers/CMSIS/Include/cmsis_gcc.h **** 
  28:Drivers/CMSIS/Include/cmsis_gcc.h **** /* ignore some GCC warnings */
  29:Drivers/CMSIS/Include/cmsis_gcc.h **** #pragma GCC diagnostic push
  30:Drivers/CMSIS/Include/cmsis_gcc.h **** #pragma GCC diagnostic ignored "-Wsign-conversion"
  31:Drivers/CMSIS/Include/cmsis_gcc.h **** #pragma GCC diagnostic ignored "-Wconversion"
  32:Drivers/CMSIS/Include/cmsis_gcc.h **** #pragma GCC diagnostic ignored "-Wunused-parameter"
  33:Drivers/CMSIS/Include/cmsis_gcc.h **** 
  34:Drivers/CMSIS/Include/cmsis_gcc.h **** /* Fallback for __has_builtin */
  35:Drivers/CMSIS/Include/cmsis_gcc.h **** #ifndef __has_builtin
  36:Drivers/CMSIS/Include/cmsis_gcc.h ****   #define __has_builtin(x) (0)
  37:Drivers/CMSIS/Include/cmsis_gcc.h **** #endif
  38:Drivers/CMSIS/Include/cmsis_gcc.h **** 
  39:Drivers/CMSIS/Include/cmsis_gcc.h **** /* CMSIS compiler specific defines */
  40:Drivers/CMSIS/Include/cmsis_gcc.h **** #ifndef   __ASM
  41:Drivers/CMSIS/Include/cmsis_gcc.h ****   #define __ASM                                  __asm
  42:Drivers/CMSIS/Include/cmsis_gcc.h **** #endif
  43:Drivers/CMSIS/Include/cmsis_gcc.h **** #ifndef   __INLINE
  44:Drivers/CMSIS/Include/cmsis_gcc.h ****   #define __INLINE                               inline
  45:Drivers/CMSIS/Include/cmsis_gcc.h **** #endif
  46:Drivers/CMSIS/Include/cmsis_gcc.h **** #ifndef   __STATIC_INLINE
  47:Drivers/CMSIS/Include/cmsis_gcc.h ****   #define __STATIC_INLINE                        static inline
  48:Drivers/CMSIS/Include/cmsis_gcc.h **** #endif
  49:Drivers/CMSIS/Include/cmsis_gcc.h **** #ifndef   __STATIC_FORCEINLINE                 
  50:Drivers/CMSIS/Include/cmsis_gcc.h ****   #define __STATIC_FORCEINLINE                   __attribute__((always_inline)) static inline
  51:Drivers/CMSIS/Include/cmsis_gcc.h **** #endif                                           
  52:Drivers/CMSIS/Include/cmsis_gcc.h **** #ifndef   __NO_RETURN
  53:Drivers/CMSIS/Include/cmsis_gcc.h ****   #define __NO_RETURN                            __attribute__((__noreturn__))
  54:Drivers/CMSIS/Include/cmsis_gcc.h **** #endif
  55:Drivers/CMSIS/Include/cmsis_gcc.h **** #ifndef   __USED
  56:Drivers/CMSIS/Include/cmsis_gcc.h ****   #define __USED                                 __attribute__((used))
  57:Drivers/CMSIS/Include/cmsis_gcc.h **** #endif
  58:Drivers/CMSIS/Include/cmsis_gcc.h **** #ifndef   __WEAK
  59:Drivers/CMSIS/Include/cmsis_gcc.h ****   #define __WEAK                                 __attribute__((weak))
  60:Drivers/CMSIS/Include/cmsis_gcc.h **** #endif
  61:Drivers/CMSIS/Include/cmsis_gcc.h **** #ifndef   __PACKED
  62:Drivers/CMSIS/Include/cmsis_gcc.h ****   #define __PACKED                               __attribute__((packed, aligned(1)))
  63:Drivers/CMSIS/Include/cmsis_gcc.h **** #endif
  64:Drivers/CMSIS/Include/cmsis_gcc.h **** #ifndef   __PACKED_STRUCT
  65:Drivers/CMSIS/Include/cmsis_gcc.h ****   #define __PACKED_STRUCT                        struct __attribute__((packed, aligned(1)))
  66:Drivers/CMSIS/Include/cmsis_gcc.h **** #endif
  67:Drivers/CMSIS/Include/cmsis_gcc.h **** #ifndef   __PACKED_UNION
  68:Drivers/CMSIS/Include/cmsis_gcc.h ****   #define __PACKED_UNION                         union __attribute__((packed, aligned(1)))
  69:Drivers/CMSIS/Include/cmsis_gcc.h **** #endif
  70:Drivers/CMSIS/Include/cmsis_gcc.h **** #ifndef   __UNALIGNED_UINT32        /* deprecated */
  71:Drivers/CMSIS/Include/cmsis_gcc.h ****   #pragma GCC diagnostic push
  72:Drivers/CMSIS/Include/cmsis_gcc.h ****   #pragma GCC diagnostic ignored "-Wpacked"
  73:Drivers/CMSIS/Include/cmsis_gcc.h ****   #pragma GCC diagnostic ignored "-Wattributes"
ARM GAS  /tmp/cc7e9tqS.s 			page 15


  74:Drivers/CMSIS/Include/cmsis_gcc.h ****   struct __attribute__((packed)) T_UINT32 { uint32_t v; };
  75:Drivers/CMSIS/Include/cmsis_gcc.h ****   #pragma GCC diagnostic pop
  76:Drivers/CMSIS/Include/cmsis_gcc.h ****   #define __UNALIGNED_UINT32(x)                  (((struct T_UINT32 *)(x))->v)
  77:Drivers/CMSIS/Include/cmsis_gcc.h **** #endif
  78:Drivers/CMSIS/Include/cmsis_gcc.h **** #ifndef   __UNALIGNED_UINT16_WRITE
  79:Drivers/CMSIS/Include/cmsis_gcc.h ****   #pragma GCC diagnostic push
  80:Drivers/CMSIS/Include/cmsis_gcc.h ****   #pragma GCC diagnostic ignored "-Wpacked"
  81:Drivers/CMSIS/Include/cmsis_gcc.h ****   #pragma GCC diagnostic ignored "-Wattributes"
  82:Drivers/CMSIS/Include/cmsis_gcc.h ****   __PACKED_STRUCT T_UINT16_WRITE { uint16_t v; };
  83:Drivers/CMSIS/Include/cmsis_gcc.h ****   #pragma GCC diagnostic pop
  84:Drivers/CMSIS/Include/cmsis_gcc.h ****   #define __UNALIGNED_UINT16_WRITE(addr, val)    (void)((((struct T_UINT16_WRITE *)(void *)(addr))-
  85:Drivers/CMSIS/Include/cmsis_gcc.h **** #endif
  86:Drivers/CMSIS/Include/cmsis_gcc.h **** #ifndef   __UNALIGNED_UINT16_READ
  87:Drivers/CMSIS/Include/cmsis_gcc.h ****   #pragma GCC diagnostic push
  88:Drivers/CMSIS/Include/cmsis_gcc.h ****   #pragma GCC diagnostic ignored "-Wpacked"
  89:Drivers/CMSIS/Include/cmsis_gcc.h ****   #pragma GCC diagnostic ignored "-Wattributes"
  90:Drivers/CMSIS/Include/cmsis_gcc.h ****   __PACKED_STRUCT T_UINT16_READ { uint16_t v; };
  91:Drivers/CMSIS/Include/cmsis_gcc.h ****   #pragma GCC diagnostic pop
  92:Drivers/CMSIS/Include/cmsis_gcc.h ****   #define __UNALIGNED_UINT16_READ(addr)          (((const struct T_UINT16_READ *)(const void *)(add
  93:Drivers/CMSIS/Include/cmsis_gcc.h **** #endif
  94:Drivers/CMSIS/Include/cmsis_gcc.h **** #ifndef   __UNALIGNED_UINT32_WRITE
  95:Drivers/CMSIS/Include/cmsis_gcc.h ****   #pragma GCC diagnostic push
  96:Drivers/CMSIS/Include/cmsis_gcc.h ****   #pragma GCC diagnostic ignored "-Wpacked"
  97:Drivers/CMSIS/Include/cmsis_gcc.h ****   #pragma GCC diagnostic ignored "-Wattributes"
  98:Drivers/CMSIS/Include/cmsis_gcc.h ****   __PACKED_STRUCT T_UINT32_WRITE { uint32_t v; };
  99:Drivers/CMSIS/Include/cmsis_gcc.h ****   #pragma GCC diagnostic pop
 100:Drivers/CMSIS/Include/cmsis_gcc.h ****   #define __UNALIGNED_UINT32_WRITE(addr, val)    (void)((((struct T_UINT32_WRITE *)(void *)(addr))-
 101:Drivers/CMSIS/Include/cmsis_gcc.h **** #endif
 102:Drivers/CMSIS/Include/cmsis_gcc.h **** #ifndef   __UNALIGNED_UINT32_READ
 103:Drivers/CMSIS/Include/cmsis_gcc.h ****   #pragma GCC diagnostic push
 104:Drivers/CMSIS/Include/cmsis_gcc.h ****   #pragma GCC diagnostic ignored "-Wpacked"
 105:Drivers/CMSIS/Include/cmsis_gcc.h ****   #pragma GCC diagnostic ignored "-Wattributes"
 106:Drivers/CMSIS/Include/cmsis_gcc.h ****   __PACKED_STRUCT T_UINT32_READ { uint32_t v; };
 107:Drivers/CMSIS/Include/cmsis_gcc.h ****   #pragma GCC diagnostic pop
 108:Drivers/CMSIS/Include/cmsis_gcc.h ****   #define __UNALIGNED_UINT32_READ(addr)          (((const struct T_UINT32_READ *)(const void *)(add
 109:Drivers/CMSIS/Include/cmsis_gcc.h **** #endif
 110:Drivers/CMSIS/Include/cmsis_gcc.h **** #ifndef   __ALIGNED
 111:Drivers/CMSIS/Include/cmsis_gcc.h ****   #define __ALIGNED(x)                           __attribute__((aligned(x)))
 112:Drivers/CMSIS/Include/cmsis_gcc.h **** #endif
 113:Drivers/CMSIS/Include/cmsis_gcc.h **** #ifndef   __RESTRICT
 114:Drivers/CMSIS/Include/cmsis_gcc.h ****   #define __RESTRICT                             __restrict
 115:Drivers/CMSIS/Include/cmsis_gcc.h **** #endif
 116:Drivers/CMSIS/Include/cmsis_gcc.h **** 
 117:Drivers/CMSIS/Include/cmsis_gcc.h **** 
 118:Drivers/CMSIS/Include/cmsis_gcc.h **** /* ###########################  Core Function Access  ########################### */
 119:Drivers/CMSIS/Include/cmsis_gcc.h **** /** \ingroup  CMSIS_Core_FunctionInterface
 120:Drivers/CMSIS/Include/cmsis_gcc.h ****     \defgroup CMSIS_Core_RegAccFunctions CMSIS Core Register Access Functions
 121:Drivers/CMSIS/Include/cmsis_gcc.h ****   @{
 122:Drivers/CMSIS/Include/cmsis_gcc.h ****  */
 123:Drivers/CMSIS/Include/cmsis_gcc.h **** 
 124:Drivers/CMSIS/Include/cmsis_gcc.h **** /**
 125:Drivers/CMSIS/Include/cmsis_gcc.h ****   \brief   Enable IRQ Interrupts
 126:Drivers/CMSIS/Include/cmsis_gcc.h ****   \details Enables IRQ interrupts by clearing the I-bit in the CPSR.
 127:Drivers/CMSIS/Include/cmsis_gcc.h ****            Can only be executed in Privileged modes.
 128:Drivers/CMSIS/Include/cmsis_gcc.h ****  */
 129:Drivers/CMSIS/Include/cmsis_gcc.h **** __STATIC_FORCEINLINE void __enable_irq(void)
 130:Drivers/CMSIS/Include/cmsis_gcc.h **** {
ARM GAS  /tmp/cc7e9tqS.s 			page 16


 131:Drivers/CMSIS/Include/cmsis_gcc.h ****   __ASM volatile ("cpsie i" : : : "memory");
 132:Drivers/CMSIS/Include/cmsis_gcc.h **** }
 133:Drivers/CMSIS/Include/cmsis_gcc.h **** 
 134:Drivers/CMSIS/Include/cmsis_gcc.h **** 
 135:Drivers/CMSIS/Include/cmsis_gcc.h **** /**
 136:Drivers/CMSIS/Include/cmsis_gcc.h ****   \brief   Disable IRQ Interrupts
 137:Drivers/CMSIS/Include/cmsis_gcc.h ****   \details Disables IRQ interrupts by setting the I-bit in the CPSR.
 138:Drivers/CMSIS/Include/cmsis_gcc.h ****            Can only be executed in Privileged modes.
 139:Drivers/CMSIS/Include/cmsis_gcc.h ****  */
 140:Drivers/CMSIS/Include/cmsis_gcc.h **** __STATIC_FORCEINLINE void __disable_irq(void)
 141:Drivers/CMSIS/Include/cmsis_gcc.h **** {
 142:Drivers/CMSIS/Include/cmsis_gcc.h ****   __ASM volatile ("cpsid i" : : : "memory");
 143:Drivers/CMSIS/Include/cmsis_gcc.h **** }
 144:Drivers/CMSIS/Include/cmsis_gcc.h **** 
 145:Drivers/CMSIS/Include/cmsis_gcc.h **** 
 146:Drivers/CMSIS/Include/cmsis_gcc.h **** /**
 147:Drivers/CMSIS/Include/cmsis_gcc.h ****   \brief   Get Control Register
 148:Drivers/CMSIS/Include/cmsis_gcc.h ****   \details Returns the content of the Control Register.
 149:Drivers/CMSIS/Include/cmsis_gcc.h ****   \return               Control Register value
 150:Drivers/CMSIS/Include/cmsis_gcc.h ****  */
 151:Drivers/CMSIS/Include/cmsis_gcc.h **** __STATIC_FORCEINLINE uint32_t __get_CONTROL(void)
 152:Drivers/CMSIS/Include/cmsis_gcc.h **** {
 153:Drivers/CMSIS/Include/cmsis_gcc.h ****   uint32_t result;
 154:Drivers/CMSIS/Include/cmsis_gcc.h **** 
 155:Drivers/CMSIS/Include/cmsis_gcc.h ****   __ASM volatile ("MRS %0, control" : "=r" (result) );
 156:Drivers/CMSIS/Include/cmsis_gcc.h ****   return(result);
 157:Drivers/CMSIS/Include/cmsis_gcc.h **** }
 158:Drivers/CMSIS/Include/cmsis_gcc.h **** 
 159:Drivers/CMSIS/Include/cmsis_gcc.h **** 
 160:Drivers/CMSIS/Include/cmsis_gcc.h **** #if (defined (__ARM_FEATURE_CMSE ) && (__ARM_FEATURE_CMSE == 3))
 161:Drivers/CMSIS/Include/cmsis_gcc.h **** /**
 162:Drivers/CMSIS/Include/cmsis_gcc.h ****   \brief   Get Control Register (non-secure)
 163:Drivers/CMSIS/Include/cmsis_gcc.h ****   \details Returns the content of the non-secure Control Register when in secure mode.
 164:Drivers/CMSIS/Include/cmsis_gcc.h ****   \return               non-secure Control Register value
 165:Drivers/CMSIS/Include/cmsis_gcc.h ****  */
 166:Drivers/CMSIS/Include/cmsis_gcc.h **** __STATIC_FORCEINLINE uint32_t __TZ_get_CONTROL_NS(void)
 167:Drivers/CMSIS/Include/cmsis_gcc.h **** {
 168:Drivers/CMSIS/Include/cmsis_gcc.h ****   uint32_t result;
 169:Drivers/CMSIS/Include/cmsis_gcc.h **** 
 170:Drivers/CMSIS/Include/cmsis_gcc.h ****   __ASM volatile ("MRS %0, control_ns" : "=r" (result) );
 171:Drivers/CMSIS/Include/cmsis_gcc.h ****   return(result);
 172:Drivers/CMSIS/Include/cmsis_gcc.h **** }
 173:Drivers/CMSIS/Include/cmsis_gcc.h **** #endif
 174:Drivers/CMSIS/Include/cmsis_gcc.h **** 
 175:Drivers/CMSIS/Include/cmsis_gcc.h **** 
 176:Drivers/CMSIS/Include/cmsis_gcc.h **** /**
 177:Drivers/CMSIS/Include/cmsis_gcc.h ****   \brief   Set Control Register
 178:Drivers/CMSIS/Include/cmsis_gcc.h ****   \details Writes the given value to the Control Register.
 179:Drivers/CMSIS/Include/cmsis_gcc.h ****   \param [in]    control  Control Register value to set
 180:Drivers/CMSIS/Include/cmsis_gcc.h ****  */
 181:Drivers/CMSIS/Include/cmsis_gcc.h **** __STATIC_FORCEINLINE void __set_CONTROL(uint32_t control)
 182:Drivers/CMSIS/Include/cmsis_gcc.h **** {
 183:Drivers/CMSIS/Include/cmsis_gcc.h ****   __ASM volatile ("MSR control, %0" : : "r" (control) : "memory");
 184:Drivers/CMSIS/Include/cmsis_gcc.h **** }
 185:Drivers/CMSIS/Include/cmsis_gcc.h **** 
 186:Drivers/CMSIS/Include/cmsis_gcc.h **** 
 187:Drivers/CMSIS/Include/cmsis_gcc.h **** #if (defined (__ARM_FEATURE_CMSE ) && (__ARM_FEATURE_CMSE == 3))
ARM GAS  /tmp/cc7e9tqS.s 			page 17


 188:Drivers/CMSIS/Include/cmsis_gcc.h **** /**
 189:Drivers/CMSIS/Include/cmsis_gcc.h ****   \brief   Set Control Register (non-secure)
 190:Drivers/CMSIS/Include/cmsis_gcc.h ****   \details Writes the given value to the non-secure Control Register when in secure state.
 191:Drivers/CMSIS/Include/cmsis_gcc.h ****   \param [in]    control  Control Register value to set
 192:Drivers/CMSIS/Include/cmsis_gcc.h ****  */
 193:Drivers/CMSIS/Include/cmsis_gcc.h **** __STATIC_FORCEINLINE void __TZ_set_CONTROL_NS(uint32_t control)
 194:Drivers/CMSIS/Include/cmsis_gcc.h **** {
 195:Drivers/CMSIS/Include/cmsis_gcc.h ****   __ASM volatile ("MSR control_ns, %0" : : "r" (control) : "memory");
 196:Drivers/CMSIS/Include/cmsis_gcc.h **** }
 197:Drivers/CMSIS/Include/cmsis_gcc.h **** #endif
 198:Drivers/CMSIS/Include/cmsis_gcc.h **** 
 199:Drivers/CMSIS/Include/cmsis_gcc.h **** 
 200:Drivers/CMSIS/Include/cmsis_gcc.h **** /**
 201:Drivers/CMSIS/Include/cmsis_gcc.h ****   \brief   Get IPSR Register
 202:Drivers/CMSIS/Include/cmsis_gcc.h ****   \details Returns the content of the IPSR Register.
 203:Drivers/CMSIS/Include/cmsis_gcc.h ****   \return               IPSR Register value
 204:Drivers/CMSIS/Include/cmsis_gcc.h ****  */
 205:Drivers/CMSIS/Include/cmsis_gcc.h **** __STATIC_FORCEINLINE uint32_t __get_IPSR(void)
 206:Drivers/CMSIS/Include/cmsis_gcc.h **** {
 207:Drivers/CMSIS/Include/cmsis_gcc.h ****   uint32_t result;
 208:Drivers/CMSIS/Include/cmsis_gcc.h **** 
 209:Drivers/CMSIS/Include/cmsis_gcc.h ****   __ASM volatile ("MRS %0, ipsr" : "=r" (result) );
 210:Drivers/CMSIS/Include/cmsis_gcc.h ****   return(result);
 211:Drivers/CMSIS/Include/cmsis_gcc.h **** }
 212:Drivers/CMSIS/Include/cmsis_gcc.h **** 
 213:Drivers/CMSIS/Include/cmsis_gcc.h **** 
 214:Drivers/CMSIS/Include/cmsis_gcc.h **** /**
 215:Drivers/CMSIS/Include/cmsis_gcc.h ****   \brief   Get APSR Register
 216:Drivers/CMSIS/Include/cmsis_gcc.h ****   \details Returns the content of the APSR Register.
 217:Drivers/CMSIS/Include/cmsis_gcc.h ****   \return               APSR Register value
 218:Drivers/CMSIS/Include/cmsis_gcc.h ****  */
 219:Drivers/CMSIS/Include/cmsis_gcc.h **** __STATIC_FORCEINLINE uint32_t __get_APSR(void)
 220:Drivers/CMSIS/Include/cmsis_gcc.h **** {
 221:Drivers/CMSIS/Include/cmsis_gcc.h ****   uint32_t result;
 222:Drivers/CMSIS/Include/cmsis_gcc.h **** 
 223:Drivers/CMSIS/Include/cmsis_gcc.h ****   __ASM volatile ("MRS %0, apsr" : "=r" (result) );
 224:Drivers/CMSIS/Include/cmsis_gcc.h ****   return(result);
 225:Drivers/CMSIS/Include/cmsis_gcc.h **** }
 226:Drivers/CMSIS/Include/cmsis_gcc.h **** 
 227:Drivers/CMSIS/Include/cmsis_gcc.h **** 
 228:Drivers/CMSIS/Include/cmsis_gcc.h **** /**
 229:Drivers/CMSIS/Include/cmsis_gcc.h ****   \brief   Get xPSR Register
 230:Drivers/CMSIS/Include/cmsis_gcc.h ****   \details Returns the content of the xPSR Register.
 231:Drivers/CMSIS/Include/cmsis_gcc.h ****   \return               xPSR Register value
 232:Drivers/CMSIS/Include/cmsis_gcc.h ****  */
 233:Drivers/CMSIS/Include/cmsis_gcc.h **** __STATIC_FORCEINLINE uint32_t __get_xPSR(void)
 234:Drivers/CMSIS/Include/cmsis_gcc.h **** {
 235:Drivers/CMSIS/Include/cmsis_gcc.h ****   uint32_t result;
 236:Drivers/CMSIS/Include/cmsis_gcc.h **** 
 237:Drivers/CMSIS/Include/cmsis_gcc.h ****   __ASM volatile ("MRS %0, xpsr" : "=r" (result) );
 238:Drivers/CMSIS/Include/cmsis_gcc.h ****   return(result);
 239:Drivers/CMSIS/Include/cmsis_gcc.h **** }
 240:Drivers/CMSIS/Include/cmsis_gcc.h **** 
 241:Drivers/CMSIS/Include/cmsis_gcc.h **** 
 242:Drivers/CMSIS/Include/cmsis_gcc.h **** /**
 243:Drivers/CMSIS/Include/cmsis_gcc.h ****   \brief   Get Process Stack Pointer
 244:Drivers/CMSIS/Include/cmsis_gcc.h ****   \details Returns the current value of the Process Stack Pointer (PSP).
ARM GAS  /tmp/cc7e9tqS.s 			page 18


 245:Drivers/CMSIS/Include/cmsis_gcc.h ****   \return               PSP Register value
 246:Drivers/CMSIS/Include/cmsis_gcc.h ****  */
 247:Drivers/CMSIS/Include/cmsis_gcc.h **** __STATIC_FORCEINLINE uint32_t __get_PSP(void)
 248:Drivers/CMSIS/Include/cmsis_gcc.h **** {
 249:Drivers/CMSIS/Include/cmsis_gcc.h ****   uint32_t result;
 250:Drivers/CMSIS/Include/cmsis_gcc.h **** 
 251:Drivers/CMSIS/Include/cmsis_gcc.h ****   __ASM volatile ("MRS %0, psp"  : "=r" (result) );
 252:Drivers/CMSIS/Include/cmsis_gcc.h ****   return(result);
 253:Drivers/CMSIS/Include/cmsis_gcc.h **** }
 254:Drivers/CMSIS/Include/cmsis_gcc.h **** 
 255:Drivers/CMSIS/Include/cmsis_gcc.h **** 
 256:Drivers/CMSIS/Include/cmsis_gcc.h **** #if (defined (__ARM_FEATURE_CMSE ) && (__ARM_FEATURE_CMSE == 3))
 257:Drivers/CMSIS/Include/cmsis_gcc.h **** /**
 258:Drivers/CMSIS/Include/cmsis_gcc.h ****   \brief   Get Process Stack Pointer (non-secure)
 259:Drivers/CMSIS/Include/cmsis_gcc.h ****   \details Returns the current value of the non-secure Process Stack Pointer (PSP) when in secure s
 260:Drivers/CMSIS/Include/cmsis_gcc.h ****   \return               PSP Register value
 261:Drivers/CMSIS/Include/cmsis_gcc.h ****  */
 262:Drivers/CMSIS/Include/cmsis_gcc.h **** __STATIC_FORCEINLINE uint32_t __TZ_get_PSP_NS(void)
 263:Drivers/CMSIS/Include/cmsis_gcc.h **** {
 264:Drivers/CMSIS/Include/cmsis_gcc.h ****   uint32_t result;
 265:Drivers/CMSIS/Include/cmsis_gcc.h **** 
 266:Drivers/CMSIS/Include/cmsis_gcc.h ****   __ASM volatile ("MRS %0, psp_ns"  : "=r" (result) );
 267:Drivers/CMSIS/Include/cmsis_gcc.h ****   return(result);
 268:Drivers/CMSIS/Include/cmsis_gcc.h **** }
 269:Drivers/CMSIS/Include/cmsis_gcc.h **** #endif
 270:Drivers/CMSIS/Include/cmsis_gcc.h **** 
 271:Drivers/CMSIS/Include/cmsis_gcc.h **** 
 272:Drivers/CMSIS/Include/cmsis_gcc.h **** /**
 273:Drivers/CMSIS/Include/cmsis_gcc.h ****   \brief   Set Process Stack Pointer
 274:Drivers/CMSIS/Include/cmsis_gcc.h ****   \details Assigns the given value to the Process Stack Pointer (PSP).
 275:Drivers/CMSIS/Include/cmsis_gcc.h ****   \param [in]    topOfProcStack  Process Stack Pointer value to set
 276:Drivers/CMSIS/Include/cmsis_gcc.h ****  */
 277:Drivers/CMSIS/Include/cmsis_gcc.h **** __STATIC_FORCEINLINE void __set_PSP(uint32_t topOfProcStack)
 278:Drivers/CMSIS/Include/cmsis_gcc.h **** {
 279:Drivers/CMSIS/Include/cmsis_gcc.h ****   __ASM volatile ("MSR psp, %0" : : "r" (topOfProcStack) : );
 280:Drivers/CMSIS/Include/cmsis_gcc.h **** }
 281:Drivers/CMSIS/Include/cmsis_gcc.h **** 
 282:Drivers/CMSIS/Include/cmsis_gcc.h **** 
 283:Drivers/CMSIS/Include/cmsis_gcc.h **** #if (defined (__ARM_FEATURE_CMSE ) && (__ARM_FEATURE_CMSE == 3))
 284:Drivers/CMSIS/Include/cmsis_gcc.h **** /**
 285:Drivers/CMSIS/Include/cmsis_gcc.h ****   \brief   Set Process Stack Pointer (non-secure)
 286:Drivers/CMSIS/Include/cmsis_gcc.h ****   \details Assigns the given value to the non-secure Process Stack Pointer (PSP) when in secure sta
 287:Drivers/CMSIS/Include/cmsis_gcc.h ****   \param [in]    topOfProcStack  Process Stack Pointer value to set
 288:Drivers/CMSIS/Include/cmsis_gcc.h ****  */
 289:Drivers/CMSIS/Include/cmsis_gcc.h **** __STATIC_FORCEINLINE void __TZ_set_PSP_NS(uint32_t topOfProcStack)
 290:Drivers/CMSIS/Include/cmsis_gcc.h **** {
 291:Drivers/CMSIS/Include/cmsis_gcc.h ****   __ASM volatile ("MSR psp_ns, %0" : : "r" (topOfProcStack) : );
 292:Drivers/CMSIS/Include/cmsis_gcc.h **** }
 293:Drivers/CMSIS/Include/cmsis_gcc.h **** #endif
 294:Drivers/CMSIS/Include/cmsis_gcc.h **** 
 295:Drivers/CMSIS/Include/cmsis_gcc.h **** 
 296:Drivers/CMSIS/Include/cmsis_gcc.h **** /**
 297:Drivers/CMSIS/Include/cmsis_gcc.h ****   \brief   Get Main Stack Pointer
 298:Drivers/CMSIS/Include/cmsis_gcc.h ****   \details Returns the current value of the Main Stack Pointer (MSP).
 299:Drivers/CMSIS/Include/cmsis_gcc.h ****   \return               MSP Register value
 300:Drivers/CMSIS/Include/cmsis_gcc.h ****  */
 301:Drivers/CMSIS/Include/cmsis_gcc.h **** __STATIC_FORCEINLINE uint32_t __get_MSP(void)
ARM GAS  /tmp/cc7e9tqS.s 			page 19


 302:Drivers/CMSIS/Include/cmsis_gcc.h **** {
 303:Drivers/CMSIS/Include/cmsis_gcc.h ****   uint32_t result;
 304:Drivers/CMSIS/Include/cmsis_gcc.h **** 
 305:Drivers/CMSIS/Include/cmsis_gcc.h ****   __ASM volatile ("MRS %0, msp" : "=r" (result) );
 306:Drivers/CMSIS/Include/cmsis_gcc.h ****   return(result);
 307:Drivers/CMSIS/Include/cmsis_gcc.h **** }
 308:Drivers/CMSIS/Include/cmsis_gcc.h **** 
 309:Drivers/CMSIS/Include/cmsis_gcc.h **** 
 310:Drivers/CMSIS/Include/cmsis_gcc.h **** #if (defined (__ARM_FEATURE_CMSE ) && (__ARM_FEATURE_CMSE == 3))
 311:Drivers/CMSIS/Include/cmsis_gcc.h **** /**
 312:Drivers/CMSIS/Include/cmsis_gcc.h ****   \brief   Get Main Stack Pointer (non-secure)
 313:Drivers/CMSIS/Include/cmsis_gcc.h ****   \details Returns the current value of the non-secure Main Stack Pointer (MSP) when in secure stat
 314:Drivers/CMSIS/Include/cmsis_gcc.h ****   \return               MSP Register value
 315:Drivers/CMSIS/Include/cmsis_gcc.h ****  */
 316:Drivers/CMSIS/Include/cmsis_gcc.h **** __STATIC_FORCEINLINE uint32_t __TZ_get_MSP_NS(void)
 317:Drivers/CMSIS/Include/cmsis_gcc.h **** {
 318:Drivers/CMSIS/Include/cmsis_gcc.h ****   uint32_t result;
 319:Drivers/CMSIS/Include/cmsis_gcc.h **** 
 320:Drivers/CMSIS/Include/cmsis_gcc.h ****   __ASM volatile ("MRS %0, msp_ns" : "=r" (result) );
 321:Drivers/CMSIS/Include/cmsis_gcc.h ****   return(result);
 322:Drivers/CMSIS/Include/cmsis_gcc.h **** }
 323:Drivers/CMSIS/Include/cmsis_gcc.h **** #endif
 324:Drivers/CMSIS/Include/cmsis_gcc.h **** 
 325:Drivers/CMSIS/Include/cmsis_gcc.h **** 
 326:Drivers/CMSIS/Include/cmsis_gcc.h **** /**
 327:Drivers/CMSIS/Include/cmsis_gcc.h ****   \brief   Set Main Stack Pointer
 328:Drivers/CMSIS/Include/cmsis_gcc.h ****   \details Assigns the given value to the Main Stack Pointer (MSP).
 329:Drivers/CMSIS/Include/cmsis_gcc.h ****   \param [in]    topOfMainStack  Main Stack Pointer value to set
 330:Drivers/CMSIS/Include/cmsis_gcc.h ****  */
 331:Drivers/CMSIS/Include/cmsis_gcc.h **** __STATIC_FORCEINLINE void __set_MSP(uint32_t topOfMainStack)
 332:Drivers/CMSIS/Include/cmsis_gcc.h **** {
 333:Drivers/CMSIS/Include/cmsis_gcc.h ****   __ASM volatile ("MSR msp, %0" : : "r" (topOfMainStack) : );
 334:Drivers/CMSIS/Include/cmsis_gcc.h **** }
 335:Drivers/CMSIS/Include/cmsis_gcc.h **** 
 336:Drivers/CMSIS/Include/cmsis_gcc.h **** 
 337:Drivers/CMSIS/Include/cmsis_gcc.h **** #if (defined (__ARM_FEATURE_CMSE ) && (__ARM_FEATURE_CMSE == 3))
 338:Drivers/CMSIS/Include/cmsis_gcc.h **** /**
 339:Drivers/CMSIS/Include/cmsis_gcc.h ****   \brief   Set Main Stack Pointer (non-secure)
 340:Drivers/CMSIS/Include/cmsis_gcc.h ****   \details Assigns the given value to the non-secure Main Stack Pointer (MSP) when in secure state.
 341:Drivers/CMSIS/Include/cmsis_gcc.h ****   \param [in]    topOfMainStack  Main Stack Pointer value to set
 342:Drivers/CMSIS/Include/cmsis_gcc.h ****  */
 343:Drivers/CMSIS/Include/cmsis_gcc.h **** __STATIC_FORCEINLINE void __TZ_set_MSP_NS(uint32_t topOfMainStack)
 344:Drivers/CMSIS/Include/cmsis_gcc.h **** {
 345:Drivers/CMSIS/Include/cmsis_gcc.h ****   __ASM volatile ("MSR msp_ns, %0" : : "r" (topOfMainStack) : );
 346:Drivers/CMSIS/Include/cmsis_gcc.h **** }
 347:Drivers/CMSIS/Include/cmsis_gcc.h **** #endif
 348:Drivers/CMSIS/Include/cmsis_gcc.h **** 
 349:Drivers/CMSIS/Include/cmsis_gcc.h **** 
 350:Drivers/CMSIS/Include/cmsis_gcc.h **** #if (defined (__ARM_FEATURE_CMSE ) && (__ARM_FEATURE_CMSE == 3))
 351:Drivers/CMSIS/Include/cmsis_gcc.h **** /**
 352:Drivers/CMSIS/Include/cmsis_gcc.h ****   \brief   Get Stack Pointer (non-secure)
 353:Drivers/CMSIS/Include/cmsis_gcc.h ****   \details Returns the current value of the non-secure Stack Pointer (SP) when in secure state.
 354:Drivers/CMSIS/Include/cmsis_gcc.h ****   \return               SP Register value
 355:Drivers/CMSIS/Include/cmsis_gcc.h ****  */
 356:Drivers/CMSIS/Include/cmsis_gcc.h **** __STATIC_FORCEINLINE uint32_t __TZ_get_SP_NS(void)
 357:Drivers/CMSIS/Include/cmsis_gcc.h **** {
 358:Drivers/CMSIS/Include/cmsis_gcc.h ****   uint32_t result;
ARM GAS  /tmp/cc7e9tqS.s 			page 20


 359:Drivers/CMSIS/Include/cmsis_gcc.h **** 
 360:Drivers/CMSIS/Include/cmsis_gcc.h ****   __ASM volatile ("MRS %0, sp_ns" : "=r" (result) );
 361:Drivers/CMSIS/Include/cmsis_gcc.h ****   return(result);
 362:Drivers/CMSIS/Include/cmsis_gcc.h **** }
 363:Drivers/CMSIS/Include/cmsis_gcc.h **** 
 364:Drivers/CMSIS/Include/cmsis_gcc.h **** 
 365:Drivers/CMSIS/Include/cmsis_gcc.h **** /**
 366:Drivers/CMSIS/Include/cmsis_gcc.h ****   \brief   Set Stack Pointer (non-secure)
 367:Drivers/CMSIS/Include/cmsis_gcc.h ****   \details Assigns the given value to the non-secure Stack Pointer (SP) when in secure state.
 368:Drivers/CMSIS/Include/cmsis_gcc.h ****   \param [in]    topOfStack  Stack Pointer value to set
 369:Drivers/CMSIS/Include/cmsis_gcc.h ****  */
 370:Drivers/CMSIS/Include/cmsis_gcc.h **** __STATIC_FORCEINLINE void __TZ_set_SP_NS(uint32_t topOfStack)
 371:Drivers/CMSIS/Include/cmsis_gcc.h **** {
 372:Drivers/CMSIS/Include/cmsis_gcc.h ****   __ASM volatile ("MSR sp_ns, %0" : : "r" (topOfStack) : );
 373:Drivers/CMSIS/Include/cmsis_gcc.h **** }
 374:Drivers/CMSIS/Include/cmsis_gcc.h **** #endif
 375:Drivers/CMSIS/Include/cmsis_gcc.h **** 
 376:Drivers/CMSIS/Include/cmsis_gcc.h **** 
 377:Drivers/CMSIS/Include/cmsis_gcc.h **** /**
 378:Drivers/CMSIS/Include/cmsis_gcc.h ****   \brief   Get Priority Mask
 379:Drivers/CMSIS/Include/cmsis_gcc.h ****   \details Returns the current state of the priority mask bit from the Priority Mask Register.
 380:Drivers/CMSIS/Include/cmsis_gcc.h ****   \return               Priority Mask value
 381:Drivers/CMSIS/Include/cmsis_gcc.h ****  */
 382:Drivers/CMSIS/Include/cmsis_gcc.h **** __STATIC_FORCEINLINE uint32_t __get_PRIMASK(void)
 383:Drivers/CMSIS/Include/cmsis_gcc.h **** {
 384:Drivers/CMSIS/Include/cmsis_gcc.h ****   uint32_t result;
 385:Drivers/CMSIS/Include/cmsis_gcc.h **** 
 386:Drivers/CMSIS/Include/cmsis_gcc.h ****   __ASM volatile ("MRS %0, primask" : "=r" (result) :: "memory");
 387:Drivers/CMSIS/Include/cmsis_gcc.h ****   return(result);
 388:Drivers/CMSIS/Include/cmsis_gcc.h **** }
 389:Drivers/CMSIS/Include/cmsis_gcc.h **** 
 390:Drivers/CMSIS/Include/cmsis_gcc.h **** 
 391:Drivers/CMSIS/Include/cmsis_gcc.h **** #if (defined (__ARM_FEATURE_CMSE ) && (__ARM_FEATURE_CMSE == 3))
 392:Drivers/CMSIS/Include/cmsis_gcc.h **** /**
 393:Drivers/CMSIS/Include/cmsis_gcc.h ****   \brief   Get Priority Mask (non-secure)
 394:Drivers/CMSIS/Include/cmsis_gcc.h ****   \details Returns the current state of the non-secure priority mask bit from the Priority Mask Reg
 395:Drivers/CMSIS/Include/cmsis_gcc.h ****   \return               Priority Mask value
 396:Drivers/CMSIS/Include/cmsis_gcc.h ****  */
 397:Drivers/CMSIS/Include/cmsis_gcc.h **** __STATIC_FORCEINLINE uint32_t __TZ_get_PRIMASK_NS(void)
 398:Drivers/CMSIS/Include/cmsis_gcc.h **** {
 399:Drivers/CMSIS/Include/cmsis_gcc.h ****   uint32_t result;
 400:Drivers/CMSIS/Include/cmsis_gcc.h **** 
 401:Drivers/CMSIS/Include/cmsis_gcc.h ****   __ASM volatile ("MRS %0, primask_ns" : "=r" (result) :: "memory");
 402:Drivers/CMSIS/Include/cmsis_gcc.h ****   return(result);
 403:Drivers/CMSIS/Include/cmsis_gcc.h **** }
 404:Drivers/CMSIS/Include/cmsis_gcc.h **** #endif
 405:Drivers/CMSIS/Include/cmsis_gcc.h **** 
 406:Drivers/CMSIS/Include/cmsis_gcc.h **** 
 407:Drivers/CMSIS/Include/cmsis_gcc.h **** /**
 408:Drivers/CMSIS/Include/cmsis_gcc.h ****   \brief   Set Priority Mask
 409:Drivers/CMSIS/Include/cmsis_gcc.h ****   \details Assigns the given value to the Priority Mask Register.
 410:Drivers/CMSIS/Include/cmsis_gcc.h ****   \param [in]    priMask  Priority Mask
 411:Drivers/CMSIS/Include/cmsis_gcc.h ****  */
 412:Drivers/CMSIS/Include/cmsis_gcc.h **** __STATIC_FORCEINLINE void __set_PRIMASK(uint32_t priMask)
 413:Drivers/CMSIS/Include/cmsis_gcc.h **** {
 414:Drivers/CMSIS/Include/cmsis_gcc.h ****   __ASM volatile ("MSR primask, %0" : : "r" (priMask) : "memory");
 415:Drivers/CMSIS/Include/cmsis_gcc.h **** }
ARM GAS  /tmp/cc7e9tqS.s 			page 21


 416:Drivers/CMSIS/Include/cmsis_gcc.h **** 
 417:Drivers/CMSIS/Include/cmsis_gcc.h **** 
 418:Drivers/CMSIS/Include/cmsis_gcc.h **** #if (defined (__ARM_FEATURE_CMSE ) && (__ARM_FEATURE_CMSE == 3))
 419:Drivers/CMSIS/Include/cmsis_gcc.h **** /**
 420:Drivers/CMSIS/Include/cmsis_gcc.h ****   \brief   Set Priority Mask (non-secure)
 421:Drivers/CMSIS/Include/cmsis_gcc.h ****   \details Assigns the given value to the non-secure Priority Mask Register when in secure state.
 422:Drivers/CMSIS/Include/cmsis_gcc.h ****   \param [in]    priMask  Priority Mask
 423:Drivers/CMSIS/Include/cmsis_gcc.h ****  */
 424:Drivers/CMSIS/Include/cmsis_gcc.h **** __STATIC_FORCEINLINE void __TZ_set_PRIMASK_NS(uint32_t priMask)
 425:Drivers/CMSIS/Include/cmsis_gcc.h **** {
 426:Drivers/CMSIS/Include/cmsis_gcc.h ****   __ASM volatile ("MSR primask_ns, %0" : : "r" (priMask) : "memory");
 427:Drivers/CMSIS/Include/cmsis_gcc.h **** }
 428:Drivers/CMSIS/Include/cmsis_gcc.h **** #endif
 429:Drivers/CMSIS/Include/cmsis_gcc.h **** 
 430:Drivers/CMSIS/Include/cmsis_gcc.h **** 
 431:Drivers/CMSIS/Include/cmsis_gcc.h **** #if ((defined (__ARM_ARCH_7M__      ) && (__ARM_ARCH_7M__      == 1)) || \
 432:Drivers/CMSIS/Include/cmsis_gcc.h ****      (defined (__ARM_ARCH_7EM__     ) && (__ARM_ARCH_7EM__     == 1)) || \
 433:Drivers/CMSIS/Include/cmsis_gcc.h ****      (defined (__ARM_ARCH_8M_MAIN__ ) && (__ARM_ARCH_8M_MAIN__ == 1))    )
 434:Drivers/CMSIS/Include/cmsis_gcc.h **** /**
 435:Drivers/CMSIS/Include/cmsis_gcc.h ****   \brief   Enable FIQ
 436:Drivers/CMSIS/Include/cmsis_gcc.h ****   \details Enables FIQ interrupts by clearing the F-bit in the CPSR.
 437:Drivers/CMSIS/Include/cmsis_gcc.h ****            Can only be executed in Privileged modes.
 438:Drivers/CMSIS/Include/cmsis_gcc.h ****  */
 439:Drivers/CMSIS/Include/cmsis_gcc.h **** __STATIC_FORCEINLINE void __enable_fault_irq(void)
 440:Drivers/CMSIS/Include/cmsis_gcc.h **** {
 441:Drivers/CMSIS/Include/cmsis_gcc.h ****   __ASM volatile ("cpsie f" : : : "memory");
 442:Drivers/CMSIS/Include/cmsis_gcc.h **** }
 443:Drivers/CMSIS/Include/cmsis_gcc.h **** 
 444:Drivers/CMSIS/Include/cmsis_gcc.h **** 
 445:Drivers/CMSIS/Include/cmsis_gcc.h **** /**
 446:Drivers/CMSIS/Include/cmsis_gcc.h ****   \brief   Disable FIQ
 447:Drivers/CMSIS/Include/cmsis_gcc.h ****   \details Disables FIQ interrupts by setting the F-bit in the CPSR.
 448:Drivers/CMSIS/Include/cmsis_gcc.h ****            Can only be executed in Privileged modes.
 449:Drivers/CMSIS/Include/cmsis_gcc.h ****  */
 450:Drivers/CMSIS/Include/cmsis_gcc.h **** __STATIC_FORCEINLINE void __disable_fault_irq(void)
 451:Drivers/CMSIS/Include/cmsis_gcc.h **** {
 452:Drivers/CMSIS/Include/cmsis_gcc.h ****   __ASM volatile ("cpsid f" : : : "memory");
 453:Drivers/CMSIS/Include/cmsis_gcc.h **** }
 454:Drivers/CMSIS/Include/cmsis_gcc.h **** 
 455:Drivers/CMSIS/Include/cmsis_gcc.h **** 
 456:Drivers/CMSIS/Include/cmsis_gcc.h **** /**
 457:Drivers/CMSIS/Include/cmsis_gcc.h ****   \brief   Get Base Priority
 458:Drivers/CMSIS/Include/cmsis_gcc.h ****   \details Returns the current value of the Base Priority register.
 459:Drivers/CMSIS/Include/cmsis_gcc.h ****   \return               Base Priority register value
 460:Drivers/CMSIS/Include/cmsis_gcc.h ****  */
 461:Drivers/CMSIS/Include/cmsis_gcc.h **** __STATIC_FORCEINLINE uint32_t __get_BASEPRI(void)
 462:Drivers/CMSIS/Include/cmsis_gcc.h **** {
 463:Drivers/CMSIS/Include/cmsis_gcc.h ****   uint32_t result;
 464:Drivers/CMSIS/Include/cmsis_gcc.h **** 
 465:Drivers/CMSIS/Include/cmsis_gcc.h ****   __ASM volatile ("MRS %0, basepri" : "=r" (result) );
 466:Drivers/CMSIS/Include/cmsis_gcc.h ****   return(result);
 467:Drivers/CMSIS/Include/cmsis_gcc.h **** }
 468:Drivers/CMSIS/Include/cmsis_gcc.h **** 
 469:Drivers/CMSIS/Include/cmsis_gcc.h **** 
 470:Drivers/CMSIS/Include/cmsis_gcc.h **** #if (defined (__ARM_FEATURE_CMSE ) && (__ARM_FEATURE_CMSE == 3))
 471:Drivers/CMSIS/Include/cmsis_gcc.h **** /**
 472:Drivers/CMSIS/Include/cmsis_gcc.h ****   \brief   Get Base Priority (non-secure)
ARM GAS  /tmp/cc7e9tqS.s 			page 22


 473:Drivers/CMSIS/Include/cmsis_gcc.h ****   \details Returns the current value of the non-secure Base Priority register when in secure state.
 474:Drivers/CMSIS/Include/cmsis_gcc.h ****   \return               Base Priority register value
 475:Drivers/CMSIS/Include/cmsis_gcc.h ****  */
 476:Drivers/CMSIS/Include/cmsis_gcc.h **** __STATIC_FORCEINLINE uint32_t __TZ_get_BASEPRI_NS(void)
 477:Drivers/CMSIS/Include/cmsis_gcc.h **** {
 478:Drivers/CMSIS/Include/cmsis_gcc.h ****   uint32_t result;
 479:Drivers/CMSIS/Include/cmsis_gcc.h **** 
 480:Drivers/CMSIS/Include/cmsis_gcc.h ****   __ASM volatile ("MRS %0, basepri_ns" : "=r" (result) );
 481:Drivers/CMSIS/Include/cmsis_gcc.h ****   return(result);
 482:Drivers/CMSIS/Include/cmsis_gcc.h **** }
 483:Drivers/CMSIS/Include/cmsis_gcc.h **** #endif
 484:Drivers/CMSIS/Include/cmsis_gcc.h **** 
 485:Drivers/CMSIS/Include/cmsis_gcc.h **** 
 486:Drivers/CMSIS/Include/cmsis_gcc.h **** /**
 487:Drivers/CMSIS/Include/cmsis_gcc.h ****   \brief   Set Base Priority
 488:Drivers/CMSIS/Include/cmsis_gcc.h ****   \details Assigns the given value to the Base Priority register.
 489:Drivers/CMSIS/Include/cmsis_gcc.h ****   \param [in]    basePri  Base Priority value to set
 490:Drivers/CMSIS/Include/cmsis_gcc.h ****  */
 491:Drivers/CMSIS/Include/cmsis_gcc.h **** __STATIC_FORCEINLINE void __set_BASEPRI(uint32_t basePri)
 492:Drivers/CMSIS/Include/cmsis_gcc.h **** {
 493:Drivers/CMSIS/Include/cmsis_gcc.h ****   __ASM volatile ("MSR basepri, %0" : : "r" (basePri) : "memory");
 494:Drivers/CMSIS/Include/cmsis_gcc.h **** }
 495:Drivers/CMSIS/Include/cmsis_gcc.h **** 
 496:Drivers/CMSIS/Include/cmsis_gcc.h **** 
 497:Drivers/CMSIS/Include/cmsis_gcc.h **** #if (defined (__ARM_FEATURE_CMSE ) && (__ARM_FEATURE_CMSE == 3))
 498:Drivers/CMSIS/Include/cmsis_gcc.h **** /**
 499:Drivers/CMSIS/Include/cmsis_gcc.h ****   \brief   Set Base Priority (non-secure)
 500:Drivers/CMSIS/Include/cmsis_gcc.h ****   \details Assigns the given value to the non-secure Base Priority register when in secure state.
 501:Drivers/CMSIS/Include/cmsis_gcc.h ****   \param [in]    basePri  Base Priority value to set
 502:Drivers/CMSIS/Include/cmsis_gcc.h ****  */
 503:Drivers/CMSIS/Include/cmsis_gcc.h **** __STATIC_FORCEINLINE void __TZ_set_BASEPRI_NS(uint32_t basePri)
 504:Drivers/CMSIS/Include/cmsis_gcc.h **** {
 505:Drivers/CMSIS/Include/cmsis_gcc.h ****   __ASM volatile ("MSR basepri_ns, %0" : : "r" (basePri) : "memory");
 506:Drivers/CMSIS/Include/cmsis_gcc.h **** }
 507:Drivers/CMSIS/Include/cmsis_gcc.h **** #endif
 508:Drivers/CMSIS/Include/cmsis_gcc.h **** 
 509:Drivers/CMSIS/Include/cmsis_gcc.h **** 
 510:Drivers/CMSIS/Include/cmsis_gcc.h **** /**
 511:Drivers/CMSIS/Include/cmsis_gcc.h ****   \brief   Set Base Priority with condition
 512:Drivers/CMSIS/Include/cmsis_gcc.h ****   \details Assigns the given value to the Base Priority register only if BASEPRI masking is disable
 513:Drivers/CMSIS/Include/cmsis_gcc.h ****            or the new value increases the BASEPRI priority level.
 514:Drivers/CMSIS/Include/cmsis_gcc.h ****   \param [in]    basePri  Base Priority value to set
 515:Drivers/CMSIS/Include/cmsis_gcc.h ****  */
 516:Drivers/CMSIS/Include/cmsis_gcc.h **** __STATIC_FORCEINLINE void __set_BASEPRI_MAX(uint32_t basePri)
 517:Drivers/CMSIS/Include/cmsis_gcc.h **** {
 518:Drivers/CMSIS/Include/cmsis_gcc.h ****   __ASM volatile ("MSR basepri_max, %0" : : "r" (basePri) : "memory");
 519:Drivers/CMSIS/Include/cmsis_gcc.h **** }
 520:Drivers/CMSIS/Include/cmsis_gcc.h **** 
 521:Drivers/CMSIS/Include/cmsis_gcc.h **** 
 522:Drivers/CMSIS/Include/cmsis_gcc.h **** /**
 523:Drivers/CMSIS/Include/cmsis_gcc.h ****   \brief   Get Fault Mask
 524:Drivers/CMSIS/Include/cmsis_gcc.h ****   \details Returns the current value of the Fault Mask register.
 525:Drivers/CMSIS/Include/cmsis_gcc.h ****   \return               Fault Mask register value
 526:Drivers/CMSIS/Include/cmsis_gcc.h ****  */
 527:Drivers/CMSIS/Include/cmsis_gcc.h **** __STATIC_FORCEINLINE uint32_t __get_FAULTMASK(void)
 528:Drivers/CMSIS/Include/cmsis_gcc.h **** {
 529:Drivers/CMSIS/Include/cmsis_gcc.h ****   uint32_t result;
ARM GAS  /tmp/cc7e9tqS.s 			page 23


 530:Drivers/CMSIS/Include/cmsis_gcc.h **** 
 531:Drivers/CMSIS/Include/cmsis_gcc.h ****   __ASM volatile ("MRS %0, faultmask" : "=r" (result) );
 532:Drivers/CMSIS/Include/cmsis_gcc.h ****   return(result);
 533:Drivers/CMSIS/Include/cmsis_gcc.h **** }
 534:Drivers/CMSIS/Include/cmsis_gcc.h **** 
 535:Drivers/CMSIS/Include/cmsis_gcc.h **** 
 536:Drivers/CMSIS/Include/cmsis_gcc.h **** #if (defined (__ARM_FEATURE_CMSE ) && (__ARM_FEATURE_CMSE == 3))
 537:Drivers/CMSIS/Include/cmsis_gcc.h **** /**
 538:Drivers/CMSIS/Include/cmsis_gcc.h ****   \brief   Get Fault Mask (non-secure)
 539:Drivers/CMSIS/Include/cmsis_gcc.h ****   \details Returns the current value of the non-secure Fault Mask register when in secure state.
 540:Drivers/CMSIS/Include/cmsis_gcc.h ****   \return               Fault Mask register value
 541:Drivers/CMSIS/Include/cmsis_gcc.h ****  */
 542:Drivers/CMSIS/Include/cmsis_gcc.h **** __STATIC_FORCEINLINE uint32_t __TZ_get_FAULTMASK_NS(void)
 543:Drivers/CMSIS/Include/cmsis_gcc.h **** {
 544:Drivers/CMSIS/Include/cmsis_gcc.h ****   uint32_t result;
 545:Drivers/CMSIS/Include/cmsis_gcc.h **** 
 546:Drivers/CMSIS/Include/cmsis_gcc.h ****   __ASM volatile ("MRS %0, faultmask_ns" : "=r" (result) );
 547:Drivers/CMSIS/Include/cmsis_gcc.h ****   return(result);
 548:Drivers/CMSIS/Include/cmsis_gcc.h **** }
 549:Drivers/CMSIS/Include/cmsis_gcc.h **** #endif
 550:Drivers/CMSIS/Include/cmsis_gcc.h **** 
 551:Drivers/CMSIS/Include/cmsis_gcc.h **** 
 552:Drivers/CMSIS/Include/cmsis_gcc.h **** /**
 553:Drivers/CMSIS/Include/cmsis_gcc.h ****   \brief   Set Fault Mask
 554:Drivers/CMSIS/Include/cmsis_gcc.h ****   \details Assigns the given value to the Fault Mask register.
 555:Drivers/CMSIS/Include/cmsis_gcc.h ****   \param [in]    faultMask  Fault Mask value to set
 556:Drivers/CMSIS/Include/cmsis_gcc.h ****  */
 557:Drivers/CMSIS/Include/cmsis_gcc.h **** __STATIC_FORCEINLINE void __set_FAULTMASK(uint32_t faultMask)
 558:Drivers/CMSIS/Include/cmsis_gcc.h **** {
 559:Drivers/CMSIS/Include/cmsis_gcc.h ****   __ASM volatile ("MSR faultmask, %0" : : "r" (faultMask) : "memory");
 560:Drivers/CMSIS/Include/cmsis_gcc.h **** }
 561:Drivers/CMSIS/Include/cmsis_gcc.h **** 
 562:Drivers/CMSIS/Include/cmsis_gcc.h **** 
 563:Drivers/CMSIS/Include/cmsis_gcc.h **** #if (defined (__ARM_FEATURE_CMSE ) && (__ARM_FEATURE_CMSE == 3))
 564:Drivers/CMSIS/Include/cmsis_gcc.h **** /**
 565:Drivers/CMSIS/Include/cmsis_gcc.h ****   \brief   Set Fault Mask (non-secure)
 566:Drivers/CMSIS/Include/cmsis_gcc.h ****   \details Assigns the given value to the non-secure Fault Mask register when in secure state.
 567:Drivers/CMSIS/Include/cmsis_gcc.h ****   \param [in]    faultMask  Fault Mask value to set
 568:Drivers/CMSIS/Include/cmsis_gcc.h ****  */
 569:Drivers/CMSIS/Include/cmsis_gcc.h **** __STATIC_FORCEINLINE void __TZ_set_FAULTMASK_NS(uint32_t faultMask)
 570:Drivers/CMSIS/Include/cmsis_gcc.h **** {
 571:Drivers/CMSIS/Include/cmsis_gcc.h ****   __ASM volatile ("MSR faultmask_ns, %0" : : "r" (faultMask) : "memory");
 572:Drivers/CMSIS/Include/cmsis_gcc.h **** }
 573:Drivers/CMSIS/Include/cmsis_gcc.h **** #endif
 574:Drivers/CMSIS/Include/cmsis_gcc.h **** 
 575:Drivers/CMSIS/Include/cmsis_gcc.h **** #endif /* ((defined (__ARM_ARCH_7M__      ) && (__ARM_ARCH_7M__      == 1)) || \
 576:Drivers/CMSIS/Include/cmsis_gcc.h ****            (defined (__ARM_ARCH_7EM__     ) && (__ARM_ARCH_7EM__     == 1)) || \
 577:Drivers/CMSIS/Include/cmsis_gcc.h ****            (defined (__ARM_ARCH_8M_MAIN__ ) && (__ARM_ARCH_8M_MAIN__ == 1))    ) */
 578:Drivers/CMSIS/Include/cmsis_gcc.h **** 
 579:Drivers/CMSIS/Include/cmsis_gcc.h **** 
 580:Drivers/CMSIS/Include/cmsis_gcc.h **** #if ((defined (__ARM_ARCH_8M_MAIN__ ) && (__ARM_ARCH_8M_MAIN__ == 1)) || \
 581:Drivers/CMSIS/Include/cmsis_gcc.h ****      (defined (__ARM_ARCH_8M_BASE__ ) && (__ARM_ARCH_8M_BASE__ == 1))    )
 582:Drivers/CMSIS/Include/cmsis_gcc.h **** 
 583:Drivers/CMSIS/Include/cmsis_gcc.h **** /**
 584:Drivers/CMSIS/Include/cmsis_gcc.h ****   \brief   Get Process Stack Pointer Limit
 585:Drivers/CMSIS/Include/cmsis_gcc.h ****   Devices without ARMv8-M Main Extensions (i.e. Cortex-M23) lack the non-secure
 586:Drivers/CMSIS/Include/cmsis_gcc.h ****   Stack Pointer Limit register hence zero is returned always in non-secure
ARM GAS  /tmp/cc7e9tqS.s 			page 24


 587:Drivers/CMSIS/Include/cmsis_gcc.h ****   mode.
 588:Drivers/CMSIS/Include/cmsis_gcc.h ****   
 589:Drivers/CMSIS/Include/cmsis_gcc.h ****   \details Returns the current value of the Process Stack Pointer Limit (PSPLIM).
 590:Drivers/CMSIS/Include/cmsis_gcc.h ****   \return               PSPLIM Register value
 591:Drivers/CMSIS/Include/cmsis_gcc.h ****  */
 592:Drivers/CMSIS/Include/cmsis_gcc.h **** __STATIC_FORCEINLINE uint32_t __get_PSPLIM(void)
 593:Drivers/CMSIS/Include/cmsis_gcc.h **** {
 594:Drivers/CMSIS/Include/cmsis_gcc.h **** #if (!(defined (__ARM_ARCH_8M_MAIN__ ) && (__ARM_ARCH_8M_MAIN__ == 1)) && \
 595:Drivers/CMSIS/Include/cmsis_gcc.h ****     (!defined (__ARM_FEATURE_CMSE) || (__ARM_FEATURE_CMSE < 3)))
 596:Drivers/CMSIS/Include/cmsis_gcc.h ****     // without main extensions, the non-secure PSPLIM is RAZ/WI
 597:Drivers/CMSIS/Include/cmsis_gcc.h ****   return 0U;
 598:Drivers/CMSIS/Include/cmsis_gcc.h **** #else
 599:Drivers/CMSIS/Include/cmsis_gcc.h ****   uint32_t result;
 600:Drivers/CMSIS/Include/cmsis_gcc.h ****   __ASM volatile ("MRS %0, psplim"  : "=r" (result) );
 601:Drivers/CMSIS/Include/cmsis_gcc.h ****   return result;
 602:Drivers/CMSIS/Include/cmsis_gcc.h **** #endif
 603:Drivers/CMSIS/Include/cmsis_gcc.h **** }
 604:Drivers/CMSIS/Include/cmsis_gcc.h **** 
 605:Drivers/CMSIS/Include/cmsis_gcc.h **** #if (defined (__ARM_FEATURE_CMSE) && (__ARM_FEATURE_CMSE == 3))
 606:Drivers/CMSIS/Include/cmsis_gcc.h **** /**
 607:Drivers/CMSIS/Include/cmsis_gcc.h ****   \brief   Get Process Stack Pointer Limit (non-secure)
 608:Drivers/CMSIS/Include/cmsis_gcc.h ****   Devices without ARMv8-M Main Extensions (i.e. Cortex-M23) lack the non-secure
 609:Drivers/CMSIS/Include/cmsis_gcc.h ****   Stack Pointer Limit register hence zero is returned always.
 610:Drivers/CMSIS/Include/cmsis_gcc.h **** 
 611:Drivers/CMSIS/Include/cmsis_gcc.h ****   \details Returns the current value of the non-secure Process Stack Pointer Limit (PSPLIM) when in
 612:Drivers/CMSIS/Include/cmsis_gcc.h ****   \return               PSPLIM Register value
 613:Drivers/CMSIS/Include/cmsis_gcc.h ****  */
 614:Drivers/CMSIS/Include/cmsis_gcc.h **** __STATIC_FORCEINLINE uint32_t __TZ_get_PSPLIM_NS(void)
 615:Drivers/CMSIS/Include/cmsis_gcc.h **** {
 616:Drivers/CMSIS/Include/cmsis_gcc.h **** #if (!(defined (__ARM_ARCH_8M_MAIN__ ) && (__ARM_ARCH_8M_MAIN__ == 1)))
 617:Drivers/CMSIS/Include/cmsis_gcc.h ****   // without main extensions, the non-secure PSPLIM is RAZ/WI
 618:Drivers/CMSIS/Include/cmsis_gcc.h ****   return 0U;
 619:Drivers/CMSIS/Include/cmsis_gcc.h **** #else
 620:Drivers/CMSIS/Include/cmsis_gcc.h ****   uint32_t result;
 621:Drivers/CMSIS/Include/cmsis_gcc.h ****   __ASM volatile ("MRS %0, psplim_ns"  : "=r" (result) );
 622:Drivers/CMSIS/Include/cmsis_gcc.h ****   return result;
 623:Drivers/CMSIS/Include/cmsis_gcc.h **** #endif
 624:Drivers/CMSIS/Include/cmsis_gcc.h **** }
 625:Drivers/CMSIS/Include/cmsis_gcc.h **** #endif
 626:Drivers/CMSIS/Include/cmsis_gcc.h **** 
 627:Drivers/CMSIS/Include/cmsis_gcc.h **** 
 628:Drivers/CMSIS/Include/cmsis_gcc.h **** /**
 629:Drivers/CMSIS/Include/cmsis_gcc.h ****   \brief   Set Process Stack Pointer Limit
 630:Drivers/CMSIS/Include/cmsis_gcc.h ****   Devices without ARMv8-M Main Extensions (i.e. Cortex-M23) lack the non-secure
 631:Drivers/CMSIS/Include/cmsis_gcc.h ****   Stack Pointer Limit register hence the write is silently ignored in non-secure
 632:Drivers/CMSIS/Include/cmsis_gcc.h ****   mode.
 633:Drivers/CMSIS/Include/cmsis_gcc.h ****   
 634:Drivers/CMSIS/Include/cmsis_gcc.h ****   \details Assigns the given value to the Process Stack Pointer Limit (PSPLIM).
 635:Drivers/CMSIS/Include/cmsis_gcc.h ****   \param [in]    ProcStackPtrLimit  Process Stack Pointer Limit value to set
 636:Drivers/CMSIS/Include/cmsis_gcc.h ****  */
 637:Drivers/CMSIS/Include/cmsis_gcc.h **** __STATIC_FORCEINLINE void __set_PSPLIM(uint32_t ProcStackPtrLimit)
 638:Drivers/CMSIS/Include/cmsis_gcc.h **** {
 639:Drivers/CMSIS/Include/cmsis_gcc.h **** #if (!(defined (__ARM_ARCH_8M_MAIN__ ) && (__ARM_ARCH_8M_MAIN__ == 1)) && \
 640:Drivers/CMSIS/Include/cmsis_gcc.h ****     (!defined (__ARM_FEATURE_CMSE) || (__ARM_FEATURE_CMSE < 3)))
 641:Drivers/CMSIS/Include/cmsis_gcc.h ****   // without main extensions, the non-secure PSPLIM is RAZ/WI
 642:Drivers/CMSIS/Include/cmsis_gcc.h ****   (void)ProcStackPtrLimit;
 643:Drivers/CMSIS/Include/cmsis_gcc.h **** #else
ARM GAS  /tmp/cc7e9tqS.s 			page 25


 644:Drivers/CMSIS/Include/cmsis_gcc.h ****   __ASM volatile ("MSR psplim, %0" : : "r" (ProcStackPtrLimit));
 645:Drivers/CMSIS/Include/cmsis_gcc.h **** #endif
 646:Drivers/CMSIS/Include/cmsis_gcc.h **** }
 647:Drivers/CMSIS/Include/cmsis_gcc.h **** 
 648:Drivers/CMSIS/Include/cmsis_gcc.h **** 
 649:Drivers/CMSIS/Include/cmsis_gcc.h **** #if (defined (__ARM_FEATURE_CMSE  ) && (__ARM_FEATURE_CMSE   == 3))
 650:Drivers/CMSIS/Include/cmsis_gcc.h **** /**
 651:Drivers/CMSIS/Include/cmsis_gcc.h ****   \brief   Set Process Stack Pointer (non-secure)
 652:Drivers/CMSIS/Include/cmsis_gcc.h ****   Devices without ARMv8-M Main Extensions (i.e. Cortex-M23) lack the non-secure
 653:Drivers/CMSIS/Include/cmsis_gcc.h ****   Stack Pointer Limit register hence the write is silently ignored.
 654:Drivers/CMSIS/Include/cmsis_gcc.h **** 
 655:Drivers/CMSIS/Include/cmsis_gcc.h ****   \details Assigns the given value to the non-secure Process Stack Pointer Limit (PSPLIM) when in s
 656:Drivers/CMSIS/Include/cmsis_gcc.h ****   \param [in]    ProcStackPtrLimit  Process Stack Pointer Limit value to set
 657:Drivers/CMSIS/Include/cmsis_gcc.h ****  */
 658:Drivers/CMSIS/Include/cmsis_gcc.h **** __STATIC_FORCEINLINE void __TZ_set_PSPLIM_NS(uint32_t ProcStackPtrLimit)
 659:Drivers/CMSIS/Include/cmsis_gcc.h **** {
 660:Drivers/CMSIS/Include/cmsis_gcc.h **** #if (!(defined (__ARM_ARCH_8M_MAIN__ ) && (__ARM_ARCH_8M_MAIN__ == 1)))
 661:Drivers/CMSIS/Include/cmsis_gcc.h ****   // without main extensions, the non-secure PSPLIM is RAZ/WI
 662:Drivers/CMSIS/Include/cmsis_gcc.h ****   (void)ProcStackPtrLimit;
 663:Drivers/CMSIS/Include/cmsis_gcc.h **** #else
 664:Drivers/CMSIS/Include/cmsis_gcc.h ****   __ASM volatile ("MSR psplim_ns, %0\n" : : "r" (ProcStackPtrLimit));
 665:Drivers/CMSIS/Include/cmsis_gcc.h **** #endif
 666:Drivers/CMSIS/Include/cmsis_gcc.h **** }
 667:Drivers/CMSIS/Include/cmsis_gcc.h **** #endif
 668:Drivers/CMSIS/Include/cmsis_gcc.h **** 
 669:Drivers/CMSIS/Include/cmsis_gcc.h **** 
 670:Drivers/CMSIS/Include/cmsis_gcc.h **** /**
 671:Drivers/CMSIS/Include/cmsis_gcc.h ****   \brief   Get Main Stack Pointer Limit
 672:Drivers/CMSIS/Include/cmsis_gcc.h ****   Devices without ARMv8-M Main Extensions (i.e. Cortex-M23) lack the non-secure
 673:Drivers/CMSIS/Include/cmsis_gcc.h ****   Stack Pointer Limit register hence zero is returned always in non-secure
 674:Drivers/CMSIS/Include/cmsis_gcc.h ****   mode.
 675:Drivers/CMSIS/Include/cmsis_gcc.h **** 
 676:Drivers/CMSIS/Include/cmsis_gcc.h ****   \details Returns the current value of the Main Stack Pointer Limit (MSPLIM).
 677:Drivers/CMSIS/Include/cmsis_gcc.h ****   \return               MSPLIM Register value
 678:Drivers/CMSIS/Include/cmsis_gcc.h ****  */
 679:Drivers/CMSIS/Include/cmsis_gcc.h **** __STATIC_FORCEINLINE uint32_t __get_MSPLIM(void)
 680:Drivers/CMSIS/Include/cmsis_gcc.h **** {
 681:Drivers/CMSIS/Include/cmsis_gcc.h **** #if (!(defined (__ARM_ARCH_8M_MAIN__ ) && (__ARM_ARCH_8M_MAIN__ == 1)) && \
 682:Drivers/CMSIS/Include/cmsis_gcc.h ****     (!defined (__ARM_FEATURE_CMSE) || (__ARM_FEATURE_CMSE < 3)))
 683:Drivers/CMSIS/Include/cmsis_gcc.h ****   // without main extensions, the non-secure MSPLIM is RAZ/WI
 684:Drivers/CMSIS/Include/cmsis_gcc.h ****   return 0U;
 685:Drivers/CMSIS/Include/cmsis_gcc.h **** #else
 686:Drivers/CMSIS/Include/cmsis_gcc.h ****   uint32_t result;
 687:Drivers/CMSIS/Include/cmsis_gcc.h ****   __ASM volatile ("MRS %0, msplim" : "=r" (result) );
 688:Drivers/CMSIS/Include/cmsis_gcc.h ****   return result;
 689:Drivers/CMSIS/Include/cmsis_gcc.h **** #endif
 690:Drivers/CMSIS/Include/cmsis_gcc.h **** }
 691:Drivers/CMSIS/Include/cmsis_gcc.h **** 
 692:Drivers/CMSIS/Include/cmsis_gcc.h **** 
 693:Drivers/CMSIS/Include/cmsis_gcc.h **** #if (defined (__ARM_FEATURE_CMSE  ) && (__ARM_FEATURE_CMSE   == 3))
 694:Drivers/CMSIS/Include/cmsis_gcc.h **** /**
 695:Drivers/CMSIS/Include/cmsis_gcc.h ****   \brief   Get Main Stack Pointer Limit (non-secure)
 696:Drivers/CMSIS/Include/cmsis_gcc.h ****   Devices without ARMv8-M Main Extensions (i.e. Cortex-M23) lack the non-secure
 697:Drivers/CMSIS/Include/cmsis_gcc.h ****   Stack Pointer Limit register hence zero is returned always.
 698:Drivers/CMSIS/Include/cmsis_gcc.h **** 
 699:Drivers/CMSIS/Include/cmsis_gcc.h ****   \details Returns the current value of the non-secure Main Stack Pointer Limit(MSPLIM) when in sec
 700:Drivers/CMSIS/Include/cmsis_gcc.h ****   \return               MSPLIM Register value
ARM GAS  /tmp/cc7e9tqS.s 			page 26


 701:Drivers/CMSIS/Include/cmsis_gcc.h ****  */
 702:Drivers/CMSIS/Include/cmsis_gcc.h **** __STATIC_FORCEINLINE uint32_t __TZ_get_MSPLIM_NS(void)
 703:Drivers/CMSIS/Include/cmsis_gcc.h **** {
 704:Drivers/CMSIS/Include/cmsis_gcc.h **** #if (!(defined (__ARM_ARCH_8M_MAIN__ ) && (__ARM_ARCH_8M_MAIN__ == 1)))
 705:Drivers/CMSIS/Include/cmsis_gcc.h ****   // without main extensions, the non-secure MSPLIM is RAZ/WI
 706:Drivers/CMSIS/Include/cmsis_gcc.h ****   return 0U;
 707:Drivers/CMSIS/Include/cmsis_gcc.h **** #else
 708:Drivers/CMSIS/Include/cmsis_gcc.h ****   uint32_t result;
 709:Drivers/CMSIS/Include/cmsis_gcc.h ****   __ASM volatile ("MRS %0, msplim_ns" : "=r" (result) );
 710:Drivers/CMSIS/Include/cmsis_gcc.h ****   return result;
 711:Drivers/CMSIS/Include/cmsis_gcc.h **** #endif
 712:Drivers/CMSIS/Include/cmsis_gcc.h **** }
 713:Drivers/CMSIS/Include/cmsis_gcc.h **** #endif
 714:Drivers/CMSIS/Include/cmsis_gcc.h **** 
 715:Drivers/CMSIS/Include/cmsis_gcc.h **** 
 716:Drivers/CMSIS/Include/cmsis_gcc.h **** /**
 717:Drivers/CMSIS/Include/cmsis_gcc.h ****   \brief   Set Main Stack Pointer Limit
 718:Drivers/CMSIS/Include/cmsis_gcc.h ****   Devices without ARMv8-M Main Extensions (i.e. Cortex-M23) lack the non-secure
 719:Drivers/CMSIS/Include/cmsis_gcc.h ****   Stack Pointer Limit register hence the write is silently ignored in non-secure
 720:Drivers/CMSIS/Include/cmsis_gcc.h ****   mode.
 721:Drivers/CMSIS/Include/cmsis_gcc.h **** 
 722:Drivers/CMSIS/Include/cmsis_gcc.h ****   \details Assigns the given value to the Main Stack Pointer Limit (MSPLIM).
 723:Drivers/CMSIS/Include/cmsis_gcc.h ****   \param [in]    MainStackPtrLimit  Main Stack Pointer Limit value to set
 724:Drivers/CMSIS/Include/cmsis_gcc.h ****  */
 725:Drivers/CMSIS/Include/cmsis_gcc.h **** __STATIC_FORCEINLINE void __set_MSPLIM(uint32_t MainStackPtrLimit)
 726:Drivers/CMSIS/Include/cmsis_gcc.h **** {
 727:Drivers/CMSIS/Include/cmsis_gcc.h **** #if (!(defined (__ARM_ARCH_8M_MAIN__ ) && (__ARM_ARCH_8M_MAIN__ == 1)) && \
 728:Drivers/CMSIS/Include/cmsis_gcc.h ****     (!defined (__ARM_FEATURE_CMSE) || (__ARM_FEATURE_CMSE < 3)))
 729:Drivers/CMSIS/Include/cmsis_gcc.h ****   // without main extensions, the non-secure MSPLIM is RAZ/WI
 730:Drivers/CMSIS/Include/cmsis_gcc.h ****   (void)MainStackPtrLimit;
 731:Drivers/CMSIS/Include/cmsis_gcc.h **** #else
 732:Drivers/CMSIS/Include/cmsis_gcc.h ****   __ASM volatile ("MSR msplim, %0" : : "r" (MainStackPtrLimit));
 733:Drivers/CMSIS/Include/cmsis_gcc.h **** #endif
 734:Drivers/CMSIS/Include/cmsis_gcc.h **** }
 735:Drivers/CMSIS/Include/cmsis_gcc.h **** 
 736:Drivers/CMSIS/Include/cmsis_gcc.h **** 
 737:Drivers/CMSIS/Include/cmsis_gcc.h **** #if (defined (__ARM_FEATURE_CMSE  ) && (__ARM_FEATURE_CMSE   == 3))
 738:Drivers/CMSIS/Include/cmsis_gcc.h **** /**
 739:Drivers/CMSIS/Include/cmsis_gcc.h ****   \brief   Set Main Stack Pointer Limit (non-secure)
 740:Drivers/CMSIS/Include/cmsis_gcc.h ****   Devices without ARMv8-M Main Extensions (i.e. Cortex-M23) lack the non-secure
 741:Drivers/CMSIS/Include/cmsis_gcc.h ****   Stack Pointer Limit register hence the write is silently ignored.
 742:Drivers/CMSIS/Include/cmsis_gcc.h **** 
 743:Drivers/CMSIS/Include/cmsis_gcc.h ****   \details Assigns the given value to the non-secure Main Stack Pointer Limit (MSPLIM) when in secu
 744:Drivers/CMSIS/Include/cmsis_gcc.h ****   \param [in]    MainStackPtrLimit  Main Stack Pointer value to set
 745:Drivers/CMSIS/Include/cmsis_gcc.h ****  */
 746:Drivers/CMSIS/Include/cmsis_gcc.h **** __STATIC_FORCEINLINE void __TZ_set_MSPLIM_NS(uint32_t MainStackPtrLimit)
 747:Drivers/CMSIS/Include/cmsis_gcc.h **** {
 748:Drivers/CMSIS/Include/cmsis_gcc.h **** #if (!(defined (__ARM_ARCH_8M_MAIN__ ) && (__ARM_ARCH_8M_MAIN__ == 1)))
 749:Drivers/CMSIS/Include/cmsis_gcc.h ****   // without main extensions, the non-secure MSPLIM is RAZ/WI
 750:Drivers/CMSIS/Include/cmsis_gcc.h ****   (void)MainStackPtrLimit;
 751:Drivers/CMSIS/Include/cmsis_gcc.h **** #else
 752:Drivers/CMSIS/Include/cmsis_gcc.h ****   __ASM volatile ("MSR msplim_ns, %0" : : "r" (MainStackPtrLimit));
 753:Drivers/CMSIS/Include/cmsis_gcc.h **** #endif
 754:Drivers/CMSIS/Include/cmsis_gcc.h **** }
 755:Drivers/CMSIS/Include/cmsis_gcc.h **** #endif
 756:Drivers/CMSIS/Include/cmsis_gcc.h **** 
 757:Drivers/CMSIS/Include/cmsis_gcc.h **** #endif /* ((defined (__ARM_ARCH_8M_MAIN__ ) && (__ARM_ARCH_8M_MAIN__ == 1)) || \
ARM GAS  /tmp/cc7e9tqS.s 			page 27


 758:Drivers/CMSIS/Include/cmsis_gcc.h ****            (defined (__ARM_ARCH_8M_BASE__ ) && (__ARM_ARCH_8M_BASE__ == 1))    ) */
 759:Drivers/CMSIS/Include/cmsis_gcc.h **** 
 760:Drivers/CMSIS/Include/cmsis_gcc.h **** 
 761:Drivers/CMSIS/Include/cmsis_gcc.h **** /**
 762:Drivers/CMSIS/Include/cmsis_gcc.h ****   \brief   Get FPSCR
 763:Drivers/CMSIS/Include/cmsis_gcc.h ****   \details Returns the current value of the Floating Point Status/Control register.
 764:Drivers/CMSIS/Include/cmsis_gcc.h ****   \return               Floating Point Status/Control register value
 765:Drivers/CMSIS/Include/cmsis_gcc.h ****  */
 766:Drivers/CMSIS/Include/cmsis_gcc.h **** __STATIC_FORCEINLINE uint32_t __get_FPSCR(void)
 767:Drivers/CMSIS/Include/cmsis_gcc.h **** {
 768:Drivers/CMSIS/Include/cmsis_gcc.h **** #if ((defined (__FPU_PRESENT) && (__FPU_PRESENT == 1U)) && \
 769:Drivers/CMSIS/Include/cmsis_gcc.h ****      (defined (__FPU_USED   ) && (__FPU_USED    == 1U))     )
 770:Drivers/CMSIS/Include/cmsis_gcc.h **** #if __has_builtin(__builtin_arm_get_fpscr) 
 771:Drivers/CMSIS/Include/cmsis_gcc.h **** // Re-enable using built-in when GCC has been fixed
 772:Drivers/CMSIS/Include/cmsis_gcc.h **** // || (__GNUC__ > 7) || (__GNUC__ == 7 && __GNUC_MINOR__ >= 2)
 773:Drivers/CMSIS/Include/cmsis_gcc.h ****   /* see https://gcc.gnu.org/ml/gcc-patches/2017-04/msg00443.html */
 774:Drivers/CMSIS/Include/cmsis_gcc.h ****   return __builtin_arm_get_fpscr();
 775:Drivers/CMSIS/Include/cmsis_gcc.h **** #else
 776:Drivers/CMSIS/Include/cmsis_gcc.h ****   uint32_t result;
 777:Drivers/CMSIS/Include/cmsis_gcc.h **** 
 778:Drivers/CMSIS/Include/cmsis_gcc.h ****   __ASM volatile ("VMRS %0, fpscr" : "=r" (result) );
 779:Drivers/CMSIS/Include/cmsis_gcc.h ****   return(result);
 780:Drivers/CMSIS/Include/cmsis_gcc.h **** #endif
 781:Drivers/CMSIS/Include/cmsis_gcc.h **** #else
 782:Drivers/CMSIS/Include/cmsis_gcc.h ****   return(0U);
 783:Drivers/CMSIS/Include/cmsis_gcc.h **** #endif
 784:Drivers/CMSIS/Include/cmsis_gcc.h **** }
 785:Drivers/CMSIS/Include/cmsis_gcc.h **** 
 786:Drivers/CMSIS/Include/cmsis_gcc.h **** 
 787:Drivers/CMSIS/Include/cmsis_gcc.h **** /**
 788:Drivers/CMSIS/Include/cmsis_gcc.h ****   \brief   Set FPSCR
 789:Drivers/CMSIS/Include/cmsis_gcc.h ****   \details Assigns the given value to the Floating Point Status/Control register.
 790:Drivers/CMSIS/Include/cmsis_gcc.h ****   \param [in]    fpscr  Floating Point Status/Control value to set
 791:Drivers/CMSIS/Include/cmsis_gcc.h ****  */
 792:Drivers/CMSIS/Include/cmsis_gcc.h **** __STATIC_FORCEINLINE void __set_FPSCR(uint32_t fpscr)
 793:Drivers/CMSIS/Include/cmsis_gcc.h **** {
 794:Drivers/CMSIS/Include/cmsis_gcc.h **** #if ((defined (__FPU_PRESENT) && (__FPU_PRESENT == 1U)) && \
 795:Drivers/CMSIS/Include/cmsis_gcc.h ****      (defined (__FPU_USED   ) && (__FPU_USED    == 1U))     )
 796:Drivers/CMSIS/Include/cmsis_gcc.h **** #if __has_builtin(__builtin_arm_set_fpscr)
 797:Drivers/CMSIS/Include/cmsis_gcc.h **** // Re-enable using built-in when GCC has been fixed
 798:Drivers/CMSIS/Include/cmsis_gcc.h **** // || (__GNUC__ > 7) || (__GNUC__ == 7 && __GNUC_MINOR__ >= 2)
 799:Drivers/CMSIS/Include/cmsis_gcc.h ****   /* see https://gcc.gnu.org/ml/gcc-patches/2017-04/msg00443.html */
 800:Drivers/CMSIS/Include/cmsis_gcc.h ****   __builtin_arm_set_fpscr(fpscr);
 801:Drivers/CMSIS/Include/cmsis_gcc.h **** #else
 802:Drivers/CMSIS/Include/cmsis_gcc.h ****   __ASM volatile ("VMSR fpscr, %0" : : "r" (fpscr) : "vfpcc", "memory");
 803:Drivers/CMSIS/Include/cmsis_gcc.h **** #endif
 804:Drivers/CMSIS/Include/cmsis_gcc.h **** #else
 805:Drivers/CMSIS/Include/cmsis_gcc.h ****   (void)fpscr;
 806:Drivers/CMSIS/Include/cmsis_gcc.h **** #endif
 807:Drivers/CMSIS/Include/cmsis_gcc.h **** }
 808:Drivers/CMSIS/Include/cmsis_gcc.h **** 
 809:Drivers/CMSIS/Include/cmsis_gcc.h **** 
 810:Drivers/CMSIS/Include/cmsis_gcc.h **** /*@} end of CMSIS_Core_RegAccFunctions */
 811:Drivers/CMSIS/Include/cmsis_gcc.h **** 
 812:Drivers/CMSIS/Include/cmsis_gcc.h **** 
 813:Drivers/CMSIS/Include/cmsis_gcc.h **** /* ##########################  Core Instruction Access  ######################### */
 814:Drivers/CMSIS/Include/cmsis_gcc.h **** /** \defgroup CMSIS_Core_InstructionInterface CMSIS Core Instruction Interface
ARM GAS  /tmp/cc7e9tqS.s 			page 28


 815:Drivers/CMSIS/Include/cmsis_gcc.h ****   Access to dedicated instructions
 816:Drivers/CMSIS/Include/cmsis_gcc.h ****   @{
 817:Drivers/CMSIS/Include/cmsis_gcc.h **** */
 818:Drivers/CMSIS/Include/cmsis_gcc.h **** 
 819:Drivers/CMSIS/Include/cmsis_gcc.h **** /* Define macros for porting to both thumb1 and thumb2.
 820:Drivers/CMSIS/Include/cmsis_gcc.h ****  * For thumb1, use low register (r0-r7), specified by constraint "l"
 821:Drivers/CMSIS/Include/cmsis_gcc.h ****  * Otherwise, use general registers, specified by constraint "r" */
 822:Drivers/CMSIS/Include/cmsis_gcc.h **** #if defined (__thumb__) && !defined (__thumb2__)
 823:Drivers/CMSIS/Include/cmsis_gcc.h **** #define __CMSIS_GCC_OUT_REG(r) "=l" (r)
 824:Drivers/CMSIS/Include/cmsis_gcc.h **** #define __CMSIS_GCC_RW_REG(r) "+l" (r)
 825:Drivers/CMSIS/Include/cmsis_gcc.h **** #define __CMSIS_GCC_USE_REG(r) "l" (r)
 826:Drivers/CMSIS/Include/cmsis_gcc.h **** #else
 827:Drivers/CMSIS/Include/cmsis_gcc.h **** #define __CMSIS_GCC_OUT_REG(r) "=r" (r)
 828:Drivers/CMSIS/Include/cmsis_gcc.h **** #define __CMSIS_GCC_RW_REG(r) "+r" (r)
 829:Drivers/CMSIS/Include/cmsis_gcc.h **** #define __CMSIS_GCC_USE_REG(r) "r" (r)
 830:Drivers/CMSIS/Include/cmsis_gcc.h **** #endif
 831:Drivers/CMSIS/Include/cmsis_gcc.h **** 
 832:Drivers/CMSIS/Include/cmsis_gcc.h **** /**
 833:Drivers/CMSIS/Include/cmsis_gcc.h ****   \brief   No Operation
 834:Drivers/CMSIS/Include/cmsis_gcc.h ****   \details No Operation does nothing. This instruction can be used for code alignment purposes.
 835:Drivers/CMSIS/Include/cmsis_gcc.h ****  */
 836:Drivers/CMSIS/Include/cmsis_gcc.h **** #define __NOP()                             __ASM volatile ("nop")
 837:Drivers/CMSIS/Include/cmsis_gcc.h **** 
 838:Drivers/CMSIS/Include/cmsis_gcc.h **** /**
 839:Drivers/CMSIS/Include/cmsis_gcc.h ****   \brief   Wait For Interrupt
 840:Drivers/CMSIS/Include/cmsis_gcc.h ****   \details Wait For Interrupt is a hint instruction that suspends execution until one of a number o
 841:Drivers/CMSIS/Include/cmsis_gcc.h ****  */
 842:Drivers/CMSIS/Include/cmsis_gcc.h **** #define __WFI()                             __ASM volatile ("wfi")
 843:Drivers/CMSIS/Include/cmsis_gcc.h **** 
 844:Drivers/CMSIS/Include/cmsis_gcc.h **** 
 845:Drivers/CMSIS/Include/cmsis_gcc.h **** /**
 846:Drivers/CMSIS/Include/cmsis_gcc.h ****   \brief   Wait For Event
 847:Drivers/CMSIS/Include/cmsis_gcc.h ****   \details Wait For Event is a hint instruction that permits the processor to enter
 848:Drivers/CMSIS/Include/cmsis_gcc.h ****            a low-power state until one of a number of events occurs.
 849:Drivers/CMSIS/Include/cmsis_gcc.h ****  */
 850:Drivers/CMSIS/Include/cmsis_gcc.h **** #define __WFE()                             __ASM volatile ("wfe")
 851:Drivers/CMSIS/Include/cmsis_gcc.h **** 
 852:Drivers/CMSIS/Include/cmsis_gcc.h **** 
 853:Drivers/CMSIS/Include/cmsis_gcc.h **** /**
 854:Drivers/CMSIS/Include/cmsis_gcc.h ****   \brief   Send Event
 855:Drivers/CMSIS/Include/cmsis_gcc.h ****   \details Send Event is a hint instruction. It causes an event to be signaled to the CPU.
 856:Drivers/CMSIS/Include/cmsis_gcc.h ****  */
 857:Drivers/CMSIS/Include/cmsis_gcc.h **** #define __SEV()                             __ASM volatile ("sev")
 858:Drivers/CMSIS/Include/cmsis_gcc.h **** 
 859:Drivers/CMSIS/Include/cmsis_gcc.h **** 
 860:Drivers/CMSIS/Include/cmsis_gcc.h **** /**
 861:Drivers/CMSIS/Include/cmsis_gcc.h ****   \brief   Instruction Synchronization Barrier
 862:Drivers/CMSIS/Include/cmsis_gcc.h ****   \details Instruction Synchronization Barrier flushes the pipeline in the processor,
 863:Drivers/CMSIS/Include/cmsis_gcc.h ****            so that all instructions following the ISB are fetched from cache or memory,
 864:Drivers/CMSIS/Include/cmsis_gcc.h ****            after the instruction has been completed.
 865:Drivers/CMSIS/Include/cmsis_gcc.h ****  */
 866:Drivers/CMSIS/Include/cmsis_gcc.h **** __STATIC_FORCEINLINE void __ISB(void)
 867:Drivers/CMSIS/Include/cmsis_gcc.h **** {
 868:Drivers/CMSIS/Include/cmsis_gcc.h ****   __ASM volatile ("isb 0xF":::"memory");
 869:Drivers/CMSIS/Include/cmsis_gcc.h **** }
 870:Drivers/CMSIS/Include/cmsis_gcc.h **** 
 871:Drivers/CMSIS/Include/cmsis_gcc.h **** 
ARM GAS  /tmp/cc7e9tqS.s 			page 29


 872:Drivers/CMSIS/Include/cmsis_gcc.h **** /**
 873:Drivers/CMSIS/Include/cmsis_gcc.h ****   \brief   Data Synchronization Barrier
 874:Drivers/CMSIS/Include/cmsis_gcc.h ****   \details Acts as a special kind of Data Memory Barrier.
 875:Drivers/CMSIS/Include/cmsis_gcc.h ****            It completes when all explicit memory accesses before this instruction complete.
 876:Drivers/CMSIS/Include/cmsis_gcc.h ****  */
 877:Drivers/CMSIS/Include/cmsis_gcc.h **** __STATIC_FORCEINLINE void __DSB(void)
 878:Drivers/CMSIS/Include/cmsis_gcc.h **** {
 879:Drivers/CMSIS/Include/cmsis_gcc.h ****   __ASM volatile ("dsb 0xF":::"memory");
 349              		.loc 2 879 0
 350              		.syntax unified
 351              	@ 879 "Drivers/CMSIS/Include/cmsis_gcc.h" 1
 352 000a BFF34F8F 		dsb 0xF
 353              	@ 0 "" 2
 354              		.thumb
 355              		.syntax unified
 356              	.LBE11:
 357              	.LBE10:
 358              	.LBB12:
 359              	.LBB13:
 868:Drivers/CMSIS/Include/cmsis_gcc.h **** }
 360              		.loc 2 868 0
 361              		.syntax unified
 362              	@ 868 "Drivers/CMSIS/Include/cmsis_gcc.h" 1
 363 000e BFF36F8F 		isb 0xF
 364              	@ 0 "" 2
 365              		.thumb
 366              		.syntax unified
 367              	.LBE13:
 368              	.LBE12:
 395:Drivers/STM32F7xx_HAL_Driver/Src/stm32f7xx_hal_pwr.c **** 
 396:Drivers/STM32F7xx_HAL_Driver/Src/stm32f7xx_hal_pwr.c ****   /* Ensure that all instructions done before entering SLEEP mode */
 397:Drivers/STM32F7xx_HAL_Driver/Src/stm32f7xx_hal_pwr.c ****   __DSB();
 398:Drivers/STM32F7xx_HAL_Driver/Src/stm32f7xx_hal_pwr.c ****   __ISB();
 399:Drivers/STM32F7xx_HAL_Driver/Src/stm32f7xx_hal_pwr.c **** 
 400:Drivers/STM32F7xx_HAL_Driver/Src/stm32f7xx_hal_pwr.c ****   /* Select SLEEP mode entry -------------------------------------------------*/
 401:Drivers/STM32F7xx_HAL_Driver/Src/stm32f7xx_hal_pwr.c ****   if(SLEEPEntry == PWR_SLEEPENTRY_WFI)
 369              		.loc 1 401 0
 370 0012 0129     		cmp	r1, #1
 371 0014 03D0     		beq	.L33
 402:Drivers/STM32F7xx_HAL_Driver/Src/stm32f7xx_hal_pwr.c ****   {   
 403:Drivers/STM32F7xx_HAL_Driver/Src/stm32f7xx_hal_pwr.c ****     /* Request Wait For Interrupt */
 404:Drivers/STM32F7xx_HAL_Driver/Src/stm32f7xx_hal_pwr.c ****     __WFI();
 405:Drivers/STM32F7xx_HAL_Driver/Src/stm32f7xx_hal_pwr.c ****   }
 406:Drivers/STM32F7xx_HAL_Driver/Src/stm32f7xx_hal_pwr.c ****   else
 407:Drivers/STM32F7xx_HAL_Driver/Src/stm32f7xx_hal_pwr.c ****   {
 408:Drivers/STM32F7xx_HAL_Driver/Src/stm32f7xx_hal_pwr.c ****     /* Request Wait For Event */
 409:Drivers/STM32F7xx_HAL_Driver/Src/stm32f7xx_hal_pwr.c ****     __SEV();
 372              		.loc 1 409 0
 373              		.syntax unified
 374              	@ 409 "Drivers/STM32F7xx_HAL_Driver/Src/stm32f7xx_hal_pwr.c" 1
 375 0016 40BF     		sev
 376              	@ 0 "" 2
 410:Drivers/STM32F7xx_HAL_Driver/Src/stm32f7xx_hal_pwr.c ****     __WFE();
 377              		.loc 1 410 0
 378              	@ 410 "Drivers/STM32F7xx_HAL_Driver/Src/stm32f7xx_hal_pwr.c" 1
 379 0018 20BF     		wfe
 380              	@ 0 "" 2
ARM GAS  /tmp/cc7e9tqS.s 			page 30


 411:Drivers/STM32F7xx_HAL_Driver/Src/stm32f7xx_hal_pwr.c ****     __WFE();
 381              		.loc 1 411 0
 382              	@ 411 "Drivers/STM32F7xx_HAL_Driver/Src/stm32f7xx_hal_pwr.c" 1
 383 001a 20BF     		wfe
 384              	@ 0 "" 2
 385              		.thumb
 386              		.syntax unified
 387 001c 7047     		bx	lr
 388              	.L33:
 404:Drivers/STM32F7xx_HAL_Driver/Src/stm32f7xx_hal_pwr.c ****   }
 389              		.loc 1 404 0
 390              		.syntax unified
 391              	@ 404 "Drivers/STM32F7xx_HAL_Driver/Src/stm32f7xx_hal_pwr.c" 1
 392 001e 30BF     		wfi
 393              	@ 0 "" 2
 394              		.thumb
 395              		.syntax unified
 396 0020 7047     		bx	lr
 397              	.L35:
 398 0022 00BF     		.align	2
 399              	.L34:
 400 0024 00ED00E0 		.word	-536810240
 401              		.cfi_endproc
 402              	.LFE149:
 404              		.section	.text.HAL_PWR_EnterSTOPMode,"ax",%progbits
 405              		.align	1
 406              		.global	HAL_PWR_EnterSTOPMode
 407              		.syntax unified
 408              		.thumb
 409              		.thumb_func
 410              		.fpu fpv5-d16
 412              	HAL_PWR_EnterSTOPMode:
 413              	.LFB150:
 412:Drivers/STM32F7xx_HAL_Driver/Src/stm32f7xx_hal_pwr.c ****   }
 413:Drivers/STM32F7xx_HAL_Driver/Src/stm32f7xx_hal_pwr.c **** }
 414:Drivers/STM32F7xx_HAL_Driver/Src/stm32f7xx_hal_pwr.c **** 
 415:Drivers/STM32F7xx_HAL_Driver/Src/stm32f7xx_hal_pwr.c **** /**
 416:Drivers/STM32F7xx_HAL_Driver/Src/stm32f7xx_hal_pwr.c ****   * @brief Enters Stop mode. 
 417:Drivers/STM32F7xx_HAL_Driver/Src/stm32f7xx_hal_pwr.c ****   * @note In Stop mode, all I/O pins keep the same state as in Run mode.
 418:Drivers/STM32F7xx_HAL_Driver/Src/stm32f7xx_hal_pwr.c ****   * @note When exiting Stop mode by issuing an interrupt or a wakeup event, 
 419:Drivers/STM32F7xx_HAL_Driver/Src/stm32f7xx_hal_pwr.c ****   *         the HSI RC oscillator is selected as system clock.
 420:Drivers/STM32F7xx_HAL_Driver/Src/stm32f7xx_hal_pwr.c ****   * @note When the voltage regulator operates in low power mode, an additional 
 421:Drivers/STM32F7xx_HAL_Driver/Src/stm32f7xx_hal_pwr.c ****   *         startup delay is incurred when waking up from Stop mode. 
 422:Drivers/STM32F7xx_HAL_Driver/Src/stm32f7xx_hal_pwr.c ****   *         By keeping the internal regulator ON during Stop mode, the consumption 
 423:Drivers/STM32F7xx_HAL_Driver/Src/stm32f7xx_hal_pwr.c ****   *         is higher although the startup time is reduced.    
 424:Drivers/STM32F7xx_HAL_Driver/Src/stm32f7xx_hal_pwr.c ****   * @param Regulator Specifies the regulator state in Stop mode.
 425:Drivers/STM32F7xx_HAL_Driver/Src/stm32f7xx_hal_pwr.c ****   *          This parameter can be one of the following values:
 426:Drivers/STM32F7xx_HAL_Driver/Src/stm32f7xx_hal_pwr.c ****   *            @arg PWR_MAINREGULATOR_ON: Stop mode with regulator ON
 427:Drivers/STM32F7xx_HAL_Driver/Src/stm32f7xx_hal_pwr.c ****   *            @arg PWR_LOWPOWERREGULATOR_ON: Stop mode with low power regulator ON
 428:Drivers/STM32F7xx_HAL_Driver/Src/stm32f7xx_hal_pwr.c ****   * @param STOPEntry Specifies if Stop mode in entered with WFI or WFE instruction.
 429:Drivers/STM32F7xx_HAL_Driver/Src/stm32f7xx_hal_pwr.c ****   *          This parameter can be one of the following values:
 430:Drivers/STM32F7xx_HAL_Driver/Src/stm32f7xx_hal_pwr.c ****   *            @arg PWR_STOPENTRY_WFI: Enter Stop mode with WFI instruction
 431:Drivers/STM32F7xx_HAL_Driver/Src/stm32f7xx_hal_pwr.c ****   *            @arg PWR_STOPENTRY_WFE: Enter Stop mode with WFE instruction
 432:Drivers/STM32F7xx_HAL_Driver/Src/stm32f7xx_hal_pwr.c ****   * @retval None
 433:Drivers/STM32F7xx_HAL_Driver/Src/stm32f7xx_hal_pwr.c ****   */
 434:Drivers/STM32F7xx_HAL_Driver/Src/stm32f7xx_hal_pwr.c **** void HAL_PWR_EnterSTOPMode(uint32_t Regulator, uint8_t STOPEntry)
 435:Drivers/STM32F7xx_HAL_Driver/Src/stm32f7xx_hal_pwr.c **** {
ARM GAS  /tmp/cc7e9tqS.s 			page 31


 414              		.loc 1 435 0
 415              		.cfi_startproc
 416              		@ args = 0, pretend = 0, frame = 0
 417              		@ frame_needed = 0, uses_anonymous_args = 0
 418              		@ link register save eliminated.
 419              	.LVL6:
 436:Drivers/STM32F7xx_HAL_Driver/Src/stm32f7xx_hal_pwr.c ****   uint32_t tmpreg = 0;
 437:Drivers/STM32F7xx_HAL_Driver/Src/stm32f7xx_hal_pwr.c **** 
 438:Drivers/STM32F7xx_HAL_Driver/Src/stm32f7xx_hal_pwr.c ****   /* Check the parameters */
 439:Drivers/STM32F7xx_HAL_Driver/Src/stm32f7xx_hal_pwr.c ****   assert_param(IS_PWR_REGULATOR(Regulator));
 440:Drivers/STM32F7xx_HAL_Driver/Src/stm32f7xx_hal_pwr.c ****   assert_param(IS_PWR_STOP_ENTRY(STOPEntry));
 441:Drivers/STM32F7xx_HAL_Driver/Src/stm32f7xx_hal_pwr.c **** 
 442:Drivers/STM32F7xx_HAL_Driver/Src/stm32f7xx_hal_pwr.c ****   /* Select the regulator state in Stop mode ---------------------------------*/
 443:Drivers/STM32F7xx_HAL_Driver/Src/stm32f7xx_hal_pwr.c ****   tmpreg = PWR->CR1;
 420              		.loc 1 443 0
 421 0000 0D4A     		ldr	r2, .L40
 422 0002 1368     		ldr	r3, [r2]
 423              	.LVL7:
 444:Drivers/STM32F7xx_HAL_Driver/Src/stm32f7xx_hal_pwr.c ****   /* Clear PDDS and LPDS bits */
 445:Drivers/STM32F7xx_HAL_Driver/Src/stm32f7xx_hal_pwr.c ****   tmpreg &= (uint32_t)~(PWR_CR1_PDDS | PWR_CR1_LPDS);
 424              		.loc 1 445 0
 425 0004 23F00303 		bic	r3, r3, #3
 426              	.LVL8:
 446:Drivers/STM32F7xx_HAL_Driver/Src/stm32f7xx_hal_pwr.c **** 
 447:Drivers/STM32F7xx_HAL_Driver/Src/stm32f7xx_hal_pwr.c ****   /* Set LPDS, MRLVDS and LPLVDS bits according to Regulator value */
 448:Drivers/STM32F7xx_HAL_Driver/Src/stm32f7xx_hal_pwr.c ****   tmpreg |= Regulator;
 427              		.loc 1 448 0
 428 0008 1843     		orrs	r0, r0, r3
 429              	.LVL9:
 449:Drivers/STM32F7xx_HAL_Driver/Src/stm32f7xx_hal_pwr.c **** 
 450:Drivers/STM32F7xx_HAL_Driver/Src/stm32f7xx_hal_pwr.c ****   /* Store the new value */
 451:Drivers/STM32F7xx_HAL_Driver/Src/stm32f7xx_hal_pwr.c ****   PWR->CR1 = tmpreg;
 430              		.loc 1 451 0
 431 000a 1060     		str	r0, [r2]
 452:Drivers/STM32F7xx_HAL_Driver/Src/stm32f7xx_hal_pwr.c **** 
 453:Drivers/STM32F7xx_HAL_Driver/Src/stm32f7xx_hal_pwr.c ****   /* Set SLEEPDEEP bit of Cortex System Control Register */
 454:Drivers/STM32F7xx_HAL_Driver/Src/stm32f7xx_hal_pwr.c ****   SCB->SCR |= SCB_SCR_SLEEPDEEP_Msk;
 432              		.loc 1 454 0
 433 000c 0B4A     		ldr	r2, .L40+4
 434 000e 1369     		ldr	r3, [r2, #16]
 435 0010 43F00403 		orr	r3, r3, #4
 436 0014 1361     		str	r3, [r2, #16]
 437              	.LBB14:
 438              	.LBB15:
 439              		.loc 2 879 0
 440              		.syntax unified
 441              	@ 879 "Drivers/CMSIS/Include/cmsis_gcc.h" 1
 442 0016 BFF34F8F 		dsb 0xF
 443              	@ 0 "" 2
 444              		.thumb
 445              		.syntax unified
 446              	.LBE15:
 447              	.LBE14:
 448              	.LBB16:
 449              	.LBB17:
 868:Drivers/CMSIS/Include/cmsis_gcc.h **** }
 450              		.loc 2 868 0
ARM GAS  /tmp/cc7e9tqS.s 			page 32


 451              		.syntax unified
 452              	@ 868 "Drivers/CMSIS/Include/cmsis_gcc.h" 1
 453 001a BFF36F8F 		isb 0xF
 454              	@ 0 "" 2
 455              		.thumb
 456              		.syntax unified
 457              	.LBE17:
 458              	.LBE16:
 455:Drivers/STM32F7xx_HAL_Driver/Src/stm32f7xx_hal_pwr.c **** 
 456:Drivers/STM32F7xx_HAL_Driver/Src/stm32f7xx_hal_pwr.c ****   /* Ensure that all instructions done before entering STOP mode */
 457:Drivers/STM32F7xx_HAL_Driver/Src/stm32f7xx_hal_pwr.c ****   __DSB();
 458:Drivers/STM32F7xx_HAL_Driver/Src/stm32f7xx_hal_pwr.c ****   __ISB();
 459:Drivers/STM32F7xx_HAL_Driver/Src/stm32f7xx_hal_pwr.c **** 
 460:Drivers/STM32F7xx_HAL_Driver/Src/stm32f7xx_hal_pwr.c ****   /* Select Stop mode entry --------------------------------------------------*/
 461:Drivers/STM32F7xx_HAL_Driver/Src/stm32f7xx_hal_pwr.c ****   if(STOPEntry == PWR_STOPENTRY_WFI)
 459              		.loc 1 461 0
 460 001e 0129     		cmp	r1, #1
 461 0020 08D0     		beq	.L39
 462:Drivers/STM32F7xx_HAL_Driver/Src/stm32f7xx_hal_pwr.c ****   {   
 463:Drivers/STM32F7xx_HAL_Driver/Src/stm32f7xx_hal_pwr.c ****     /* Request Wait For Interrupt */
 464:Drivers/STM32F7xx_HAL_Driver/Src/stm32f7xx_hal_pwr.c ****     __WFI();
 465:Drivers/STM32F7xx_HAL_Driver/Src/stm32f7xx_hal_pwr.c ****   }
 466:Drivers/STM32F7xx_HAL_Driver/Src/stm32f7xx_hal_pwr.c ****   else
 467:Drivers/STM32F7xx_HAL_Driver/Src/stm32f7xx_hal_pwr.c ****   {
 468:Drivers/STM32F7xx_HAL_Driver/Src/stm32f7xx_hal_pwr.c ****     /* Request Wait For Event */
 469:Drivers/STM32F7xx_HAL_Driver/Src/stm32f7xx_hal_pwr.c ****     __SEV();
 462              		.loc 1 469 0
 463              		.syntax unified
 464              	@ 469 "Drivers/STM32F7xx_HAL_Driver/Src/stm32f7xx_hal_pwr.c" 1
 465 0022 40BF     		sev
 466              	@ 0 "" 2
 470:Drivers/STM32F7xx_HAL_Driver/Src/stm32f7xx_hal_pwr.c ****     __WFE();
 467              		.loc 1 470 0
 468              	@ 470 "Drivers/STM32F7xx_HAL_Driver/Src/stm32f7xx_hal_pwr.c" 1
 469 0024 20BF     		wfe
 470              	@ 0 "" 2
 471:Drivers/STM32F7xx_HAL_Driver/Src/stm32f7xx_hal_pwr.c ****     __WFE();
 471              		.loc 1 471 0
 472              	@ 471 "Drivers/STM32F7xx_HAL_Driver/Src/stm32f7xx_hal_pwr.c" 1
 473 0026 20BF     		wfe
 474              	@ 0 "" 2
 475              		.thumb
 476              		.syntax unified
 477              	.L38:
 472:Drivers/STM32F7xx_HAL_Driver/Src/stm32f7xx_hal_pwr.c ****   }
 473:Drivers/STM32F7xx_HAL_Driver/Src/stm32f7xx_hal_pwr.c ****   /* Reset SLEEPDEEP bit of Cortex System Control Register */
 474:Drivers/STM32F7xx_HAL_Driver/Src/stm32f7xx_hal_pwr.c ****   SCB->SCR &= (uint32_t)~((uint32_t)SCB_SCR_SLEEPDEEP_Msk);  
 478              		.loc 1 474 0
 479 0028 044A     		ldr	r2, .L40+4
 480 002a 1369     		ldr	r3, [r2, #16]
 481 002c 23F00403 		bic	r3, r3, #4
 482 0030 1361     		str	r3, [r2, #16]
 483 0032 7047     		bx	lr
 484              	.L39:
 464:Drivers/STM32F7xx_HAL_Driver/Src/stm32f7xx_hal_pwr.c ****   }
 485              		.loc 1 464 0
 486              		.syntax unified
ARM GAS  /tmp/cc7e9tqS.s 			page 33


 487              	@ 464 "Drivers/STM32F7xx_HAL_Driver/Src/stm32f7xx_hal_pwr.c" 1
 488 0034 30BF     		wfi
 489              	@ 0 "" 2
 490              		.thumb
 491              		.syntax unified
 492 0036 F7E7     		b	.L38
 493              	.L41:
 494              		.align	2
 495              	.L40:
 496 0038 00700040 		.word	1073770496
 497 003c 00ED00E0 		.word	-536810240
 498              		.cfi_endproc
 499              	.LFE150:
 501              		.section	.text.HAL_PWR_EnterSTANDBYMode,"ax",%progbits
 502              		.align	1
 503              		.global	HAL_PWR_EnterSTANDBYMode
 504              		.syntax unified
 505              		.thumb
 506              		.thumb_func
 507              		.fpu fpv5-d16
 509              	HAL_PWR_EnterSTANDBYMode:
 510              	.LFB151:
 475:Drivers/STM32F7xx_HAL_Driver/Src/stm32f7xx_hal_pwr.c **** }
 476:Drivers/STM32F7xx_HAL_Driver/Src/stm32f7xx_hal_pwr.c **** 
 477:Drivers/STM32F7xx_HAL_Driver/Src/stm32f7xx_hal_pwr.c **** /**
 478:Drivers/STM32F7xx_HAL_Driver/Src/stm32f7xx_hal_pwr.c ****   * @brief Enters Standby mode.
 479:Drivers/STM32F7xx_HAL_Driver/Src/stm32f7xx_hal_pwr.c ****   * @note In Standby mode, all I/O pins are high impedance except for:
 480:Drivers/STM32F7xx_HAL_Driver/Src/stm32f7xx_hal_pwr.c ****   *          - Reset pad (still available) 
 481:Drivers/STM32F7xx_HAL_Driver/Src/stm32f7xx_hal_pwr.c ****   *          - RTC_AF1 pin (PC13) if configured for tamper, time-stamp, RTC 
 482:Drivers/STM32F7xx_HAL_Driver/Src/stm32f7xx_hal_pwr.c ****   *            Alarm out, or RTC clock calibration out.
 483:Drivers/STM32F7xx_HAL_Driver/Src/stm32f7xx_hal_pwr.c ****   *          - RTC_AF2 pin (PI8) if configured for tamper or time-stamp.  
 484:Drivers/STM32F7xx_HAL_Driver/Src/stm32f7xx_hal_pwr.c ****   *          - WKUP pins if enabled.       
 485:Drivers/STM32F7xx_HAL_Driver/Src/stm32f7xx_hal_pwr.c ****   * @retval None
 486:Drivers/STM32F7xx_HAL_Driver/Src/stm32f7xx_hal_pwr.c ****   */
 487:Drivers/STM32F7xx_HAL_Driver/Src/stm32f7xx_hal_pwr.c **** void HAL_PWR_EnterSTANDBYMode(void)
 488:Drivers/STM32F7xx_HAL_Driver/Src/stm32f7xx_hal_pwr.c **** {
 511              		.loc 1 488 0
 512              		.cfi_startproc
 513              		@ args = 0, pretend = 0, frame = 0
 514              		@ frame_needed = 0, uses_anonymous_args = 0
 515              		@ link register save eliminated.
 489:Drivers/STM32F7xx_HAL_Driver/Src/stm32f7xx_hal_pwr.c ****   /* Select Standby mode */
 490:Drivers/STM32F7xx_HAL_Driver/Src/stm32f7xx_hal_pwr.c ****   PWR->CR1 |= PWR_CR1_PDDS;
 516              		.loc 1 490 0
 517 0000 054A     		ldr	r2, .L43
 518 0002 1368     		ldr	r3, [r2]
 519 0004 43F00203 		orr	r3, r3, #2
 520 0008 1360     		str	r3, [r2]
 491:Drivers/STM32F7xx_HAL_Driver/Src/stm32f7xx_hal_pwr.c ****   
 492:Drivers/STM32F7xx_HAL_Driver/Src/stm32f7xx_hal_pwr.c ****   /* Set SLEEPDEEP bit of Cortex System Control Register */
 493:Drivers/STM32F7xx_HAL_Driver/Src/stm32f7xx_hal_pwr.c ****   SCB->SCR |= SCB_SCR_SLEEPDEEP_Msk;
 521              		.loc 1 493 0
 522 000a 044A     		ldr	r2, .L43+4
 523 000c 1369     		ldr	r3, [r2, #16]
 524 000e 43F00403 		orr	r3, r3, #4
 525 0012 1361     		str	r3, [r2, #16]
 494:Drivers/STM32F7xx_HAL_Driver/Src/stm32f7xx_hal_pwr.c ****   
ARM GAS  /tmp/cc7e9tqS.s 			page 34


 495:Drivers/STM32F7xx_HAL_Driver/Src/stm32f7xx_hal_pwr.c ****   /* This option is used to ensure that store operations are completed */
 496:Drivers/STM32F7xx_HAL_Driver/Src/stm32f7xx_hal_pwr.c **** #if defined ( __CC_ARM)
 497:Drivers/STM32F7xx_HAL_Driver/Src/stm32f7xx_hal_pwr.c ****   __force_stores();
 498:Drivers/STM32F7xx_HAL_Driver/Src/stm32f7xx_hal_pwr.c **** #endif
 499:Drivers/STM32F7xx_HAL_Driver/Src/stm32f7xx_hal_pwr.c ****   /* Request Wait For Interrupt */
 500:Drivers/STM32F7xx_HAL_Driver/Src/stm32f7xx_hal_pwr.c ****   __WFI();
 526              		.loc 1 500 0
 527              		.syntax unified
 528              	@ 500 "Drivers/STM32F7xx_HAL_Driver/Src/stm32f7xx_hal_pwr.c" 1
 529 0014 30BF     		wfi
 530              	@ 0 "" 2
 531              		.thumb
 532              		.syntax unified
 533 0016 7047     		bx	lr
 534              	.L44:
 535              		.align	2
 536              	.L43:
 537 0018 00700040 		.word	1073770496
 538 001c 00ED00E0 		.word	-536810240
 539              		.cfi_endproc
 540              	.LFE151:
 542              		.section	.text.HAL_PWR_PVDCallback,"ax",%progbits
 543              		.align	1
 544              		.weak	HAL_PWR_PVDCallback
 545              		.syntax unified
 546              		.thumb
 547              		.thumb_func
 548              		.fpu fpv5-d16
 550              	HAL_PWR_PVDCallback:
 551              	.LFB153:
 501:Drivers/STM32F7xx_HAL_Driver/Src/stm32f7xx_hal_pwr.c **** }
 502:Drivers/STM32F7xx_HAL_Driver/Src/stm32f7xx_hal_pwr.c **** 
 503:Drivers/STM32F7xx_HAL_Driver/Src/stm32f7xx_hal_pwr.c **** /**
 504:Drivers/STM32F7xx_HAL_Driver/Src/stm32f7xx_hal_pwr.c ****   * @brief This function handles the PWR PVD interrupt request.
 505:Drivers/STM32F7xx_HAL_Driver/Src/stm32f7xx_hal_pwr.c ****   * @note This API should be called under the PVD_IRQHandler().
 506:Drivers/STM32F7xx_HAL_Driver/Src/stm32f7xx_hal_pwr.c ****   * @retval None
 507:Drivers/STM32F7xx_HAL_Driver/Src/stm32f7xx_hal_pwr.c ****   */
 508:Drivers/STM32F7xx_HAL_Driver/Src/stm32f7xx_hal_pwr.c **** void HAL_PWR_PVD_IRQHandler(void)
 509:Drivers/STM32F7xx_HAL_Driver/Src/stm32f7xx_hal_pwr.c **** {
 510:Drivers/STM32F7xx_HAL_Driver/Src/stm32f7xx_hal_pwr.c ****   /* Check PWR Exti flag */
 511:Drivers/STM32F7xx_HAL_Driver/Src/stm32f7xx_hal_pwr.c ****   if(__HAL_PWR_PVD_EXTI_GET_FLAG() != RESET)
 512:Drivers/STM32F7xx_HAL_Driver/Src/stm32f7xx_hal_pwr.c ****   {
 513:Drivers/STM32F7xx_HAL_Driver/Src/stm32f7xx_hal_pwr.c ****     /* PWR PVD interrupt user callback */
 514:Drivers/STM32F7xx_HAL_Driver/Src/stm32f7xx_hal_pwr.c ****     HAL_PWR_PVDCallback();
 515:Drivers/STM32F7xx_HAL_Driver/Src/stm32f7xx_hal_pwr.c ****     
 516:Drivers/STM32F7xx_HAL_Driver/Src/stm32f7xx_hal_pwr.c ****     /* Clear PWR Exti pending bit */
 517:Drivers/STM32F7xx_HAL_Driver/Src/stm32f7xx_hal_pwr.c ****     __HAL_PWR_PVD_EXTI_CLEAR_FLAG();
 518:Drivers/STM32F7xx_HAL_Driver/Src/stm32f7xx_hal_pwr.c ****   }
 519:Drivers/STM32F7xx_HAL_Driver/Src/stm32f7xx_hal_pwr.c **** }
 520:Drivers/STM32F7xx_HAL_Driver/Src/stm32f7xx_hal_pwr.c **** 
 521:Drivers/STM32F7xx_HAL_Driver/Src/stm32f7xx_hal_pwr.c **** /**
 522:Drivers/STM32F7xx_HAL_Driver/Src/stm32f7xx_hal_pwr.c ****   * @brief  PWR PVD interrupt callback
 523:Drivers/STM32F7xx_HAL_Driver/Src/stm32f7xx_hal_pwr.c ****   * @retval None
 524:Drivers/STM32F7xx_HAL_Driver/Src/stm32f7xx_hal_pwr.c ****   */
 525:Drivers/STM32F7xx_HAL_Driver/Src/stm32f7xx_hal_pwr.c **** __weak void HAL_PWR_PVDCallback(void)
 526:Drivers/STM32F7xx_HAL_Driver/Src/stm32f7xx_hal_pwr.c **** {
 552              		.loc 1 526 0
ARM GAS  /tmp/cc7e9tqS.s 			page 35


 553              		.cfi_startproc
 554              		@ args = 0, pretend = 0, frame = 0
 555              		@ frame_needed = 0, uses_anonymous_args = 0
 556              		@ link register save eliminated.
 557 0000 7047     		bx	lr
 558              		.cfi_endproc
 559              	.LFE153:
 561              		.section	.text.HAL_PWR_PVD_IRQHandler,"ax",%progbits
 562              		.align	1
 563              		.global	HAL_PWR_PVD_IRQHandler
 564              		.syntax unified
 565              		.thumb
 566              		.thumb_func
 567              		.fpu fpv5-d16
 569              	HAL_PWR_PVD_IRQHandler:
 570              	.LFB152:
 509:Drivers/STM32F7xx_HAL_Driver/Src/stm32f7xx_hal_pwr.c ****   /* Check PWR Exti flag */
 571              		.loc 1 509 0
 572              		.cfi_startproc
 573              		@ args = 0, pretend = 0, frame = 0
 574              		@ frame_needed = 0, uses_anonymous_args = 0
 509:Drivers/STM32F7xx_HAL_Driver/Src/stm32f7xx_hal_pwr.c ****   /* Check PWR Exti flag */
 575              		.loc 1 509 0
 576 0000 08B5     		push	{r3, lr}
 577              	.LCFI2:
 578              		.cfi_def_cfa_offset 8
 579              		.cfi_offset 3, -8
 580              		.cfi_offset 14, -4
 511:Drivers/STM32F7xx_HAL_Driver/Src/stm32f7xx_hal_pwr.c ****   {
 581              		.loc 1 511 0
 582 0002 064B     		ldr	r3, .L50
 583 0004 5B69     		ldr	r3, [r3, #20]
 584 0006 13F4803F 		tst	r3, #65536
 585 000a 00D1     		bne	.L49
 586              	.L46:
 587 000c 08BD     		pop	{r3, pc}
 588              	.L49:
 514:Drivers/STM32F7xx_HAL_Driver/Src/stm32f7xx_hal_pwr.c ****     
 589              		.loc 1 514 0
 590 000e FFF7FEFF 		bl	HAL_PWR_PVDCallback
 591              	.LVL10:
 517:Drivers/STM32F7xx_HAL_Driver/Src/stm32f7xx_hal_pwr.c ****   }
 592              		.loc 1 517 0
 593 0012 4FF48032 		mov	r2, #65536
 594 0016 014B     		ldr	r3, .L50
 595 0018 5A61     		str	r2, [r3, #20]
 519:Drivers/STM32F7xx_HAL_Driver/Src/stm32f7xx_hal_pwr.c **** 
 596              		.loc 1 519 0
 597 001a F7E7     		b	.L46
 598              	.L51:
 599              		.align	2
 600              	.L50:
 601 001c 003C0140 		.word	1073822720
 602              		.cfi_endproc
 603              	.LFE152:
 605              		.section	.text.HAL_PWR_EnableSleepOnExit,"ax",%progbits
 606              		.align	1
ARM GAS  /tmp/cc7e9tqS.s 			page 36


 607              		.global	HAL_PWR_EnableSleepOnExit
 608              		.syntax unified
 609              		.thumb
 610              		.thumb_func
 611              		.fpu fpv5-d16
 613              	HAL_PWR_EnableSleepOnExit:
 614              	.LFB154:
 527:Drivers/STM32F7xx_HAL_Driver/Src/stm32f7xx_hal_pwr.c ****   /* NOTE : This function Should not be modified, when the callback is needed,
 528:Drivers/STM32F7xx_HAL_Driver/Src/stm32f7xx_hal_pwr.c ****             the HAL_PWR_PVDCallback could be implemented in the user file
 529:Drivers/STM32F7xx_HAL_Driver/Src/stm32f7xx_hal_pwr.c ****    */ 
 530:Drivers/STM32F7xx_HAL_Driver/Src/stm32f7xx_hal_pwr.c **** }
 531:Drivers/STM32F7xx_HAL_Driver/Src/stm32f7xx_hal_pwr.c **** 
 532:Drivers/STM32F7xx_HAL_Driver/Src/stm32f7xx_hal_pwr.c **** /**
 533:Drivers/STM32F7xx_HAL_Driver/Src/stm32f7xx_hal_pwr.c ****   * @brief Indicates Sleep-On-Exit when returning from Handler mode to Thread mode. 
 534:Drivers/STM32F7xx_HAL_Driver/Src/stm32f7xx_hal_pwr.c ****   * @note Set SLEEPONEXIT bit of SCR register. When this bit is set, the processor 
 535:Drivers/STM32F7xx_HAL_Driver/Src/stm32f7xx_hal_pwr.c ****   *       re-enters SLEEP mode when an interruption handling is over.
 536:Drivers/STM32F7xx_HAL_Driver/Src/stm32f7xx_hal_pwr.c ****   *       Setting this bit is useful when the processor is expected to run only on
 537:Drivers/STM32F7xx_HAL_Driver/Src/stm32f7xx_hal_pwr.c ****   *       interruptions handling.         
 538:Drivers/STM32F7xx_HAL_Driver/Src/stm32f7xx_hal_pwr.c ****   * @retval None
 539:Drivers/STM32F7xx_HAL_Driver/Src/stm32f7xx_hal_pwr.c ****   */
 540:Drivers/STM32F7xx_HAL_Driver/Src/stm32f7xx_hal_pwr.c **** void HAL_PWR_EnableSleepOnExit(void)
 541:Drivers/STM32F7xx_HAL_Driver/Src/stm32f7xx_hal_pwr.c **** {
 615              		.loc 1 541 0
 616              		.cfi_startproc
 617              		@ args = 0, pretend = 0, frame = 0
 618              		@ frame_needed = 0, uses_anonymous_args = 0
 619              		@ link register save eliminated.
 542:Drivers/STM32F7xx_HAL_Driver/Src/stm32f7xx_hal_pwr.c ****   /* Set SLEEPONEXIT bit of Cortex System Control Register */
 543:Drivers/STM32F7xx_HAL_Driver/Src/stm32f7xx_hal_pwr.c ****   SET_BIT(SCB->SCR, ((uint32_t)SCB_SCR_SLEEPONEXIT_Msk));
 620              		.loc 1 543 0
 621 0000 024A     		ldr	r2, .L53
 622 0002 1369     		ldr	r3, [r2, #16]
 623 0004 43F00203 		orr	r3, r3, #2
 624 0008 1361     		str	r3, [r2, #16]
 625 000a 7047     		bx	lr
 626              	.L54:
 627              		.align	2
 628              	.L53:
 629 000c 00ED00E0 		.word	-536810240
 630              		.cfi_endproc
 631              	.LFE154:
 633              		.section	.text.HAL_PWR_DisableSleepOnExit,"ax",%progbits
 634              		.align	1
 635              		.global	HAL_PWR_DisableSleepOnExit
 636              		.syntax unified
 637              		.thumb
 638              		.thumb_func
 639              		.fpu fpv5-d16
 641              	HAL_PWR_DisableSleepOnExit:
 642              	.LFB155:
 544:Drivers/STM32F7xx_HAL_Driver/Src/stm32f7xx_hal_pwr.c **** }
 545:Drivers/STM32F7xx_HAL_Driver/Src/stm32f7xx_hal_pwr.c **** 
 546:Drivers/STM32F7xx_HAL_Driver/Src/stm32f7xx_hal_pwr.c **** /**
 547:Drivers/STM32F7xx_HAL_Driver/Src/stm32f7xx_hal_pwr.c ****   * @brief Disables Sleep-On-Exit feature when returning from Handler mode to Thread mode. 
 548:Drivers/STM32F7xx_HAL_Driver/Src/stm32f7xx_hal_pwr.c ****   * @note Clears SLEEPONEXIT bit of SCR register. When this bit is set, the processor 
 549:Drivers/STM32F7xx_HAL_Driver/Src/stm32f7xx_hal_pwr.c ****   *       re-enters SLEEP mode when an interruption handling is over.          
 550:Drivers/STM32F7xx_HAL_Driver/Src/stm32f7xx_hal_pwr.c ****   * @retval None
ARM GAS  /tmp/cc7e9tqS.s 			page 37


 551:Drivers/STM32F7xx_HAL_Driver/Src/stm32f7xx_hal_pwr.c ****   */
 552:Drivers/STM32F7xx_HAL_Driver/Src/stm32f7xx_hal_pwr.c **** void HAL_PWR_DisableSleepOnExit(void)
 553:Drivers/STM32F7xx_HAL_Driver/Src/stm32f7xx_hal_pwr.c **** {
 643              		.loc 1 553 0
 644              		.cfi_startproc
 645              		@ args = 0, pretend = 0, frame = 0
 646              		@ frame_needed = 0, uses_anonymous_args = 0
 647              		@ link register save eliminated.
 554:Drivers/STM32F7xx_HAL_Driver/Src/stm32f7xx_hal_pwr.c ****   /* Clear SLEEPONEXIT bit of Cortex System Control Register */
 555:Drivers/STM32F7xx_HAL_Driver/Src/stm32f7xx_hal_pwr.c ****   CLEAR_BIT(SCB->SCR, ((uint32_t)SCB_SCR_SLEEPONEXIT_Msk));
 648              		.loc 1 555 0
 649 0000 024A     		ldr	r2, .L56
 650 0002 1369     		ldr	r3, [r2, #16]
 651 0004 23F00203 		bic	r3, r3, #2
 652 0008 1361     		str	r3, [r2, #16]
 653 000a 7047     		bx	lr
 654              	.L57:
 655              		.align	2
 656              	.L56:
 657 000c 00ED00E0 		.word	-536810240
 658              		.cfi_endproc
 659              	.LFE155:
 661              		.section	.text.HAL_PWR_EnableSEVOnPend,"ax",%progbits
 662              		.align	1
 663              		.global	HAL_PWR_EnableSEVOnPend
 664              		.syntax unified
 665              		.thumb
 666              		.thumb_func
 667              		.fpu fpv5-d16
 669              	HAL_PWR_EnableSEVOnPend:
 670              	.LFB156:
 556:Drivers/STM32F7xx_HAL_Driver/Src/stm32f7xx_hal_pwr.c **** }
 557:Drivers/STM32F7xx_HAL_Driver/Src/stm32f7xx_hal_pwr.c **** 
 558:Drivers/STM32F7xx_HAL_Driver/Src/stm32f7xx_hal_pwr.c **** /**
 559:Drivers/STM32F7xx_HAL_Driver/Src/stm32f7xx_hal_pwr.c ****   * @brief Enables CORTEX M4 SEVONPEND bit. 
 560:Drivers/STM32F7xx_HAL_Driver/Src/stm32f7xx_hal_pwr.c ****   * @note Sets SEVONPEND bit of SCR register. When this bit is set, this causes 
 561:Drivers/STM32F7xx_HAL_Driver/Src/stm32f7xx_hal_pwr.c ****   *       WFE to wake up when an interrupt moves from inactive to pended.
 562:Drivers/STM32F7xx_HAL_Driver/Src/stm32f7xx_hal_pwr.c ****   * @retval None
 563:Drivers/STM32F7xx_HAL_Driver/Src/stm32f7xx_hal_pwr.c ****   */
 564:Drivers/STM32F7xx_HAL_Driver/Src/stm32f7xx_hal_pwr.c **** void HAL_PWR_EnableSEVOnPend(void)
 565:Drivers/STM32F7xx_HAL_Driver/Src/stm32f7xx_hal_pwr.c **** {
 671              		.loc 1 565 0
 672              		.cfi_startproc
 673              		@ args = 0, pretend = 0, frame = 0
 674              		@ frame_needed = 0, uses_anonymous_args = 0
 675              		@ link register save eliminated.
 566:Drivers/STM32F7xx_HAL_Driver/Src/stm32f7xx_hal_pwr.c ****   /* Set SEVONPEND bit of Cortex System Control Register */
 567:Drivers/STM32F7xx_HAL_Driver/Src/stm32f7xx_hal_pwr.c ****   SET_BIT(SCB->SCR, ((uint32_t)SCB_SCR_SEVONPEND_Msk));
 676              		.loc 1 567 0
 677 0000 024A     		ldr	r2, .L59
 678 0002 1369     		ldr	r3, [r2, #16]
 679 0004 43F01003 		orr	r3, r3, #16
 680 0008 1361     		str	r3, [r2, #16]
 681 000a 7047     		bx	lr
 682              	.L60:
 683              		.align	2
 684              	.L59:
ARM GAS  /tmp/cc7e9tqS.s 			page 38


 685 000c 00ED00E0 		.word	-536810240
 686              		.cfi_endproc
 687              	.LFE156:
 689              		.section	.text.HAL_PWR_DisableSEVOnPend,"ax",%progbits
 690              		.align	1
 691              		.global	HAL_PWR_DisableSEVOnPend
 692              		.syntax unified
 693              		.thumb
 694              		.thumb_func
 695              		.fpu fpv5-d16
 697              	HAL_PWR_DisableSEVOnPend:
 698              	.LFB157:
 568:Drivers/STM32F7xx_HAL_Driver/Src/stm32f7xx_hal_pwr.c **** }
 569:Drivers/STM32F7xx_HAL_Driver/Src/stm32f7xx_hal_pwr.c **** 
 570:Drivers/STM32F7xx_HAL_Driver/Src/stm32f7xx_hal_pwr.c **** /**
 571:Drivers/STM32F7xx_HAL_Driver/Src/stm32f7xx_hal_pwr.c ****   * @brief Disables CORTEX M4 SEVONPEND bit. 
 572:Drivers/STM32F7xx_HAL_Driver/Src/stm32f7xx_hal_pwr.c ****   * @note Clears SEVONPEND bit of SCR register. When this bit is set, this causes 
 573:Drivers/STM32F7xx_HAL_Driver/Src/stm32f7xx_hal_pwr.c ****   *       WFE to wake up when an interrupt moves from inactive to pended.         
 574:Drivers/STM32F7xx_HAL_Driver/Src/stm32f7xx_hal_pwr.c ****   * @retval None
 575:Drivers/STM32F7xx_HAL_Driver/Src/stm32f7xx_hal_pwr.c ****   */
 576:Drivers/STM32F7xx_HAL_Driver/Src/stm32f7xx_hal_pwr.c **** void HAL_PWR_DisableSEVOnPend(void)
 577:Drivers/STM32F7xx_HAL_Driver/Src/stm32f7xx_hal_pwr.c **** {
 699              		.loc 1 577 0
 700              		.cfi_startproc
 701              		@ args = 0, pretend = 0, frame = 0
 702              		@ frame_needed = 0, uses_anonymous_args = 0
 703              		@ link register save eliminated.
 578:Drivers/STM32F7xx_HAL_Driver/Src/stm32f7xx_hal_pwr.c ****   /* Clear SEVONPEND bit of Cortex System Control Register */
 579:Drivers/STM32F7xx_HAL_Driver/Src/stm32f7xx_hal_pwr.c ****   CLEAR_BIT(SCB->SCR, ((uint32_t)SCB_SCR_SEVONPEND_Msk));
 704              		.loc 1 579 0
 705 0000 024A     		ldr	r2, .L62
 706 0002 1369     		ldr	r3, [r2, #16]
 707 0004 23F01003 		bic	r3, r3, #16
 708 0008 1361     		str	r3, [r2, #16]
 709 000a 7047     		bx	lr
 710              	.L63:
 711              		.align	2
 712              	.L62:
 713 000c 00ED00E0 		.word	-536810240
 714              		.cfi_endproc
 715              	.LFE157:
 717              		.text
 718              	.Letext0:
 719              		.file 3 "/usr/include/newlib/machine/_default_types.h"
 720              		.file 4 "/usr/include/newlib/sys/_stdint.h"
 721              		.file 5 "Drivers/CMSIS/Include/core_cm7.h"
 722              		.file 6 "Drivers/CMSIS/Device/ST/STM32F7xx/Include/system_stm32f7xx.h"
 723              		.file 7 "Drivers/CMSIS/Device/ST/STM32F7xx/Include/stm32f767xx.h"
 724              		.file 8 "Drivers/STM32F7xx_HAL_Driver/Inc/stm32f7xx_hal_pwr.h"
 725              		.file 9 "Drivers/CMSIS/Device/ST/STM32F7xx/Include/stm32f7xx.h"
 726              		.file 10 "Drivers/STM32F7xx_HAL_Driver/Inc/stm32f7xx_hal.h"
ARM GAS  /tmp/cc7e9tqS.s 			page 39

