ARM GAS  /tmp/cc4atl9r.s 			page 1


   1              		.cpu cortex-m7
   2              		.eabi_attribute 28, 1
   3              		.eabi_attribute 20, 1
   4              		.eabi_attribute 21, 1
   5              		.eabi_attribute 23, 3
   6              		.eabi_attribute 24, 1
   7              		.eabi_attribute 25, 1
   8              		.eabi_attribute 26, 1
   9              		.eabi_attribute 30, 1
  10              		.eabi_attribute 34, 1
  11              		.eabi_attribute 18, 4
  12              		.file	"stm32f7xx_it.c"
  13              		.text
  14              	.Ltext0:
  15              		.cfi_sections	.debug_frame
  16              		.section	.text.NMI_Handler,"ax",%progbits
  17              		.align	1
  18              		.global	NMI_Handler
  19              		.syntax unified
  20              		.thumb
  21              		.thumb_func
  22              		.fpu fpv5-d16
  24              	NMI_Handler:
  25              	.LFB141:
  26              		.file 1 "Src/stm32f7xx_it.c"
   1:Src/stm32f7xx_it.c **** /* USER CODE BEGIN Header */
   2:Src/stm32f7xx_it.c **** /**
   3:Src/stm32f7xx_it.c ****   ******************************************************************************
   4:Src/stm32f7xx_it.c ****   * @file    stm32f7xx_it.c
   5:Src/stm32f7xx_it.c ****   * @brief   Interrupt Service Routines.
   6:Src/stm32f7xx_it.c ****   ******************************************************************************
   7:Src/stm32f7xx_it.c ****   * @attention
   8:Src/stm32f7xx_it.c ****   *
   9:Src/stm32f7xx_it.c ****   * <h2><center>&copy; Copyright (c) 2019 STMicroelectronics.
  10:Src/stm32f7xx_it.c ****   * All rights reserved.</center></h2>
  11:Src/stm32f7xx_it.c ****   *
  12:Src/stm32f7xx_it.c ****   * This software component is licensed by ST under BSD 3-Clause license,
  13:Src/stm32f7xx_it.c ****   * the "License"; You may not use this file except in compliance with the
  14:Src/stm32f7xx_it.c ****   * License. You may obtain a copy of the License at:
  15:Src/stm32f7xx_it.c ****   *                        opensource.org/licenses/BSD-3-Clause
  16:Src/stm32f7xx_it.c ****   *
  17:Src/stm32f7xx_it.c ****   ******************************************************************************
  18:Src/stm32f7xx_it.c ****   */
  19:Src/stm32f7xx_it.c **** /* USER CODE END Header */
  20:Src/stm32f7xx_it.c **** 
  21:Src/stm32f7xx_it.c **** /* Includes ------------------------------------------------------------------*/
  22:Src/stm32f7xx_it.c **** #include "main.h"
  23:Src/stm32f7xx_it.c **** #include "stm32f7xx_it.h"
  24:Src/stm32f7xx_it.c **** /* Private includes ----------------------------------------------------------*/
  25:Src/stm32f7xx_it.c **** /* USER CODE BEGIN Includes */
  26:Src/stm32f7xx_it.c **** /* USER CODE END Includes */
  27:Src/stm32f7xx_it.c ****   
  28:Src/stm32f7xx_it.c **** /* Private typedef -----------------------------------------------------------*/
  29:Src/stm32f7xx_it.c **** /* USER CODE BEGIN TD */
  30:Src/stm32f7xx_it.c **** 
  31:Src/stm32f7xx_it.c **** /* USER CODE END TD */
  32:Src/stm32f7xx_it.c **** 
ARM GAS  /tmp/cc4atl9r.s 			page 2


  33:Src/stm32f7xx_it.c **** /* Private define ------------------------------------------------------------*/
  34:Src/stm32f7xx_it.c **** /* USER CODE BEGIN PD */
  35:Src/stm32f7xx_it.c ****  
  36:Src/stm32f7xx_it.c **** /* USER CODE END PD */
  37:Src/stm32f7xx_it.c **** 
  38:Src/stm32f7xx_it.c **** /* Private macro -------------------------------------------------------------*/
  39:Src/stm32f7xx_it.c **** /* USER CODE BEGIN PM */
  40:Src/stm32f7xx_it.c **** 
  41:Src/stm32f7xx_it.c **** /* USER CODE END PM */
  42:Src/stm32f7xx_it.c **** 
  43:Src/stm32f7xx_it.c **** /* Private variables ---------------------------------------------------------*/
  44:Src/stm32f7xx_it.c **** /* USER CODE BEGIN PV */
  45:Src/stm32f7xx_it.c **** 
  46:Src/stm32f7xx_it.c **** /* USER CODE END PV */
  47:Src/stm32f7xx_it.c **** 
  48:Src/stm32f7xx_it.c **** /* Private function prototypes -----------------------------------------------*/
  49:Src/stm32f7xx_it.c **** /* USER CODE BEGIN PFP */
  50:Src/stm32f7xx_it.c **** 
  51:Src/stm32f7xx_it.c **** /* USER CODE END PFP */
  52:Src/stm32f7xx_it.c **** 
  53:Src/stm32f7xx_it.c **** /* Private user code ---------------------------------------------------------*/
  54:Src/stm32f7xx_it.c **** /* USER CODE BEGIN 0 */
  55:Src/stm32f7xx_it.c **** 
  56:Src/stm32f7xx_it.c **** /* USER CODE END 0 */
  57:Src/stm32f7xx_it.c **** 
  58:Src/stm32f7xx_it.c **** /* External variables --------------------------------------------------------*/
  59:Src/stm32f7xx_it.c **** extern DMA_HandleTypeDef hdma_adc1;
  60:Src/stm32f7xx_it.c **** extern CAN_HandleTypeDef hcan1;
  61:Src/stm32f7xx_it.c **** /* USER CODE BEGIN EV */
  62:Src/stm32f7xx_it.c **** 
  63:Src/stm32f7xx_it.c **** /* USER CODE END EV */
  64:Src/stm32f7xx_it.c **** 
  65:Src/stm32f7xx_it.c **** /******************************************************************************/
  66:Src/stm32f7xx_it.c **** /*           Cortex-M7 Processor Interruption and Exception Handlers          */ 
  67:Src/stm32f7xx_it.c **** /******************************************************************************/
  68:Src/stm32f7xx_it.c **** /**
  69:Src/stm32f7xx_it.c ****   * @brief This function handles Non maskable interrupt.
  70:Src/stm32f7xx_it.c ****   */
  71:Src/stm32f7xx_it.c **** void NMI_Handler(void)
  72:Src/stm32f7xx_it.c **** {
  27              		.loc 1 72 0
  28              		.cfi_startproc
  29              		@ args = 0, pretend = 0, frame = 0
  30              		@ frame_needed = 0, uses_anonymous_args = 0
  31              		@ link register save eliminated.
  32 0000 7047     		bx	lr
  33              		.cfi_endproc
  34              	.LFE141:
  36              		.section	.text.HardFault_Handler,"ax",%progbits
  37              		.align	1
  38              		.global	HardFault_Handler
  39              		.syntax unified
  40              		.thumb
  41              		.thumb_func
  42              		.fpu fpv5-d16
  44              	HardFault_Handler:
  45              	.LFB142:
ARM GAS  /tmp/cc4atl9r.s 			page 3


  73:Src/stm32f7xx_it.c ****   /* USER CODE BEGIN NonMaskableInt_IRQn 0 */
  74:Src/stm32f7xx_it.c **** 
  75:Src/stm32f7xx_it.c ****   /* USER CODE END NonMaskableInt_IRQn 0 */
  76:Src/stm32f7xx_it.c ****   /* USER CODE BEGIN NonMaskableInt_IRQn 1 */
  77:Src/stm32f7xx_it.c **** 
  78:Src/stm32f7xx_it.c ****   /* USER CODE END NonMaskableInt_IRQn 1 */
  79:Src/stm32f7xx_it.c **** }
  80:Src/stm32f7xx_it.c **** 
  81:Src/stm32f7xx_it.c **** /**
  82:Src/stm32f7xx_it.c ****   * @brief This function handles Hard fault interrupt.
  83:Src/stm32f7xx_it.c ****   */
  84:Src/stm32f7xx_it.c **** void HardFault_Handler(void)
  85:Src/stm32f7xx_it.c **** {
  46              		.loc 1 85 0
  47              		.cfi_startproc
  48              		@ Volatile: function does not return.
  49              		@ args = 0, pretend = 0, frame = 0
  50              		@ frame_needed = 0, uses_anonymous_args = 0
  51              		@ link register save eliminated.
  52              	.L3:
  53 0000 FEE7     		b	.L3
  54              		.cfi_endproc
  55              	.LFE142:
  57              		.section	.text.MemManage_Handler,"ax",%progbits
  58              		.align	1
  59              		.global	MemManage_Handler
  60              		.syntax unified
  61              		.thumb
  62              		.thumb_func
  63              		.fpu fpv5-d16
  65              	MemManage_Handler:
  66              	.LFB143:
  86:Src/stm32f7xx_it.c ****   /* USER CODE BEGIN HardFault_IRQn 0 */
  87:Src/stm32f7xx_it.c **** 
  88:Src/stm32f7xx_it.c ****   /* USER CODE END HardFault_IRQn 0 */
  89:Src/stm32f7xx_it.c ****   while (1)
  90:Src/stm32f7xx_it.c ****   {
  91:Src/stm32f7xx_it.c ****     /* USER CODE BEGIN W1_HardFault_IRQn 0 */
  92:Src/stm32f7xx_it.c ****     /* USER CODE END W1_HardFault_IRQn 0 */
  93:Src/stm32f7xx_it.c ****   }
  94:Src/stm32f7xx_it.c **** }
  95:Src/stm32f7xx_it.c **** 
  96:Src/stm32f7xx_it.c **** /**
  97:Src/stm32f7xx_it.c ****   * @brief This function handles Memory management fault.
  98:Src/stm32f7xx_it.c ****   */
  99:Src/stm32f7xx_it.c **** void MemManage_Handler(void)
 100:Src/stm32f7xx_it.c **** {
  67              		.loc 1 100 0
  68              		.cfi_startproc
  69              		@ Volatile: function does not return.
  70              		@ args = 0, pretend = 0, frame = 0
  71              		@ frame_needed = 0, uses_anonymous_args = 0
  72              		@ link register save eliminated.
  73              	.L5:
  74 0000 FEE7     		b	.L5
  75              		.cfi_endproc
  76              	.LFE143:
ARM GAS  /tmp/cc4atl9r.s 			page 4


  78              		.section	.text.BusFault_Handler,"ax",%progbits
  79              		.align	1
  80              		.global	BusFault_Handler
  81              		.syntax unified
  82              		.thumb
  83              		.thumb_func
  84              		.fpu fpv5-d16
  86              	BusFault_Handler:
  87              	.LFB144:
 101:Src/stm32f7xx_it.c ****   /* USER CODE BEGIN MemoryManagement_IRQn 0 */
 102:Src/stm32f7xx_it.c **** 
 103:Src/stm32f7xx_it.c ****   /* USER CODE END MemoryManagement_IRQn 0 */
 104:Src/stm32f7xx_it.c ****   while (1)
 105:Src/stm32f7xx_it.c ****   {
 106:Src/stm32f7xx_it.c ****     /* USER CODE BEGIN W1_MemoryManagement_IRQn 0 */
 107:Src/stm32f7xx_it.c ****     /* USER CODE END W1_MemoryManagement_IRQn 0 */
 108:Src/stm32f7xx_it.c ****   }
 109:Src/stm32f7xx_it.c **** }
 110:Src/stm32f7xx_it.c **** 
 111:Src/stm32f7xx_it.c **** /**
 112:Src/stm32f7xx_it.c ****   * @brief This function handles Pre-fetch fault, memory access fault.
 113:Src/stm32f7xx_it.c ****   */
 114:Src/stm32f7xx_it.c **** void BusFault_Handler(void)
 115:Src/stm32f7xx_it.c **** {
  88              		.loc 1 115 0
  89              		.cfi_startproc
  90              		@ Volatile: function does not return.
  91              		@ args = 0, pretend = 0, frame = 0
  92              		@ frame_needed = 0, uses_anonymous_args = 0
  93              		@ link register save eliminated.
  94              	.L7:
  95 0000 FEE7     		b	.L7
  96              		.cfi_endproc
  97              	.LFE144:
  99              		.section	.text.UsageFault_Handler,"ax",%progbits
 100              		.align	1
 101              		.global	UsageFault_Handler
 102              		.syntax unified
 103              		.thumb
 104              		.thumb_func
 105              		.fpu fpv5-d16
 107              	UsageFault_Handler:
 108              	.LFB145:
 116:Src/stm32f7xx_it.c ****   /* USER CODE BEGIN BusFault_IRQn 0 */
 117:Src/stm32f7xx_it.c **** 
 118:Src/stm32f7xx_it.c ****   /* USER CODE END BusFault_IRQn 0 */
 119:Src/stm32f7xx_it.c ****   while (1)
 120:Src/stm32f7xx_it.c ****   {
 121:Src/stm32f7xx_it.c ****     /* USER CODE BEGIN W1_BusFault_IRQn 0 */
 122:Src/stm32f7xx_it.c ****     /* USER CODE END W1_BusFault_IRQn 0 */
 123:Src/stm32f7xx_it.c ****   }
 124:Src/stm32f7xx_it.c **** }
 125:Src/stm32f7xx_it.c **** 
 126:Src/stm32f7xx_it.c **** /**
 127:Src/stm32f7xx_it.c ****   * @brief This function handles Undefined instruction or illegal state.
 128:Src/stm32f7xx_it.c ****   */
 129:Src/stm32f7xx_it.c **** void UsageFault_Handler(void)
ARM GAS  /tmp/cc4atl9r.s 			page 5


 130:Src/stm32f7xx_it.c **** {
 109              		.loc 1 130 0
 110              		.cfi_startproc
 111              		@ Volatile: function does not return.
 112              		@ args = 0, pretend = 0, frame = 0
 113              		@ frame_needed = 0, uses_anonymous_args = 0
 114              		@ link register save eliminated.
 115              	.L9:
 116 0000 FEE7     		b	.L9
 117              		.cfi_endproc
 118              	.LFE145:
 120              		.section	.text.SVC_Handler,"ax",%progbits
 121              		.align	1
 122              		.global	SVC_Handler
 123              		.syntax unified
 124              		.thumb
 125              		.thumb_func
 126              		.fpu fpv5-d16
 128              	SVC_Handler:
 129              	.LFB146:
 131:Src/stm32f7xx_it.c ****   /* USER CODE BEGIN UsageFault_IRQn 0 */
 132:Src/stm32f7xx_it.c **** 
 133:Src/stm32f7xx_it.c ****   /* USER CODE END UsageFault_IRQn 0 */
 134:Src/stm32f7xx_it.c ****   while (1)
 135:Src/stm32f7xx_it.c ****   {
 136:Src/stm32f7xx_it.c ****     /* USER CODE BEGIN W1_UsageFault_IRQn 0 */
 137:Src/stm32f7xx_it.c ****     /* USER CODE END W1_UsageFault_IRQn 0 */
 138:Src/stm32f7xx_it.c ****   }
 139:Src/stm32f7xx_it.c **** }
 140:Src/stm32f7xx_it.c **** 
 141:Src/stm32f7xx_it.c **** /**
 142:Src/stm32f7xx_it.c ****   * @brief This function handles System service call via SWI instruction.
 143:Src/stm32f7xx_it.c ****   */
 144:Src/stm32f7xx_it.c **** void SVC_Handler(void)
 145:Src/stm32f7xx_it.c **** {
 130              		.loc 1 145 0
 131              		.cfi_startproc
 132              		@ args = 0, pretend = 0, frame = 0
 133              		@ frame_needed = 0, uses_anonymous_args = 0
 134              		@ link register save eliminated.
 135 0000 7047     		bx	lr
 136              		.cfi_endproc
 137              	.LFE146:
 139              		.section	.text.DebugMon_Handler,"ax",%progbits
 140              		.align	1
 141              		.global	DebugMon_Handler
 142              		.syntax unified
 143              		.thumb
 144              		.thumb_func
 145              		.fpu fpv5-d16
 147              	DebugMon_Handler:
 148              	.LFB147:
 146:Src/stm32f7xx_it.c ****   /* USER CODE BEGIN SVCall_IRQn 0 */
 147:Src/stm32f7xx_it.c **** 
 148:Src/stm32f7xx_it.c ****   /* USER CODE END SVCall_IRQn 0 */
 149:Src/stm32f7xx_it.c ****   /* USER CODE BEGIN SVCall_IRQn 1 */
 150:Src/stm32f7xx_it.c **** 
ARM GAS  /tmp/cc4atl9r.s 			page 6


 151:Src/stm32f7xx_it.c ****   /* USER CODE END SVCall_IRQn 1 */
 152:Src/stm32f7xx_it.c **** }
 153:Src/stm32f7xx_it.c **** 
 154:Src/stm32f7xx_it.c **** /**
 155:Src/stm32f7xx_it.c ****   * @brief This function handles Debug monitor.
 156:Src/stm32f7xx_it.c ****   */
 157:Src/stm32f7xx_it.c **** void DebugMon_Handler(void)
 158:Src/stm32f7xx_it.c **** {
 149              		.loc 1 158 0
 150              		.cfi_startproc
 151              		@ args = 0, pretend = 0, frame = 0
 152              		@ frame_needed = 0, uses_anonymous_args = 0
 153              		@ link register save eliminated.
 154 0000 7047     		bx	lr
 155              		.cfi_endproc
 156              	.LFE147:
 158              		.section	.text.PendSV_Handler,"ax",%progbits
 159              		.align	1
 160              		.global	PendSV_Handler
 161              		.syntax unified
 162              		.thumb
 163              		.thumb_func
 164              		.fpu fpv5-d16
 166              	PendSV_Handler:
 167              	.LFB148:
 159:Src/stm32f7xx_it.c ****   /* USER CODE BEGIN DebugMonitor_IRQn 0 */
 160:Src/stm32f7xx_it.c **** 
 161:Src/stm32f7xx_it.c ****   /* USER CODE END DebugMonitor_IRQn 0 */
 162:Src/stm32f7xx_it.c ****   /* USER CODE BEGIN DebugMonitor_IRQn 1 */
 163:Src/stm32f7xx_it.c **** 
 164:Src/stm32f7xx_it.c ****   /* USER CODE END DebugMonitor_IRQn 1 */
 165:Src/stm32f7xx_it.c **** }
 166:Src/stm32f7xx_it.c **** 
 167:Src/stm32f7xx_it.c **** /**
 168:Src/stm32f7xx_it.c ****   * @brief This function handles Pendable request for system service.
 169:Src/stm32f7xx_it.c ****   */
 170:Src/stm32f7xx_it.c **** void PendSV_Handler(void)
 171:Src/stm32f7xx_it.c **** {
 168              		.loc 1 171 0
 169              		.cfi_startproc
 170              		@ args = 0, pretend = 0, frame = 0
 171              		@ frame_needed = 0, uses_anonymous_args = 0
 172              		@ link register save eliminated.
 173 0000 7047     		bx	lr
 174              		.cfi_endproc
 175              	.LFE148:
 177              		.section	.text.SysTick_Handler,"ax",%progbits
 178              		.align	1
 179              		.global	SysTick_Handler
 180              		.syntax unified
 181              		.thumb
 182              		.thumb_func
 183              		.fpu fpv5-d16
 185              	SysTick_Handler:
 186              	.LFB149:
 172:Src/stm32f7xx_it.c ****   /* USER CODE BEGIN PendSV_IRQn 0 */
 173:Src/stm32f7xx_it.c **** 
ARM GAS  /tmp/cc4atl9r.s 			page 7


 174:Src/stm32f7xx_it.c ****   /* USER CODE END PendSV_IRQn 0 */
 175:Src/stm32f7xx_it.c ****   /* USER CODE BEGIN PendSV_IRQn 1 */
 176:Src/stm32f7xx_it.c **** 
 177:Src/stm32f7xx_it.c ****   /* USER CODE END PendSV_IRQn 1 */
 178:Src/stm32f7xx_it.c **** }
 179:Src/stm32f7xx_it.c **** 
 180:Src/stm32f7xx_it.c **** /**
 181:Src/stm32f7xx_it.c ****   * @brief This function handles System tick timer.
 182:Src/stm32f7xx_it.c ****   */
 183:Src/stm32f7xx_it.c **** void SysTick_Handler(void)
 184:Src/stm32f7xx_it.c **** {
 187              		.loc 1 184 0
 188              		.cfi_startproc
 189              		@ args = 0, pretend = 0, frame = 0
 190              		@ frame_needed = 0, uses_anonymous_args = 0
 191              		.loc 1 184 0
 192 0000 08B5     		push	{r3, lr}
 193              	.LCFI0:
 194              		.cfi_def_cfa_offset 8
 195              		.cfi_offset 3, -8
 196              		.cfi_offset 14, -4
 185:Src/stm32f7xx_it.c ****   /* USER CODE BEGIN SysTick_IRQn 0 */
 186:Src/stm32f7xx_it.c **** 
 187:Src/stm32f7xx_it.c ****   /* USER CODE END SysTick_IRQn 0 */
 188:Src/stm32f7xx_it.c ****   HAL_IncTick();
 197              		.loc 1 188 0
 198 0002 FFF7FEFF 		bl	HAL_IncTick
 199              	.LVL0:
 200 0006 08BD     		pop	{r3, pc}
 201              		.cfi_endproc
 202              	.LFE149:
 204              		.section	.text.CAN1_RX0_IRQHandler,"ax",%progbits
 205              		.align	1
 206              		.global	CAN1_RX0_IRQHandler
 207              		.syntax unified
 208              		.thumb
 209              		.thumb_func
 210              		.fpu fpv5-d16
 212              	CAN1_RX0_IRQHandler:
 213              	.LFB150:
 189:Src/stm32f7xx_it.c ****   /* USER CODE BEGIN SysTick_IRQn 1 */
 190:Src/stm32f7xx_it.c **** 
 191:Src/stm32f7xx_it.c ****   /* USER CODE END SysTick_IRQn 1 */
 192:Src/stm32f7xx_it.c **** }
 193:Src/stm32f7xx_it.c **** 
 194:Src/stm32f7xx_it.c **** /******************************************************************************/
 195:Src/stm32f7xx_it.c **** /* STM32F7xx Peripheral Interrupt Handlers                                    */
 196:Src/stm32f7xx_it.c **** /* Add here the Interrupt Handlers for the used peripherals.                  */
 197:Src/stm32f7xx_it.c **** /* For the available peripheral interrupt handler names,                      */
 198:Src/stm32f7xx_it.c **** /* please refer to the startup file (startup_stm32f7xx.s).                    */
 199:Src/stm32f7xx_it.c **** /******************************************************************************/
 200:Src/stm32f7xx_it.c **** 
 201:Src/stm32f7xx_it.c **** /**
 202:Src/stm32f7xx_it.c ****   * @brief This function handles CAN1 RX0 interrupts.
 203:Src/stm32f7xx_it.c ****   */
 204:Src/stm32f7xx_it.c **** void CAN1_RX0_IRQHandler(void)
 205:Src/stm32f7xx_it.c **** {
ARM GAS  /tmp/cc4atl9r.s 			page 8


 214              		.loc 1 205 0
 215              		.cfi_startproc
 216              		@ args = 0, pretend = 0, frame = 0
 217              		@ frame_needed = 0, uses_anonymous_args = 0
 218 0000 08B5     		push	{r3, lr}
 219              	.LCFI1:
 220              		.cfi_def_cfa_offset 8
 221              		.cfi_offset 3, -8
 222              		.cfi_offset 14, -4
 206:Src/stm32f7xx_it.c ****   /* USER CODE BEGIN CAN1_RX0_IRQn 0 */
 207:Src/stm32f7xx_it.c **** 
 208:Src/stm32f7xx_it.c ****   /* USER CODE END CAN1_RX0_IRQn 0 */
 209:Src/stm32f7xx_it.c ****   HAL_CAN_IRQHandler(&hcan1);
 223              		.loc 1 209 0
 224 0002 0248     		ldr	r0, .L17
 225 0004 FFF7FEFF 		bl	HAL_CAN_IRQHandler
 226              	.LVL1:
 227 0008 08BD     		pop	{r3, pc}
 228              	.L18:
 229 000a 00BF     		.align	2
 230              	.L17:
 231 000c 00000000 		.word	hcan1
 232              		.cfi_endproc
 233              	.LFE150:
 235              		.section	.text.CAN1_RX1_IRQHandler,"ax",%progbits
 236              		.align	1
 237              		.global	CAN1_RX1_IRQHandler
 238              		.syntax unified
 239              		.thumb
 240              		.thumb_func
 241              		.fpu fpv5-d16
 243              	CAN1_RX1_IRQHandler:
 244              	.LFB151:
 210:Src/stm32f7xx_it.c ****   /* USER CODE BEGIN CAN1_RX0_IRQn 1 */
 211:Src/stm32f7xx_it.c **** 
 212:Src/stm32f7xx_it.c ****   /* USER CODE END CAN1_RX0_IRQn 1 */
 213:Src/stm32f7xx_it.c **** }
 214:Src/stm32f7xx_it.c **** 
 215:Src/stm32f7xx_it.c **** /**
 216:Src/stm32f7xx_it.c ****   * @brief This function handles CAN1 RX1 interrupt.
 217:Src/stm32f7xx_it.c ****   */
 218:Src/stm32f7xx_it.c **** void CAN1_RX1_IRQHandler(void)
 219:Src/stm32f7xx_it.c **** {
 245              		.loc 1 219 0
 246              		.cfi_startproc
 247              		@ args = 0, pretend = 0, frame = 0
 248              		@ frame_needed = 0, uses_anonymous_args = 0
 249 0000 08B5     		push	{r3, lr}
 250              	.LCFI2:
 251              		.cfi_def_cfa_offset 8
 252              		.cfi_offset 3, -8
 253              		.cfi_offset 14, -4
 220:Src/stm32f7xx_it.c ****   /* USER CODE BEGIN CAN1_RX1_IRQn 0 */
 221:Src/stm32f7xx_it.c **** 
 222:Src/stm32f7xx_it.c ****   /* USER CODE END CAN1_RX1_IRQn 0 */
 223:Src/stm32f7xx_it.c ****   HAL_CAN_IRQHandler(&hcan1);
 254              		.loc 1 223 0
ARM GAS  /tmp/cc4atl9r.s 			page 9


 255 0002 0248     		ldr	r0, .L21
 256 0004 FFF7FEFF 		bl	HAL_CAN_IRQHandler
 257              	.LVL2:
 258 0008 08BD     		pop	{r3, pc}
 259              	.L22:
 260 000a 00BF     		.align	2
 261              	.L21:
 262 000c 00000000 		.word	hcan1
 263              		.cfi_endproc
 264              	.LFE151:
 266              		.section	.text.CAN1_SCE_IRQHandler,"ax",%progbits
 267              		.align	1
 268              		.global	CAN1_SCE_IRQHandler
 269              		.syntax unified
 270              		.thumb
 271              		.thumb_func
 272              		.fpu fpv5-d16
 274              	CAN1_SCE_IRQHandler:
 275              	.LFB152:
 224:Src/stm32f7xx_it.c ****   /* USER CODE BEGIN CAN1_RX1_IRQn 1 */
 225:Src/stm32f7xx_it.c **** 
 226:Src/stm32f7xx_it.c ****   /* USER CODE END CAN1_RX1_IRQn 1 */
 227:Src/stm32f7xx_it.c **** }
 228:Src/stm32f7xx_it.c **** 
 229:Src/stm32f7xx_it.c **** /**
 230:Src/stm32f7xx_it.c ****   * @brief This function handles CAN1 SCE interrupt.
 231:Src/stm32f7xx_it.c ****   */
 232:Src/stm32f7xx_it.c **** void CAN1_SCE_IRQHandler(void)
 233:Src/stm32f7xx_it.c **** {
 276              		.loc 1 233 0
 277              		.cfi_startproc
 278              		@ args = 0, pretend = 0, frame = 0
 279              		@ frame_needed = 0, uses_anonymous_args = 0
 280 0000 08B5     		push	{r3, lr}
 281              	.LCFI3:
 282              		.cfi_def_cfa_offset 8
 283              		.cfi_offset 3, -8
 284              		.cfi_offset 14, -4
 234:Src/stm32f7xx_it.c ****   /* USER CODE BEGIN CAN1_SCE_IRQn 0 */
 235:Src/stm32f7xx_it.c **** 
 236:Src/stm32f7xx_it.c ****   /* USER CODE END CAN1_SCE_IRQn 0 */
 237:Src/stm32f7xx_it.c ****   HAL_CAN_IRQHandler(&hcan1);
 285              		.loc 1 237 0
 286 0002 0248     		ldr	r0, .L25
 287 0004 FFF7FEFF 		bl	HAL_CAN_IRQHandler
 288              	.LVL3:
 289 0008 08BD     		pop	{r3, pc}
 290              	.L26:
 291 000a 00BF     		.align	2
 292              	.L25:
 293 000c 00000000 		.word	hcan1
 294              		.cfi_endproc
 295              	.LFE152:
 297              		.section	.text.DMA2_Stream0_IRQHandler,"ax",%progbits
 298              		.align	1
 299              		.global	DMA2_Stream0_IRQHandler
 300              		.syntax unified
ARM GAS  /tmp/cc4atl9r.s 			page 10


 301              		.thumb
 302              		.thumb_func
 303              		.fpu fpv5-d16
 305              	DMA2_Stream0_IRQHandler:
 306              	.LFB153:
 238:Src/stm32f7xx_it.c ****   /* USER CODE BEGIN CAN1_SCE_IRQn 1 */
 239:Src/stm32f7xx_it.c **** 
 240:Src/stm32f7xx_it.c ****   /* USER CODE END CAN1_SCE_IRQn 1 */
 241:Src/stm32f7xx_it.c **** }
 242:Src/stm32f7xx_it.c **** 
 243:Src/stm32f7xx_it.c **** /**
 244:Src/stm32f7xx_it.c ****   * @brief This function handles DMA2 stream0 global interrupt.
 245:Src/stm32f7xx_it.c ****   */
 246:Src/stm32f7xx_it.c **** void DMA2_Stream0_IRQHandler(void)
 247:Src/stm32f7xx_it.c **** {
 307              		.loc 1 247 0
 308              		.cfi_startproc
 309              		@ args = 0, pretend = 0, frame = 0
 310              		@ frame_needed = 0, uses_anonymous_args = 0
 311 0000 08B5     		push	{r3, lr}
 312              	.LCFI4:
 313              		.cfi_def_cfa_offset 8
 314              		.cfi_offset 3, -8
 315              		.cfi_offset 14, -4
 248:Src/stm32f7xx_it.c ****   /* USER CODE BEGIN DMA2_Stream0_IRQn 0 */
 249:Src/stm32f7xx_it.c **** 
 250:Src/stm32f7xx_it.c ****   /* USER CODE END DMA2_Stream0_IRQn 0 */
 251:Src/stm32f7xx_it.c ****   HAL_DMA_IRQHandler(&hdma_adc1);
 316              		.loc 1 251 0
 317 0002 0248     		ldr	r0, .L29
 318 0004 FFF7FEFF 		bl	HAL_DMA_IRQHandler
 319              	.LVL4:
 320 0008 08BD     		pop	{r3, pc}
 321              	.L30:
 322 000a 00BF     		.align	2
 323              	.L29:
 324 000c 00000000 		.word	hdma_adc1
 325              		.cfi_endproc
 326              	.LFE153:
 328              		.text
 329              	.Letext0:
 330              		.file 2 "/usr/include/newlib/machine/_default_types.h"
 331              		.file 3 "/usr/include/newlib/sys/_stdint.h"
 332              		.file 4 "Drivers/CMSIS/Include/core_cm7.h"
 333              		.file 5 "Drivers/CMSIS/Device/ST/STM32F7xx/Include/system_stm32f7xx.h"
 334              		.file 6 "Drivers/CMSIS/Device/ST/STM32F7xx/Include/stm32f767xx.h"
 335              		.file 7 "Drivers/CMSIS/Device/ST/STM32F7xx/Include/stm32f7xx.h"
 336              		.file 8 "Drivers/STM32F7xx_HAL_Driver/Inc/stm32f7xx_hal_def.h"
 337              		.file 9 "Drivers/STM32F7xx_HAL_Driver/Inc/stm32f7xx_hal_dma.h"
 338              		.file 10 "Drivers/STM32F7xx_HAL_Driver/Inc/stm32f7xx_hal_can.h"
 339              		.file 11 "Drivers/STM32F7xx_HAL_Driver/Inc/stm32f7xx_hal.h"
ARM GAS  /tmp/cc4atl9r.s 			page 11

