ARM GAS  /tmp/ccmEf6XR.s 			page 1


   1              		.cpu cortex-m7
   2              		.eabi_attribute 28, 1
   3              		.eabi_attribute 20, 1
   4              		.eabi_attribute 21, 1
   5              		.eabi_attribute 23, 3
   6              		.eabi_attribute 24, 1
   7              		.eabi_attribute 25, 1
   8              		.eabi_attribute 26, 1
   9              		.eabi_attribute 30, 1
  10              		.eabi_attribute 34, 1
  11              		.eabi_attribute 18, 4
  12              		.file	"stm32f7xx_hal_msp.c"
  13              		.text
  14              	.Ltext0:
  15              		.cfi_sections	.debug_frame
  16              		.section	.text.HAL_MspInit,"ax",%progbits
  17              		.align	1
  18              		.global	HAL_MspInit
  19              		.syntax unified
  20              		.thumb
  21              		.thumb_func
  22              		.fpu fpv5-d16
  24              	HAL_MspInit:
  25              	.LFB141:
  26              		.file 1 "Src/stm32f7xx_hal_msp.c"
   1:Src/stm32f7xx_hal_msp.c **** /* USER CODE BEGIN Header */
   2:Src/stm32f7xx_hal_msp.c **** /**
   3:Src/stm32f7xx_hal_msp.c ****   ******************************************************************************
   4:Src/stm32f7xx_hal_msp.c ****   * File Name          : stm32f7xx_hal_msp.c
   5:Src/stm32f7xx_hal_msp.c ****   * Description        : This file provides code for the MSP Initialization 
   6:Src/stm32f7xx_hal_msp.c ****   *                      and de-Initialization codes.
   7:Src/stm32f7xx_hal_msp.c ****   ******************************************************************************
   8:Src/stm32f7xx_hal_msp.c ****   * @attention
   9:Src/stm32f7xx_hal_msp.c ****   *
  10:Src/stm32f7xx_hal_msp.c ****   * <h2><center>&copy; Copyright (c) 2019 STMicroelectronics.
  11:Src/stm32f7xx_hal_msp.c ****   * All rights reserved.</center></h2>
  12:Src/stm32f7xx_hal_msp.c ****   *
  13:Src/stm32f7xx_hal_msp.c ****   * This software component is licensed by ST under BSD 3-Clause license,
  14:Src/stm32f7xx_hal_msp.c ****   * the "License"; You may not use this file except in compliance with the
  15:Src/stm32f7xx_hal_msp.c ****   * License. You may obtain a copy of the License at:
  16:Src/stm32f7xx_hal_msp.c ****   *                        opensource.org/licenses/BSD-3-Clause
  17:Src/stm32f7xx_hal_msp.c ****   *
  18:Src/stm32f7xx_hal_msp.c ****   ******************************************************************************
  19:Src/stm32f7xx_hal_msp.c ****   */
  20:Src/stm32f7xx_hal_msp.c **** /* USER CODE END Header */
  21:Src/stm32f7xx_hal_msp.c **** 
  22:Src/stm32f7xx_hal_msp.c **** /* Includes ------------------------------------------------------------------*/
  23:Src/stm32f7xx_hal_msp.c **** #include "main.h"
  24:Src/stm32f7xx_hal_msp.c **** /* USER CODE BEGIN Includes */
  25:Src/stm32f7xx_hal_msp.c **** 
  26:Src/stm32f7xx_hal_msp.c **** /* USER CODE END Includes */
  27:Src/stm32f7xx_hal_msp.c **** extern DMA_HandleTypeDef hdma_adc1;
  28:Src/stm32f7xx_hal_msp.c **** 
  29:Src/stm32f7xx_hal_msp.c **** /* Private typedef -----------------------------------------------------------*/
  30:Src/stm32f7xx_hal_msp.c **** /* USER CODE BEGIN TD */
  31:Src/stm32f7xx_hal_msp.c **** 
  32:Src/stm32f7xx_hal_msp.c **** /* USER CODE END TD */
ARM GAS  /tmp/ccmEf6XR.s 			page 2


  33:Src/stm32f7xx_hal_msp.c **** 
  34:Src/stm32f7xx_hal_msp.c **** /* Private define ------------------------------------------------------------*/
  35:Src/stm32f7xx_hal_msp.c **** /* USER CODE BEGIN Define */
  36:Src/stm32f7xx_hal_msp.c ****  
  37:Src/stm32f7xx_hal_msp.c **** /* USER CODE END Define */
  38:Src/stm32f7xx_hal_msp.c **** 
  39:Src/stm32f7xx_hal_msp.c **** /* Private macro -------------------------------------------------------------*/
  40:Src/stm32f7xx_hal_msp.c **** /* USER CODE BEGIN Macro */
  41:Src/stm32f7xx_hal_msp.c **** 
  42:Src/stm32f7xx_hal_msp.c **** /* USER CODE END Macro */
  43:Src/stm32f7xx_hal_msp.c **** 
  44:Src/stm32f7xx_hal_msp.c **** /* Private variables ---------------------------------------------------------*/
  45:Src/stm32f7xx_hal_msp.c **** /* USER CODE BEGIN PV */
  46:Src/stm32f7xx_hal_msp.c **** 
  47:Src/stm32f7xx_hal_msp.c **** /* USER CODE END PV */
  48:Src/stm32f7xx_hal_msp.c **** 
  49:Src/stm32f7xx_hal_msp.c **** /* Private function prototypes -----------------------------------------------*/
  50:Src/stm32f7xx_hal_msp.c **** /* USER CODE BEGIN PFP */
  51:Src/stm32f7xx_hal_msp.c **** 
  52:Src/stm32f7xx_hal_msp.c **** /* USER CODE END PFP */
  53:Src/stm32f7xx_hal_msp.c **** 
  54:Src/stm32f7xx_hal_msp.c **** /* External functions --------------------------------------------------------*/
  55:Src/stm32f7xx_hal_msp.c **** /* USER CODE BEGIN ExternalFunctions */
  56:Src/stm32f7xx_hal_msp.c **** 
  57:Src/stm32f7xx_hal_msp.c **** /* USER CODE END ExternalFunctions */
  58:Src/stm32f7xx_hal_msp.c **** 
  59:Src/stm32f7xx_hal_msp.c **** /* USER CODE BEGIN 0 */
  60:Src/stm32f7xx_hal_msp.c **** 
  61:Src/stm32f7xx_hal_msp.c **** /* USER CODE END 0 */
  62:Src/stm32f7xx_hal_msp.c ****                         
  63:Src/stm32f7xx_hal_msp.c **** void HAL_TIM_MspPostInit(TIM_HandleTypeDef *htim);
  64:Src/stm32f7xx_hal_msp.c ****                                                             /**
  65:Src/stm32f7xx_hal_msp.c ****   * Initializes the Global MSP.
  66:Src/stm32f7xx_hal_msp.c ****   */
  67:Src/stm32f7xx_hal_msp.c **** void HAL_MspInit(void)
  68:Src/stm32f7xx_hal_msp.c **** {
  27              		.loc 1 68 0
  28              		.cfi_startproc
  29              		@ args = 0, pretend = 0, frame = 8
  30              		@ frame_needed = 0, uses_anonymous_args = 0
  31              		@ link register save eliminated.
  32 0000 82B0     		sub	sp, sp, #8
  33              	.LCFI0:
  34              		.cfi_def_cfa_offset 8
  35              	.LBB2:
  69:Src/stm32f7xx_hal_msp.c ****   /* USER CODE BEGIN MspInit 0 */
  70:Src/stm32f7xx_hal_msp.c **** 
  71:Src/stm32f7xx_hal_msp.c ****   /* USER CODE END MspInit 0 */
  72:Src/stm32f7xx_hal_msp.c **** 
  73:Src/stm32f7xx_hal_msp.c ****   __HAL_RCC_PWR_CLK_ENABLE();
  36              		.loc 1 73 0
  37 0002 0A4B     		ldr	r3, .L3
  38 0004 1A6C     		ldr	r2, [r3, #64]
  39 0006 42F08052 		orr	r2, r2, #268435456
  40 000a 1A64     		str	r2, [r3, #64]
  41 000c 1A6C     		ldr	r2, [r3, #64]
  42 000e 02F08052 		and	r2, r2, #268435456
ARM GAS  /tmp/ccmEf6XR.s 			page 3


  43 0012 0092     		str	r2, [sp]
  44 0014 009A     		ldr	r2, [sp]
  45              	.LBE2:
  46              	.LBB3:
  74:Src/stm32f7xx_hal_msp.c ****   __HAL_RCC_SYSCFG_CLK_ENABLE();
  47              		.loc 1 74 0
  48 0016 5A6C     		ldr	r2, [r3, #68]
  49 0018 42F48042 		orr	r2, r2, #16384
  50 001c 5A64     		str	r2, [r3, #68]
  51 001e 5B6C     		ldr	r3, [r3, #68]
  52 0020 03F48043 		and	r3, r3, #16384
  53 0024 0193     		str	r3, [sp, #4]
  54 0026 019B     		ldr	r3, [sp, #4]
  55              	.LBE3:
  75:Src/stm32f7xx_hal_msp.c **** 
  76:Src/stm32f7xx_hal_msp.c ****   /* System interrupt init*/
  77:Src/stm32f7xx_hal_msp.c **** 
  78:Src/stm32f7xx_hal_msp.c ****   /* USER CODE BEGIN MspInit 1 */
  79:Src/stm32f7xx_hal_msp.c **** 
  80:Src/stm32f7xx_hal_msp.c ****   /* USER CODE END MspInit 1 */
  81:Src/stm32f7xx_hal_msp.c **** }
  56              		.loc 1 81 0
  57 0028 02B0     		add	sp, sp, #8
  58              	.LCFI1:
  59              		.cfi_def_cfa_offset 0
  60              		@ sp needed
  61 002a 7047     		bx	lr
  62              	.L4:
  63              		.align	2
  64              	.L3:
  65 002c 00380240 		.word	1073887232
  66              		.cfi_endproc
  67              	.LFE141:
  69              		.section	.text.HAL_ADC_MspInit,"ax",%progbits
  70              		.align	1
  71              		.global	HAL_ADC_MspInit
  72              		.syntax unified
  73              		.thumb
  74              		.thumb_func
  75              		.fpu fpv5-d16
  77              	HAL_ADC_MspInit:
  78              	.LFB142:
  82:Src/stm32f7xx_hal_msp.c **** 
  83:Src/stm32f7xx_hal_msp.c **** /**
  84:Src/stm32f7xx_hal_msp.c **** * @brief ADC MSP Initialization
  85:Src/stm32f7xx_hal_msp.c **** * This function configures the hardware resources used in this example
  86:Src/stm32f7xx_hal_msp.c **** * @param hadc: ADC handle pointer
  87:Src/stm32f7xx_hal_msp.c **** * @retval None
  88:Src/stm32f7xx_hal_msp.c **** */
  89:Src/stm32f7xx_hal_msp.c **** void HAL_ADC_MspInit(ADC_HandleTypeDef* hadc)
  90:Src/stm32f7xx_hal_msp.c **** {
  79              		.loc 1 90 0
  80              		.cfi_startproc
  81              		@ args = 0, pretend = 0, frame = 32
  82              		@ frame_needed = 0, uses_anonymous_args = 0
  83              	.LVL0:
  84 0000 10B5     		push	{r4, lr}
ARM GAS  /tmp/ccmEf6XR.s 			page 4


  85              	.LCFI2:
  86              		.cfi_def_cfa_offset 8
  87              		.cfi_offset 4, -8
  88              		.cfi_offset 14, -4
  89 0002 88B0     		sub	sp, sp, #32
  90              	.LCFI3:
  91              		.cfi_def_cfa_offset 40
  91:Src/stm32f7xx_hal_msp.c ****   GPIO_InitTypeDef GPIO_InitStruct = {0};
  92              		.loc 1 91 0
  93 0004 0023     		movs	r3, #0
  94 0006 0393     		str	r3, [sp, #12]
  95 0008 0493     		str	r3, [sp, #16]
  96 000a 0593     		str	r3, [sp, #20]
  97 000c 0693     		str	r3, [sp, #24]
  98 000e 0793     		str	r3, [sp, #28]
  92:Src/stm32f7xx_hal_msp.c ****   if(hadc->Instance==ADC1)
  99              		.loc 1 92 0
 100 0010 0268     		ldr	r2, [r0]
 101 0012 03F18043 		add	r3, r3, #1073741824
 102 0016 03F59033 		add	r3, r3, #73728
 103 001a 9A42     		cmp	r2, r3
 104 001c 01D0     		beq	.L9
 105              	.LVL1:
 106              	.L5:
  93:Src/stm32f7xx_hal_msp.c ****   {
  94:Src/stm32f7xx_hal_msp.c ****   /* USER CODE BEGIN ADC1_MspInit 0 */
  95:Src/stm32f7xx_hal_msp.c **** 
  96:Src/stm32f7xx_hal_msp.c ****   /* USER CODE END ADC1_MspInit 0 */
  97:Src/stm32f7xx_hal_msp.c ****     /* Peripheral clock enable */
  98:Src/stm32f7xx_hal_msp.c ****     __HAL_RCC_ADC1_CLK_ENABLE();
  99:Src/stm32f7xx_hal_msp.c ****   
 100:Src/stm32f7xx_hal_msp.c ****     __HAL_RCC_GPIOC_CLK_ENABLE();
 101:Src/stm32f7xx_hal_msp.c ****     /**ADC1 GPIO Configuration    
 102:Src/stm32f7xx_hal_msp.c ****     PC0     ------> ADC1_IN10
 103:Src/stm32f7xx_hal_msp.c ****     PC1     ------> ADC1_IN11 
 104:Src/stm32f7xx_hal_msp.c ****     */
 105:Src/stm32f7xx_hal_msp.c ****     GPIO_InitStruct.Pin = GPIO_PIN_0|GPIO_PIN_1;
 106:Src/stm32f7xx_hal_msp.c ****     GPIO_InitStruct.Mode = GPIO_MODE_ANALOG;
 107:Src/stm32f7xx_hal_msp.c ****     GPIO_InitStruct.Pull = GPIO_NOPULL;
 108:Src/stm32f7xx_hal_msp.c ****     HAL_GPIO_Init(GPIOC, &GPIO_InitStruct);
 109:Src/stm32f7xx_hal_msp.c **** 
 110:Src/stm32f7xx_hal_msp.c ****     /* ADC1 DMA Init */
 111:Src/stm32f7xx_hal_msp.c ****     /* ADC1 Init */
 112:Src/stm32f7xx_hal_msp.c ****     hdma_adc1.Instance = DMA2_Stream0;
 113:Src/stm32f7xx_hal_msp.c ****     hdma_adc1.Init.Channel = DMA_CHANNEL_0;
 114:Src/stm32f7xx_hal_msp.c ****     hdma_adc1.Init.Direction = DMA_PERIPH_TO_MEMORY;
 115:Src/stm32f7xx_hal_msp.c ****     hdma_adc1.Init.PeriphInc = DMA_PINC_DISABLE;
 116:Src/stm32f7xx_hal_msp.c ****     hdma_adc1.Init.MemInc = DMA_MINC_ENABLE;
 117:Src/stm32f7xx_hal_msp.c ****     hdma_adc1.Init.PeriphDataAlignment = DMA_PDATAALIGN_HALFWORD;
 118:Src/stm32f7xx_hal_msp.c ****     hdma_adc1.Init.MemDataAlignment = DMA_MDATAALIGN_HALFWORD;
 119:Src/stm32f7xx_hal_msp.c ****     hdma_adc1.Init.Mode = DMA_CIRCULAR;
 120:Src/stm32f7xx_hal_msp.c ****     hdma_adc1.Init.Priority = DMA_PRIORITY_LOW;
 121:Src/stm32f7xx_hal_msp.c ****     hdma_adc1.Init.FIFOMode = DMA_FIFOMODE_DISABLE;
 122:Src/stm32f7xx_hal_msp.c ****     if (HAL_DMA_Init(&hdma_adc1) != HAL_OK)
 123:Src/stm32f7xx_hal_msp.c ****     {
 124:Src/stm32f7xx_hal_msp.c ****       Error_Handler();
 125:Src/stm32f7xx_hal_msp.c ****     }
ARM GAS  /tmp/ccmEf6XR.s 			page 5


 126:Src/stm32f7xx_hal_msp.c **** 
 127:Src/stm32f7xx_hal_msp.c ****     __HAL_LINKDMA(hadc,DMA_Handle,hdma_adc1);
 128:Src/stm32f7xx_hal_msp.c **** 
 129:Src/stm32f7xx_hal_msp.c ****   /* USER CODE BEGIN ADC1_MspInit 1 */
 130:Src/stm32f7xx_hal_msp.c **** 
 131:Src/stm32f7xx_hal_msp.c ****   /* USER CODE END ADC1_MspInit 1 */
 132:Src/stm32f7xx_hal_msp.c ****   }
 133:Src/stm32f7xx_hal_msp.c **** 
 134:Src/stm32f7xx_hal_msp.c **** }
 107              		.loc 1 134 0
 108 001e 08B0     		add	sp, sp, #32
 109              	.LCFI4:
 110              		.cfi_remember_state
 111              		.cfi_def_cfa_offset 8
 112              		@ sp needed
 113 0020 10BD     		pop	{r4, pc}
 114              	.LVL2:
 115              	.L9:
 116              	.LCFI5:
 117              		.cfi_restore_state
 118 0022 0446     		mov	r4, r0
 119              	.LBB4:
  98:Src/stm32f7xx_hal_msp.c ****   
 120              		.loc 1 98 0
 121 0024 03F58C33 		add	r3, r3, #71680
 122 0028 5A6C     		ldr	r2, [r3, #68]
 123 002a 42F48072 		orr	r2, r2, #256
 124 002e 5A64     		str	r2, [r3, #68]
 125 0030 5A6C     		ldr	r2, [r3, #68]
 126 0032 02F48072 		and	r2, r2, #256
 127 0036 0192     		str	r2, [sp, #4]
 128 0038 019A     		ldr	r2, [sp, #4]
 129              	.LBE4:
 130              	.LBB5:
 100:Src/stm32f7xx_hal_msp.c ****     /**ADC1 GPIO Configuration    
 131              		.loc 1 100 0
 132 003a 1A6B     		ldr	r2, [r3, #48]
 133 003c 42F00402 		orr	r2, r2, #4
 134 0040 1A63     		str	r2, [r3, #48]
 135 0042 1B6B     		ldr	r3, [r3, #48]
 136 0044 03F00403 		and	r3, r3, #4
 137 0048 0293     		str	r3, [sp, #8]
 138 004a 029B     		ldr	r3, [sp, #8]
 139              	.LBE5:
 105:Src/stm32f7xx_hal_msp.c ****     GPIO_InitStruct.Mode = GPIO_MODE_ANALOG;
 140              		.loc 1 105 0
 141 004c 0323     		movs	r3, #3
 142 004e 0393     		str	r3, [sp, #12]
 106:Src/stm32f7xx_hal_msp.c ****     GPIO_InitStruct.Pull = GPIO_NOPULL;
 143              		.loc 1 106 0
 144 0050 0493     		str	r3, [sp, #16]
 108:Src/stm32f7xx_hal_msp.c **** 
 145              		.loc 1 108 0
 146 0052 03A9     		add	r1, sp, #12
 147 0054 1048     		ldr	r0, .L11
 148              	.LVL3:
 149 0056 FFF7FEFF 		bl	HAL_GPIO_Init
ARM GAS  /tmp/ccmEf6XR.s 			page 6


 150              	.LVL4:
 112:Src/stm32f7xx_hal_msp.c ****     hdma_adc1.Init.Channel = DMA_CHANNEL_0;
 151              		.loc 1 112 0
 152 005a 1048     		ldr	r0, .L11+4
 153 005c 104B     		ldr	r3, .L11+8
 154 005e 0360     		str	r3, [r0]
 113:Src/stm32f7xx_hal_msp.c ****     hdma_adc1.Init.Direction = DMA_PERIPH_TO_MEMORY;
 155              		.loc 1 113 0
 156 0060 0023     		movs	r3, #0
 157 0062 4360     		str	r3, [r0, #4]
 114:Src/stm32f7xx_hal_msp.c ****     hdma_adc1.Init.PeriphInc = DMA_PINC_DISABLE;
 158              		.loc 1 114 0
 159 0064 8360     		str	r3, [r0, #8]
 115:Src/stm32f7xx_hal_msp.c ****     hdma_adc1.Init.MemInc = DMA_MINC_ENABLE;
 160              		.loc 1 115 0
 161 0066 C360     		str	r3, [r0, #12]
 116:Src/stm32f7xx_hal_msp.c ****     hdma_adc1.Init.PeriphDataAlignment = DMA_PDATAALIGN_HALFWORD;
 162              		.loc 1 116 0
 163 0068 4FF48062 		mov	r2, #1024
 164 006c 0261     		str	r2, [r0, #16]
 117:Src/stm32f7xx_hal_msp.c ****     hdma_adc1.Init.MemDataAlignment = DMA_MDATAALIGN_HALFWORD;
 165              		.loc 1 117 0
 166 006e 4FF40062 		mov	r2, #2048
 167 0072 4261     		str	r2, [r0, #20]
 118:Src/stm32f7xx_hal_msp.c ****     hdma_adc1.Init.Mode = DMA_CIRCULAR;
 168              		.loc 1 118 0
 169 0074 4FF40052 		mov	r2, #8192
 170 0078 8261     		str	r2, [r0, #24]
 119:Src/stm32f7xx_hal_msp.c ****     hdma_adc1.Init.Priority = DMA_PRIORITY_LOW;
 171              		.loc 1 119 0
 172 007a 4FF48072 		mov	r2, #256
 173 007e C261     		str	r2, [r0, #28]
 120:Src/stm32f7xx_hal_msp.c ****     hdma_adc1.Init.FIFOMode = DMA_FIFOMODE_DISABLE;
 174              		.loc 1 120 0
 175 0080 0362     		str	r3, [r0, #32]
 121:Src/stm32f7xx_hal_msp.c ****     if (HAL_DMA_Init(&hdma_adc1) != HAL_OK)
 176              		.loc 1 121 0
 177 0082 4362     		str	r3, [r0, #36]
 122:Src/stm32f7xx_hal_msp.c ****     {
 178              		.loc 1 122 0
 179 0084 FFF7FEFF 		bl	HAL_DMA_Init
 180              	.LVL5:
 181 0088 18B9     		cbnz	r0, .L10
 182              	.L7:
 127:Src/stm32f7xx_hal_msp.c **** 
 183              		.loc 1 127 0
 184 008a 044B     		ldr	r3, .L11+4
 185 008c A363     		str	r3, [r4, #56]
 186 008e 9C63     		str	r4, [r3, #56]
 187              		.loc 1 134 0
 188 0090 C5E7     		b	.L5
 189              	.L10:
 124:Src/stm32f7xx_hal_msp.c ****     }
 190              		.loc 1 124 0
 191 0092 FFF7FEFF 		bl	Error_Handler
 192              	.LVL6:
 193 0096 F8E7     		b	.L7
ARM GAS  /tmp/ccmEf6XR.s 			page 7


 194              	.L12:
 195              		.align	2
 196              	.L11:
 197 0098 00080240 		.word	1073874944
 198 009c 00000000 		.word	hdma_adc1
 199 00a0 10640240 		.word	1073898512
 200              		.cfi_endproc
 201              	.LFE142:
 203              		.section	.text.HAL_ADC_MspDeInit,"ax",%progbits
 204              		.align	1
 205              		.global	HAL_ADC_MspDeInit
 206              		.syntax unified
 207              		.thumb
 208              		.thumb_func
 209              		.fpu fpv5-d16
 211              	HAL_ADC_MspDeInit:
 212              	.LFB143:
 135:Src/stm32f7xx_hal_msp.c **** 
 136:Src/stm32f7xx_hal_msp.c **** /**
 137:Src/stm32f7xx_hal_msp.c **** * @brief ADC MSP De-Initialization
 138:Src/stm32f7xx_hal_msp.c **** * This function freeze the hardware resources used in this example
 139:Src/stm32f7xx_hal_msp.c **** * @param hadc: ADC handle pointer
 140:Src/stm32f7xx_hal_msp.c **** * @retval None
 141:Src/stm32f7xx_hal_msp.c **** */
 142:Src/stm32f7xx_hal_msp.c **** void HAL_ADC_MspDeInit(ADC_HandleTypeDef* hadc)
 143:Src/stm32f7xx_hal_msp.c **** {
 213              		.loc 1 143 0
 214              		.cfi_startproc
 215              		@ args = 0, pretend = 0, frame = 0
 216              		@ frame_needed = 0, uses_anonymous_args = 0
 217              	.LVL7:
 144:Src/stm32f7xx_hal_msp.c ****   if(hadc->Instance==ADC1)
 218              		.loc 1 144 0
 219 0000 0268     		ldr	r2, [r0]
 220 0002 094B     		ldr	r3, .L20
 221 0004 9A42     		cmp	r2, r3
 222 0006 00D0     		beq	.L19
 223 0008 7047     		bx	lr
 224              	.L19:
 143:Src/stm32f7xx_hal_msp.c ****   if(hadc->Instance==ADC1)
 225              		.loc 1 143 0
 226 000a 10B5     		push	{r4, lr}
 227              	.LCFI6:
 228              		.cfi_def_cfa_offset 8
 229              		.cfi_offset 4, -8
 230              		.cfi_offset 14, -4
 231 000c 0446     		mov	r4, r0
 145:Src/stm32f7xx_hal_msp.c ****   {
 146:Src/stm32f7xx_hal_msp.c ****   /* USER CODE BEGIN ADC1_MspDeInit 0 */
 147:Src/stm32f7xx_hal_msp.c **** 
 148:Src/stm32f7xx_hal_msp.c ****   /* USER CODE END ADC1_MspDeInit 0 */
 149:Src/stm32f7xx_hal_msp.c ****     /* Peripheral clock disable */
 150:Src/stm32f7xx_hal_msp.c ****     __HAL_RCC_ADC1_CLK_DISABLE();
 232              		.loc 1 150 0
 233 000e 074A     		ldr	r2, .L20+4
 234 0010 536C     		ldr	r3, [r2, #68]
 235 0012 23F48073 		bic	r3, r3, #256
ARM GAS  /tmp/ccmEf6XR.s 			page 8


 236 0016 5364     		str	r3, [r2, #68]
 151:Src/stm32f7xx_hal_msp.c ****   
 152:Src/stm32f7xx_hal_msp.c ****     /**ADC1 GPIO Configuration    
 153:Src/stm32f7xx_hal_msp.c ****     PC0     ------> ADC1_IN10
 154:Src/stm32f7xx_hal_msp.c ****     PC1     ------> ADC1_IN11 
 155:Src/stm32f7xx_hal_msp.c ****     */
 156:Src/stm32f7xx_hal_msp.c ****     HAL_GPIO_DeInit(GPIOC, GPIO_PIN_0|GPIO_PIN_1);
 237              		.loc 1 156 0
 238 0018 0321     		movs	r1, #3
 239 001a 0548     		ldr	r0, .L20+8
 240              	.LVL8:
 241 001c FFF7FEFF 		bl	HAL_GPIO_DeInit
 242              	.LVL9:
 157:Src/stm32f7xx_hal_msp.c **** 
 158:Src/stm32f7xx_hal_msp.c ****     /* ADC1 DMA DeInit */
 159:Src/stm32f7xx_hal_msp.c ****     HAL_DMA_DeInit(hadc->DMA_Handle);
 243              		.loc 1 159 0
 244 0020 A06B     		ldr	r0, [r4, #56]
 245 0022 FFF7FEFF 		bl	HAL_DMA_DeInit
 246              	.LVL10:
 247 0026 10BD     		pop	{r4, pc}
 248              	.LVL11:
 249              	.L21:
 250              		.align	2
 251              	.L20:
 252 0028 00200140 		.word	1073815552
 253 002c 00380240 		.word	1073887232
 254 0030 00080240 		.word	1073874944
 255              		.cfi_endproc
 256              	.LFE143:
 258              		.section	.text.HAL_CAN_MspInit,"ax",%progbits
 259              		.align	1
 260              		.global	HAL_CAN_MspInit
 261              		.syntax unified
 262              		.thumb
 263              		.thumb_func
 264              		.fpu fpv5-d16
 266              	HAL_CAN_MspInit:
 267              	.LFB144:
 160:Src/stm32f7xx_hal_msp.c ****   /* USER CODE BEGIN ADC1_MspDeInit 1 */
 161:Src/stm32f7xx_hal_msp.c **** 
 162:Src/stm32f7xx_hal_msp.c ****   /* USER CODE END ADC1_MspDeInit 1 */
 163:Src/stm32f7xx_hal_msp.c ****   }
 164:Src/stm32f7xx_hal_msp.c **** 
 165:Src/stm32f7xx_hal_msp.c **** }
 166:Src/stm32f7xx_hal_msp.c **** 
 167:Src/stm32f7xx_hal_msp.c **** /**
 168:Src/stm32f7xx_hal_msp.c **** * @brief CAN MSP Initialization
 169:Src/stm32f7xx_hal_msp.c **** * This function configures the hardware resources used in this example
 170:Src/stm32f7xx_hal_msp.c **** * @param hcan: CAN handle pointer
 171:Src/stm32f7xx_hal_msp.c **** * @retval None
 172:Src/stm32f7xx_hal_msp.c **** */
 173:Src/stm32f7xx_hal_msp.c **** void HAL_CAN_MspInit(CAN_HandleTypeDef* hcan)
 174:Src/stm32f7xx_hal_msp.c **** {
 268              		.loc 1 174 0
 269              		.cfi_startproc
 270              		@ args = 0, pretend = 0, frame = 32
ARM GAS  /tmp/ccmEf6XR.s 			page 9


 271              		@ frame_needed = 0, uses_anonymous_args = 0
 272              	.LVL12:
 273 0000 00B5     		push	{lr}
 274              	.LCFI7:
 275              		.cfi_def_cfa_offset 4
 276              		.cfi_offset 14, -4
 277 0002 89B0     		sub	sp, sp, #36
 278              	.LCFI8:
 279              		.cfi_def_cfa_offset 40
 175:Src/stm32f7xx_hal_msp.c ****   GPIO_InitTypeDef GPIO_InitStruct = {0};
 280              		.loc 1 175 0
 281 0004 0023     		movs	r3, #0
 282 0006 0393     		str	r3, [sp, #12]
 283 0008 0493     		str	r3, [sp, #16]
 284 000a 0593     		str	r3, [sp, #20]
 285 000c 0693     		str	r3, [sp, #24]
 286 000e 0793     		str	r3, [sp, #28]
 176:Src/stm32f7xx_hal_msp.c ****   if(hcan->Instance==CAN1)
 287              		.loc 1 176 0
 288 0010 0268     		ldr	r2, [r0]
 289 0012 144B     		ldr	r3, .L26
 290 0014 9A42     		cmp	r2, r3
 291 0016 02D0     		beq	.L25
 292              	.LVL13:
 293              	.L22:
 177:Src/stm32f7xx_hal_msp.c ****   {
 178:Src/stm32f7xx_hal_msp.c ****   /* USER CODE BEGIN CAN1_MspInit 0 */
 179:Src/stm32f7xx_hal_msp.c **** 
 180:Src/stm32f7xx_hal_msp.c ****   /* USER CODE END CAN1_MspInit 0 */
 181:Src/stm32f7xx_hal_msp.c ****     /* Peripheral clock enable */
 182:Src/stm32f7xx_hal_msp.c ****     __HAL_RCC_CAN1_CLK_ENABLE();
 183:Src/stm32f7xx_hal_msp.c ****   
 184:Src/stm32f7xx_hal_msp.c ****     __HAL_RCC_GPIOA_CLK_ENABLE();
 185:Src/stm32f7xx_hal_msp.c ****     /**CAN1 GPIO Configuration    
 186:Src/stm32f7xx_hal_msp.c ****     PA11     ------> CAN1_RX
 187:Src/stm32f7xx_hal_msp.c ****     PA12     ------> CAN1_TX 
 188:Src/stm32f7xx_hal_msp.c ****     */
 189:Src/stm32f7xx_hal_msp.c ****     GPIO_InitStruct.Pin = GPIO_PIN_11|GPIO_PIN_12;
 190:Src/stm32f7xx_hal_msp.c ****     GPIO_InitStruct.Mode = GPIO_MODE_AF_PP;
 191:Src/stm32f7xx_hal_msp.c ****     GPIO_InitStruct.Pull = GPIO_NOPULL;
 192:Src/stm32f7xx_hal_msp.c ****     GPIO_InitStruct.Speed = GPIO_SPEED_FREQ_VERY_HIGH;
 193:Src/stm32f7xx_hal_msp.c ****     GPIO_InitStruct.Alternate = GPIO_AF9_CAN1;
 194:Src/stm32f7xx_hal_msp.c ****     HAL_GPIO_Init(GPIOA, &GPIO_InitStruct);
 195:Src/stm32f7xx_hal_msp.c **** 
 196:Src/stm32f7xx_hal_msp.c ****   /* USER CODE BEGIN CAN1_MspInit 1 */
 197:Src/stm32f7xx_hal_msp.c **** 
 198:Src/stm32f7xx_hal_msp.c ****   /* USER CODE END CAN1_MspInit 1 */
 199:Src/stm32f7xx_hal_msp.c ****   }
 200:Src/stm32f7xx_hal_msp.c **** 
 201:Src/stm32f7xx_hal_msp.c **** }
 294              		.loc 1 201 0
 295 0018 09B0     		add	sp, sp, #36
 296              	.LCFI9:
 297              		.cfi_remember_state
 298              		.cfi_def_cfa_offset 4
 299              		@ sp needed
 300 001a 5DF804FB 		ldr	pc, [sp], #4
ARM GAS  /tmp/ccmEf6XR.s 			page 10


 301              	.LVL14:
 302              	.L25:
 303              	.LCFI10:
 304              		.cfi_restore_state
 305              	.LBB6:
 182:Src/stm32f7xx_hal_msp.c ****   
 306              		.loc 1 182 0
 307 001e 03F5EA33 		add	r3, r3, #119808
 308 0022 1A6C     		ldr	r2, [r3, #64]
 309 0024 42F00072 		orr	r2, r2, #33554432
 310 0028 1A64     		str	r2, [r3, #64]
 311 002a 1A6C     		ldr	r2, [r3, #64]
 312 002c 02F00072 		and	r2, r2, #33554432
 313 0030 0192     		str	r2, [sp, #4]
 314 0032 019A     		ldr	r2, [sp, #4]
 315              	.LBE6:
 316              	.LBB7:
 184:Src/stm32f7xx_hal_msp.c ****     /**CAN1 GPIO Configuration    
 317              		.loc 1 184 0
 318 0034 1A6B     		ldr	r2, [r3, #48]
 319 0036 42F00102 		orr	r2, r2, #1
 320 003a 1A63     		str	r2, [r3, #48]
 321 003c 1B6B     		ldr	r3, [r3, #48]
 322 003e 03F00103 		and	r3, r3, #1
 323 0042 0293     		str	r3, [sp, #8]
 324 0044 029B     		ldr	r3, [sp, #8]
 325              	.LBE7:
 189:Src/stm32f7xx_hal_msp.c ****     GPIO_InitStruct.Mode = GPIO_MODE_AF_PP;
 326              		.loc 1 189 0
 327 0046 4FF4C053 		mov	r3, #6144
 328 004a 0393     		str	r3, [sp, #12]
 190:Src/stm32f7xx_hal_msp.c ****     GPIO_InitStruct.Pull = GPIO_NOPULL;
 329              		.loc 1 190 0
 330 004c 0223     		movs	r3, #2
 331 004e 0493     		str	r3, [sp, #16]
 192:Src/stm32f7xx_hal_msp.c ****     GPIO_InitStruct.Alternate = GPIO_AF9_CAN1;
 332              		.loc 1 192 0
 333 0050 0323     		movs	r3, #3
 334 0052 0693     		str	r3, [sp, #24]
 193:Src/stm32f7xx_hal_msp.c ****     HAL_GPIO_Init(GPIOA, &GPIO_InitStruct);
 335              		.loc 1 193 0
 336 0054 0923     		movs	r3, #9
 337 0056 0793     		str	r3, [sp, #28]
 194:Src/stm32f7xx_hal_msp.c **** 
 338              		.loc 1 194 0
 339 0058 03A9     		add	r1, sp, #12
 340 005a 0348     		ldr	r0, .L26+4
 341              	.LVL15:
 342 005c FFF7FEFF 		bl	HAL_GPIO_Init
 343              	.LVL16:
 344              		.loc 1 201 0
 345 0060 DAE7     		b	.L22
 346              	.L27:
 347 0062 00BF     		.align	2
 348              	.L26:
 349 0064 00640040 		.word	1073767424
 350 0068 00000240 		.word	1073872896
ARM GAS  /tmp/ccmEf6XR.s 			page 11


 351              		.cfi_endproc
 352              	.LFE144:
 354              		.section	.text.HAL_CAN_MspDeInit,"ax",%progbits
 355              		.align	1
 356              		.global	HAL_CAN_MspDeInit
 357              		.syntax unified
 358              		.thumb
 359              		.thumb_func
 360              		.fpu fpv5-d16
 362              	HAL_CAN_MspDeInit:
 363              	.LFB145:
 202:Src/stm32f7xx_hal_msp.c **** 
 203:Src/stm32f7xx_hal_msp.c **** /**
 204:Src/stm32f7xx_hal_msp.c **** * @brief CAN MSP De-Initialization
 205:Src/stm32f7xx_hal_msp.c **** * This function freeze the hardware resources used in this example
 206:Src/stm32f7xx_hal_msp.c **** * @param hcan: CAN handle pointer
 207:Src/stm32f7xx_hal_msp.c **** * @retval None
 208:Src/stm32f7xx_hal_msp.c **** */
 209:Src/stm32f7xx_hal_msp.c **** void HAL_CAN_MspDeInit(CAN_HandleTypeDef* hcan)
 210:Src/stm32f7xx_hal_msp.c **** {
 364              		.loc 1 210 0
 365              		.cfi_startproc
 366              		@ args = 0, pretend = 0, frame = 0
 367              		@ frame_needed = 0, uses_anonymous_args = 0
 368              	.LVL17:
 369 0000 08B5     		push	{r3, lr}
 370              	.LCFI11:
 371              		.cfi_def_cfa_offset 8
 372              		.cfi_offset 3, -8
 373              		.cfi_offset 14, -4
 211:Src/stm32f7xx_hal_msp.c ****   if(hcan->Instance==CAN1)
 374              		.loc 1 211 0
 375 0002 0268     		ldr	r2, [r0]
 376 0004 0B4B     		ldr	r3, .L32
 377 0006 9A42     		cmp	r2, r3
 378 0008 00D0     		beq	.L31
 379              	.LVL18:
 380              	.L28:
 381 000a 08BD     		pop	{r3, pc}
 382              	.LVL19:
 383              	.L31:
 212:Src/stm32f7xx_hal_msp.c ****   {
 213:Src/stm32f7xx_hal_msp.c ****   /* USER CODE BEGIN CAN1_MspDeInit 0 */
 214:Src/stm32f7xx_hal_msp.c **** 
 215:Src/stm32f7xx_hal_msp.c ****   /* USER CODE END CAN1_MspDeInit 0 */
 216:Src/stm32f7xx_hal_msp.c ****     /* Peripheral clock disable */
 217:Src/stm32f7xx_hal_msp.c ****     __HAL_RCC_CAN1_CLK_DISABLE();
 384              		.loc 1 217 0
 385 000c 0A4A     		ldr	r2, .L32+4
 386 000e 136C     		ldr	r3, [r2, #64]
 387 0010 23F00073 		bic	r3, r3, #33554432
 388 0014 1364     		str	r3, [r2, #64]
 218:Src/stm32f7xx_hal_msp.c ****   
 219:Src/stm32f7xx_hal_msp.c ****     /**CAN1 GPIO Configuration    
 220:Src/stm32f7xx_hal_msp.c ****     PA11     ------> CAN1_RX
 221:Src/stm32f7xx_hal_msp.c ****     PA12     ------> CAN1_TX 
 222:Src/stm32f7xx_hal_msp.c ****     */
ARM GAS  /tmp/ccmEf6XR.s 			page 12


 223:Src/stm32f7xx_hal_msp.c ****     HAL_GPIO_DeInit(GPIOA, GPIO_PIN_11|GPIO_PIN_12);
 389              		.loc 1 223 0
 390 0016 4FF4C051 		mov	r1, #6144
 391 001a 0848     		ldr	r0, .L32+8
 392              	.LVL20:
 393 001c FFF7FEFF 		bl	HAL_GPIO_DeInit
 394              	.LVL21:
 224:Src/stm32f7xx_hal_msp.c **** 
 225:Src/stm32f7xx_hal_msp.c ****     /* CAN1 interrupt DeInit */
 226:Src/stm32f7xx_hal_msp.c ****     HAL_NVIC_DisableIRQ(CAN1_RX0_IRQn);
 395              		.loc 1 226 0
 396 0020 1420     		movs	r0, #20
 397 0022 FFF7FEFF 		bl	HAL_NVIC_DisableIRQ
 398              	.LVL22:
 227:Src/stm32f7xx_hal_msp.c ****     HAL_NVIC_DisableIRQ(CAN1_RX1_IRQn);
 399              		.loc 1 227 0
 400 0026 1520     		movs	r0, #21
 401 0028 FFF7FEFF 		bl	HAL_NVIC_DisableIRQ
 402              	.LVL23:
 228:Src/stm32f7xx_hal_msp.c ****     HAL_NVIC_DisableIRQ(CAN1_SCE_IRQn);
 403              		.loc 1 228 0
 404 002c 1620     		movs	r0, #22
 405 002e FFF7FEFF 		bl	HAL_NVIC_DisableIRQ
 406              	.LVL24:
 229:Src/stm32f7xx_hal_msp.c ****   /* USER CODE BEGIN CAN1_MspDeInit 1 */
 230:Src/stm32f7xx_hal_msp.c **** 
 231:Src/stm32f7xx_hal_msp.c ****   /* USER CODE END CAN1_MspDeInit 1 */
 232:Src/stm32f7xx_hal_msp.c ****   }
 233:Src/stm32f7xx_hal_msp.c **** 
 234:Src/stm32f7xx_hal_msp.c **** }
 407              		.loc 1 234 0
 408 0032 EAE7     		b	.L28
 409              	.L33:
 410              		.align	2
 411              	.L32:
 412 0034 00640040 		.word	1073767424
 413 0038 00380240 		.word	1073887232
 414 003c 00000240 		.word	1073872896
 415              		.cfi_endproc
 416              	.LFE145:
 418              		.section	.text.HAL_SPI_MspInit,"ax",%progbits
 419              		.align	1
 420              		.global	HAL_SPI_MspInit
 421              		.syntax unified
 422              		.thumb
 423              		.thumb_func
 424              		.fpu fpv5-d16
 426              	HAL_SPI_MspInit:
 427              	.LFB146:
 235:Src/stm32f7xx_hal_msp.c **** 
 236:Src/stm32f7xx_hal_msp.c **** /**
 237:Src/stm32f7xx_hal_msp.c **** * @brief SPI MSP Initialization
 238:Src/stm32f7xx_hal_msp.c **** * This function configures the hardware resources used in this example
 239:Src/stm32f7xx_hal_msp.c **** * @param hspi: SPI handle pointer
 240:Src/stm32f7xx_hal_msp.c **** * @retval None
 241:Src/stm32f7xx_hal_msp.c **** */
 242:Src/stm32f7xx_hal_msp.c **** void HAL_SPI_MspInit(SPI_HandleTypeDef* hspi)
ARM GAS  /tmp/ccmEf6XR.s 			page 13


 243:Src/stm32f7xx_hal_msp.c **** {
 428              		.loc 1 243 0
 429              		.cfi_startproc
 430              		@ args = 0, pretend = 0, frame = 32
 431              		@ frame_needed = 0, uses_anonymous_args = 0
 432              	.LVL25:
 433 0000 70B5     		push	{r4, r5, r6, lr}
 434              	.LCFI12:
 435              		.cfi_def_cfa_offset 16
 436              		.cfi_offset 4, -16
 437              		.cfi_offset 5, -12
 438              		.cfi_offset 6, -8
 439              		.cfi_offset 14, -4
 440 0002 88B0     		sub	sp, sp, #32
 441              	.LCFI13:
 442              		.cfi_def_cfa_offset 48
 244:Src/stm32f7xx_hal_msp.c ****   GPIO_InitTypeDef GPIO_InitStruct = {0};
 443              		.loc 1 244 0
 444 0004 0023     		movs	r3, #0
 445 0006 0393     		str	r3, [sp, #12]
 446 0008 0493     		str	r3, [sp, #16]
 447 000a 0593     		str	r3, [sp, #20]
 448 000c 0693     		str	r3, [sp, #24]
 449 000e 0793     		str	r3, [sp, #28]
 245:Src/stm32f7xx_hal_msp.c ****   if(hspi->Instance==SPI2)
 450              		.loc 1 245 0
 451 0010 0268     		ldr	r2, [r0]
 452 0012 1D4B     		ldr	r3, .L38
 453 0014 9A42     		cmp	r2, r3
 454 0016 01D0     		beq	.L37
 455              	.LVL26:
 456              	.L34:
 246:Src/stm32f7xx_hal_msp.c ****   {
 247:Src/stm32f7xx_hal_msp.c ****   /* USER CODE BEGIN SPI2_MspInit 0 */
 248:Src/stm32f7xx_hal_msp.c **** 
 249:Src/stm32f7xx_hal_msp.c ****   /* USER CODE END SPI2_MspInit 0 */
 250:Src/stm32f7xx_hal_msp.c ****     /* Peripheral clock enable */
 251:Src/stm32f7xx_hal_msp.c ****     __HAL_RCC_SPI2_CLK_ENABLE();
 252:Src/stm32f7xx_hal_msp.c ****   
 253:Src/stm32f7xx_hal_msp.c ****     __HAL_RCC_GPIOB_CLK_ENABLE();
 254:Src/stm32f7xx_hal_msp.c ****     __HAL_RCC_GPIOD_CLK_ENABLE();
 255:Src/stm32f7xx_hal_msp.c ****     /**SPI2 GPIO Configuration    
 256:Src/stm32f7xx_hal_msp.c ****     PB14     ------> SPI2_MISO
 257:Src/stm32f7xx_hal_msp.c ****     PB15     ------> SPI2_MOSI
 258:Src/stm32f7xx_hal_msp.c ****     PD3     ------> SPI2_SCK 
 259:Src/stm32f7xx_hal_msp.c ****     */
 260:Src/stm32f7xx_hal_msp.c ****     GPIO_InitStruct.Pin = GPIO_PIN_14|GPIO_PIN_15;
 261:Src/stm32f7xx_hal_msp.c ****     GPIO_InitStruct.Mode = GPIO_MODE_AF_PP;
 262:Src/stm32f7xx_hal_msp.c ****     GPIO_InitStruct.Pull = GPIO_NOPULL;
 263:Src/stm32f7xx_hal_msp.c ****     GPIO_InitStruct.Speed = GPIO_SPEED_FREQ_VERY_HIGH;
 264:Src/stm32f7xx_hal_msp.c ****     GPIO_InitStruct.Alternate = GPIO_AF5_SPI2;
 265:Src/stm32f7xx_hal_msp.c ****     HAL_GPIO_Init(GPIOB, &GPIO_InitStruct);
 266:Src/stm32f7xx_hal_msp.c **** 
 267:Src/stm32f7xx_hal_msp.c ****     GPIO_InitStruct.Pin = GPIO_PIN_3;
 268:Src/stm32f7xx_hal_msp.c ****     GPIO_InitStruct.Mode = GPIO_MODE_AF_PP;
 269:Src/stm32f7xx_hal_msp.c ****     GPIO_InitStruct.Pull = GPIO_NOPULL;
 270:Src/stm32f7xx_hal_msp.c ****     GPIO_InitStruct.Speed = GPIO_SPEED_FREQ_VERY_HIGH;
ARM GAS  /tmp/ccmEf6XR.s 			page 14


 271:Src/stm32f7xx_hal_msp.c ****     GPIO_InitStruct.Alternate = GPIO_AF5_SPI2;
 272:Src/stm32f7xx_hal_msp.c ****     HAL_GPIO_Init(GPIOD, &GPIO_InitStruct);
 273:Src/stm32f7xx_hal_msp.c **** 
 274:Src/stm32f7xx_hal_msp.c ****   /* USER CODE BEGIN SPI2_MspInit 1 */
 275:Src/stm32f7xx_hal_msp.c **** 
 276:Src/stm32f7xx_hal_msp.c ****   /* USER CODE END SPI2_MspInit 1 */
 277:Src/stm32f7xx_hal_msp.c ****   }
 278:Src/stm32f7xx_hal_msp.c **** 
 279:Src/stm32f7xx_hal_msp.c **** }
 457              		.loc 1 279 0
 458 0018 08B0     		add	sp, sp, #32
 459              	.LCFI14:
 460              		.cfi_remember_state
 461              		.cfi_def_cfa_offset 16
 462              		@ sp needed
 463 001a 70BD     		pop	{r4, r5, r6, pc}
 464              	.LVL27:
 465              	.L37:
 466              	.LCFI15:
 467              		.cfi_restore_state
 468              	.LBB8:
 251:Src/stm32f7xx_hal_msp.c ****   
 469              		.loc 1 251 0
 470 001c 03F50033 		add	r3, r3, #131072
 471 0020 1A6C     		ldr	r2, [r3, #64]
 472 0022 42F48042 		orr	r2, r2, #16384
 473 0026 1A64     		str	r2, [r3, #64]
 474 0028 1A6C     		ldr	r2, [r3, #64]
 475 002a 02F48042 		and	r2, r2, #16384
 476 002e 0092     		str	r2, [sp]
 477 0030 009A     		ldr	r2, [sp]
 478              	.LBE8:
 479              	.LBB9:
 253:Src/stm32f7xx_hal_msp.c ****     __HAL_RCC_GPIOD_CLK_ENABLE();
 480              		.loc 1 253 0
 481 0032 1A6B     		ldr	r2, [r3, #48]
 482 0034 42F00202 		orr	r2, r2, #2
 483 0038 1A63     		str	r2, [r3, #48]
 484 003a 1A6B     		ldr	r2, [r3, #48]
 485 003c 02F00202 		and	r2, r2, #2
 486 0040 0192     		str	r2, [sp, #4]
 487 0042 019A     		ldr	r2, [sp, #4]
 488              	.LBE9:
 489              	.LBB10:
 254:Src/stm32f7xx_hal_msp.c ****     /**SPI2 GPIO Configuration    
 490              		.loc 1 254 0
 491 0044 1A6B     		ldr	r2, [r3, #48]
 492 0046 42F00802 		orr	r2, r2, #8
 493 004a 1A63     		str	r2, [r3, #48]
 494 004c 1B6B     		ldr	r3, [r3, #48]
 495 004e 03F00803 		and	r3, r3, #8
 496 0052 0293     		str	r3, [sp, #8]
 497 0054 029B     		ldr	r3, [sp, #8]
 498              	.LBE10:
 260:Src/stm32f7xx_hal_msp.c ****     GPIO_InitStruct.Mode = GPIO_MODE_AF_PP;
 499              		.loc 1 260 0
 500 0056 4FF44043 		mov	r3, #49152
ARM GAS  /tmp/ccmEf6XR.s 			page 15


 501 005a 0393     		str	r3, [sp, #12]
 261:Src/stm32f7xx_hal_msp.c ****     GPIO_InitStruct.Pull = GPIO_NOPULL;
 502              		.loc 1 261 0
 503 005c 0226     		movs	r6, #2
 504 005e 0496     		str	r6, [sp, #16]
 263:Src/stm32f7xx_hal_msp.c ****     GPIO_InitStruct.Alternate = GPIO_AF5_SPI2;
 505              		.loc 1 263 0
 506 0060 0325     		movs	r5, #3
 507 0062 0695     		str	r5, [sp, #24]
 264:Src/stm32f7xx_hal_msp.c ****     HAL_GPIO_Init(GPIOB, &GPIO_InitStruct);
 508              		.loc 1 264 0
 509 0064 0524     		movs	r4, #5
 510 0066 0794     		str	r4, [sp, #28]
 265:Src/stm32f7xx_hal_msp.c **** 
 511              		.loc 1 265 0
 512 0068 03A9     		add	r1, sp, #12
 513 006a 0848     		ldr	r0, .L38+4
 514              	.LVL28:
 515 006c FFF7FEFF 		bl	HAL_GPIO_Init
 516              	.LVL29:
 267:Src/stm32f7xx_hal_msp.c ****     GPIO_InitStruct.Mode = GPIO_MODE_AF_PP;
 517              		.loc 1 267 0
 518 0070 0823     		movs	r3, #8
 519 0072 0393     		str	r3, [sp, #12]
 268:Src/stm32f7xx_hal_msp.c ****     GPIO_InitStruct.Pull = GPIO_NOPULL;
 520              		.loc 1 268 0
 521 0074 0496     		str	r6, [sp, #16]
 269:Src/stm32f7xx_hal_msp.c ****     GPIO_InitStruct.Speed = GPIO_SPEED_FREQ_VERY_HIGH;
 522              		.loc 1 269 0
 523 0076 0023     		movs	r3, #0
 524 0078 0593     		str	r3, [sp, #20]
 270:Src/stm32f7xx_hal_msp.c ****     GPIO_InitStruct.Alternate = GPIO_AF5_SPI2;
 525              		.loc 1 270 0
 526 007a 0695     		str	r5, [sp, #24]
 271:Src/stm32f7xx_hal_msp.c ****     HAL_GPIO_Init(GPIOD, &GPIO_InitStruct);
 527              		.loc 1 271 0
 528 007c 0794     		str	r4, [sp, #28]
 272:Src/stm32f7xx_hal_msp.c **** 
 529              		.loc 1 272 0
 530 007e 03A9     		add	r1, sp, #12
 531 0080 0348     		ldr	r0, .L38+8
 532 0082 FFF7FEFF 		bl	HAL_GPIO_Init
 533              	.LVL30:
 534              		.loc 1 279 0
 535 0086 C7E7     		b	.L34
 536              	.L39:
 537              		.align	2
 538              	.L38:
 539 0088 00380040 		.word	1073756160
 540 008c 00040240 		.word	1073873920
 541 0090 000C0240 		.word	1073875968
 542              		.cfi_endproc
 543              	.LFE146:
 545              		.section	.text.HAL_SPI_MspDeInit,"ax",%progbits
 546              		.align	1
 547              		.global	HAL_SPI_MspDeInit
 548              		.syntax unified
ARM GAS  /tmp/ccmEf6XR.s 			page 16


 549              		.thumb
 550              		.thumb_func
 551              		.fpu fpv5-d16
 553              	HAL_SPI_MspDeInit:
 554              	.LFB147:
 280:Src/stm32f7xx_hal_msp.c **** 
 281:Src/stm32f7xx_hal_msp.c **** /**
 282:Src/stm32f7xx_hal_msp.c **** * @brief SPI MSP De-Initialization
 283:Src/stm32f7xx_hal_msp.c **** * This function freeze the hardware resources used in this example
 284:Src/stm32f7xx_hal_msp.c **** * @param hspi: SPI handle pointer
 285:Src/stm32f7xx_hal_msp.c **** * @retval None
 286:Src/stm32f7xx_hal_msp.c **** */
 287:Src/stm32f7xx_hal_msp.c **** void HAL_SPI_MspDeInit(SPI_HandleTypeDef* hspi)
 288:Src/stm32f7xx_hal_msp.c **** {
 555              		.loc 1 288 0
 556              		.cfi_startproc
 557              		@ args = 0, pretend = 0, frame = 0
 558              		@ frame_needed = 0, uses_anonymous_args = 0
 559              	.LVL31:
 560 0000 08B5     		push	{r3, lr}
 561              	.LCFI16:
 562              		.cfi_def_cfa_offset 8
 563              		.cfi_offset 3, -8
 564              		.cfi_offset 14, -4
 289:Src/stm32f7xx_hal_msp.c ****   if(hspi->Instance==SPI2)
 565              		.loc 1 289 0
 566 0002 0268     		ldr	r2, [r0]
 567 0004 094B     		ldr	r3, .L44
 568 0006 9A42     		cmp	r2, r3
 569 0008 00D0     		beq	.L43
 570              	.LVL32:
 571              	.L40:
 572 000a 08BD     		pop	{r3, pc}
 573              	.LVL33:
 574              	.L43:
 290:Src/stm32f7xx_hal_msp.c ****   {
 291:Src/stm32f7xx_hal_msp.c ****   /* USER CODE BEGIN SPI2_MspDeInit 0 */
 292:Src/stm32f7xx_hal_msp.c **** 
 293:Src/stm32f7xx_hal_msp.c ****   /* USER CODE END SPI2_MspDeInit 0 */
 294:Src/stm32f7xx_hal_msp.c ****     /* Peripheral clock disable */
 295:Src/stm32f7xx_hal_msp.c ****     __HAL_RCC_SPI2_CLK_DISABLE();
 575              		.loc 1 295 0
 576 000c 084A     		ldr	r2, .L44+4
 577 000e 136C     		ldr	r3, [r2, #64]
 578 0010 23F48043 		bic	r3, r3, #16384
 579 0014 1364     		str	r3, [r2, #64]
 296:Src/stm32f7xx_hal_msp.c ****   
 297:Src/stm32f7xx_hal_msp.c ****     /**SPI2 GPIO Configuration    
 298:Src/stm32f7xx_hal_msp.c ****     PB14     ------> SPI2_MISO
 299:Src/stm32f7xx_hal_msp.c ****     PB15     ------> SPI2_MOSI
 300:Src/stm32f7xx_hal_msp.c ****     PD3     ------> SPI2_SCK 
 301:Src/stm32f7xx_hal_msp.c ****     */
 302:Src/stm32f7xx_hal_msp.c ****     HAL_GPIO_DeInit(GPIOB, GPIO_PIN_14|GPIO_PIN_15);
 580              		.loc 1 302 0
 581 0016 4FF44041 		mov	r1, #49152
 582 001a 0648     		ldr	r0, .L44+8
 583              	.LVL34:
ARM GAS  /tmp/ccmEf6XR.s 			page 17


 584 001c FFF7FEFF 		bl	HAL_GPIO_DeInit
 585              	.LVL35:
 303:Src/stm32f7xx_hal_msp.c **** 
 304:Src/stm32f7xx_hal_msp.c ****     HAL_GPIO_DeInit(GPIOD, GPIO_PIN_3);
 586              		.loc 1 304 0
 587 0020 0821     		movs	r1, #8
 588 0022 0548     		ldr	r0, .L44+12
 589 0024 FFF7FEFF 		bl	HAL_GPIO_DeInit
 590              	.LVL36:
 305:Src/stm32f7xx_hal_msp.c **** 
 306:Src/stm32f7xx_hal_msp.c ****   /* USER CODE BEGIN SPI2_MspDeInit 1 */
 307:Src/stm32f7xx_hal_msp.c **** 
 308:Src/stm32f7xx_hal_msp.c ****   /* USER CODE END SPI2_MspDeInit 1 */
 309:Src/stm32f7xx_hal_msp.c ****   }
 310:Src/stm32f7xx_hal_msp.c **** 
 311:Src/stm32f7xx_hal_msp.c **** }
 591              		.loc 1 311 0
 592 0028 EFE7     		b	.L40
 593              	.L45:
 594 002a 00BF     		.align	2
 595              	.L44:
 596 002c 00380040 		.word	1073756160
 597 0030 00380240 		.word	1073887232
 598 0034 00040240 		.word	1073873920
 599 0038 000C0240 		.word	1073875968
 600              		.cfi_endproc
 601              	.LFE147:
 603              		.section	.text.HAL_TIM_Base_MspInit,"ax",%progbits
 604              		.align	1
 605              		.global	HAL_TIM_Base_MspInit
 606              		.syntax unified
 607              		.thumb
 608              		.thumb_func
 609              		.fpu fpv5-d16
 611              	HAL_TIM_Base_MspInit:
 612              	.LFB148:
 312:Src/stm32f7xx_hal_msp.c **** 
 313:Src/stm32f7xx_hal_msp.c **** /**
 314:Src/stm32f7xx_hal_msp.c **** * @brief TIM_Base MSP Initialization
 315:Src/stm32f7xx_hal_msp.c **** * This function configures the hardware resources used in this example
 316:Src/stm32f7xx_hal_msp.c **** * @param htim_base: TIM_Base handle pointer
 317:Src/stm32f7xx_hal_msp.c **** * @retval None
 318:Src/stm32f7xx_hal_msp.c **** */
 319:Src/stm32f7xx_hal_msp.c **** void HAL_TIM_Base_MspInit(TIM_HandleTypeDef* htim_base)
 320:Src/stm32f7xx_hal_msp.c **** {
 613              		.loc 1 320 0
 614              		.cfi_startproc
 615              		@ args = 0, pretend = 0, frame = 16
 616              		@ frame_needed = 0, uses_anonymous_args = 0
 617              		@ link register save eliminated.
 618              	.LVL37:
 619 0000 84B0     		sub	sp, sp, #16
 620              	.LCFI17:
 621              		.cfi_def_cfa_offset 16
 321:Src/stm32f7xx_hal_msp.c ****   if(htim_base->Instance==TIM2)
 622              		.loc 1 321 0
 623 0002 0368     		ldr	r3, [r0]
ARM GAS  /tmp/ccmEf6XR.s 			page 18


 624 0004 B3F1804F 		cmp	r3, #1073741824
 625 0008 07D0     		beq	.L51
 322:Src/stm32f7xx_hal_msp.c ****   {
 323:Src/stm32f7xx_hal_msp.c ****   /* USER CODE BEGIN TIM2_MspInit 0 */
 324:Src/stm32f7xx_hal_msp.c **** 
 325:Src/stm32f7xx_hal_msp.c ****   /* USER CODE END TIM2_MspInit 0 */
 326:Src/stm32f7xx_hal_msp.c ****     /* Peripheral clock enable */
 327:Src/stm32f7xx_hal_msp.c ****     __HAL_RCC_TIM2_CLK_ENABLE();
 328:Src/stm32f7xx_hal_msp.c ****   /* USER CODE BEGIN TIM2_MspInit 1 */
 329:Src/stm32f7xx_hal_msp.c **** 
 330:Src/stm32f7xx_hal_msp.c ****   /* USER CODE END TIM2_MspInit 1 */
 331:Src/stm32f7xx_hal_msp.c ****   }
 332:Src/stm32f7xx_hal_msp.c ****   else if(htim_base->Instance==TIM3)
 626              		.loc 1 332 0
 627 000a 154A     		ldr	r2, .L54
 628 000c 9342     		cmp	r3, r2
 629 000e 10D0     		beq	.L52
 333:Src/stm32f7xx_hal_msp.c ****   {
 334:Src/stm32f7xx_hal_msp.c ****   /* USER CODE BEGIN TIM3_MspInit 0 */
 335:Src/stm32f7xx_hal_msp.c **** 
 336:Src/stm32f7xx_hal_msp.c ****   /* USER CODE END TIM3_MspInit 0 */
 337:Src/stm32f7xx_hal_msp.c ****     /* Peripheral clock enable */
 338:Src/stm32f7xx_hal_msp.c ****     __HAL_RCC_TIM3_CLK_ENABLE();
 339:Src/stm32f7xx_hal_msp.c ****   /* USER CODE BEGIN TIM3_MspInit 1 */
 340:Src/stm32f7xx_hal_msp.c **** 
 341:Src/stm32f7xx_hal_msp.c ****   /* USER CODE END TIM3_MspInit 1 */
 342:Src/stm32f7xx_hal_msp.c ****   }
 343:Src/stm32f7xx_hal_msp.c ****   else if(htim_base->Instance==TIM4)
 630              		.loc 1 343 0
 631 0010 144A     		ldr	r2, .L54+4
 632 0012 9342     		cmp	r3, r2
 633 0014 18D0     		beq	.L53
 634              	.L46:
 344:Src/stm32f7xx_hal_msp.c ****   {
 345:Src/stm32f7xx_hal_msp.c ****   /* USER CODE BEGIN TIM4_MspInit 0 */
 346:Src/stm32f7xx_hal_msp.c **** 
 347:Src/stm32f7xx_hal_msp.c ****   /* USER CODE END TIM4_MspInit 0 */
 348:Src/stm32f7xx_hal_msp.c ****     /* Peripheral clock enable */
 349:Src/stm32f7xx_hal_msp.c ****     __HAL_RCC_TIM4_CLK_ENABLE();
 350:Src/stm32f7xx_hal_msp.c ****   /* USER CODE BEGIN TIM4_MspInit 1 */
 351:Src/stm32f7xx_hal_msp.c **** 
 352:Src/stm32f7xx_hal_msp.c ****   /* USER CODE END TIM4_MspInit 1 */
 353:Src/stm32f7xx_hal_msp.c ****   }
 354:Src/stm32f7xx_hal_msp.c **** 
 355:Src/stm32f7xx_hal_msp.c **** }
 635              		.loc 1 355 0
 636 0016 04B0     		add	sp, sp, #16
 637              	.LCFI18:
 638              		.cfi_remember_state
 639              		.cfi_def_cfa_offset 0
 640              		@ sp needed
 641 0018 7047     		bx	lr
 642              	.L51:
 643              	.LCFI19:
 644              		.cfi_restore_state
 645              	.LBB11:
 327:Src/stm32f7xx_hal_msp.c ****   /* USER CODE BEGIN TIM2_MspInit 1 */
ARM GAS  /tmp/ccmEf6XR.s 			page 19


 646              		.loc 1 327 0
 647 001a 03F50E33 		add	r3, r3, #145408
 648 001e 1A6C     		ldr	r2, [r3, #64]
 649 0020 42F00102 		orr	r2, r2, #1
 650 0024 1A64     		str	r2, [r3, #64]
 651 0026 1B6C     		ldr	r3, [r3, #64]
 652 0028 03F00103 		and	r3, r3, #1
 653 002c 0193     		str	r3, [sp, #4]
 654 002e 019B     		ldr	r3, [sp, #4]
 655              	.LBE11:
 656 0030 F1E7     		b	.L46
 657              	.L52:
 658              	.LBB12:
 338:Src/stm32f7xx_hal_msp.c ****   /* USER CODE BEGIN TIM3_MspInit 1 */
 659              		.loc 1 338 0
 660 0032 0D4B     		ldr	r3, .L54+8
 661 0034 1A6C     		ldr	r2, [r3, #64]
 662 0036 42F00202 		orr	r2, r2, #2
 663 003a 1A64     		str	r2, [r3, #64]
 664 003c 1B6C     		ldr	r3, [r3, #64]
 665 003e 03F00203 		and	r3, r3, #2
 666 0042 0293     		str	r3, [sp, #8]
 667 0044 029B     		ldr	r3, [sp, #8]
 668              	.LBE12:
 669 0046 E6E7     		b	.L46
 670              	.L53:
 671              	.LBB13:
 349:Src/stm32f7xx_hal_msp.c ****   /* USER CODE BEGIN TIM4_MspInit 1 */
 672              		.loc 1 349 0
 673 0048 074B     		ldr	r3, .L54+8
 674 004a 1A6C     		ldr	r2, [r3, #64]
 675 004c 42F00402 		orr	r2, r2, #4
 676 0050 1A64     		str	r2, [r3, #64]
 677 0052 1B6C     		ldr	r3, [r3, #64]
 678 0054 03F00403 		and	r3, r3, #4
 679 0058 0393     		str	r3, [sp, #12]
 680 005a 039B     		ldr	r3, [sp, #12]
 681              	.LBE13:
 682              		.loc 1 355 0
 683 005c DBE7     		b	.L46
 684              	.L55:
 685 005e 00BF     		.align	2
 686              	.L54:
 687 0060 00040040 		.word	1073742848
 688 0064 00080040 		.word	1073743872
 689 0068 00380240 		.word	1073887232
 690              		.cfi_endproc
 691              	.LFE148:
 693              		.section	.text.HAL_TIM_MspPostInit,"ax",%progbits
 694              		.align	1
 695              		.global	HAL_TIM_MspPostInit
 696              		.syntax unified
 697              		.thumb
 698              		.thumb_func
 699              		.fpu fpv5-d16
 701              	HAL_TIM_MspPostInit:
 702              	.LFB149:
ARM GAS  /tmp/ccmEf6XR.s 			page 20


 356:Src/stm32f7xx_hal_msp.c **** 
 357:Src/stm32f7xx_hal_msp.c **** void HAL_TIM_MspPostInit(TIM_HandleTypeDef* htim)
 358:Src/stm32f7xx_hal_msp.c **** {
 703              		.loc 1 358 0
 704              		.cfi_startproc
 705              		@ args = 0, pretend = 0, frame = 32
 706              		@ frame_needed = 0, uses_anonymous_args = 0
 707              	.LVL38:
 708 0000 00B5     		push	{lr}
 709              	.LCFI20:
 710              		.cfi_def_cfa_offset 4
 711              		.cfi_offset 14, -4
 712 0002 89B0     		sub	sp, sp, #36
 713              	.LCFI21:
 714              		.cfi_def_cfa_offset 40
 359:Src/stm32f7xx_hal_msp.c ****   GPIO_InitTypeDef GPIO_InitStruct = {0};
 715              		.loc 1 359 0
 716 0004 0023     		movs	r3, #0
 717 0006 0393     		str	r3, [sp, #12]
 718 0008 0493     		str	r3, [sp, #16]
 719 000a 0593     		str	r3, [sp, #20]
 720 000c 0693     		str	r3, [sp, #24]
 721 000e 0793     		str	r3, [sp, #28]
 360:Src/stm32f7xx_hal_msp.c ****   if(htim->Instance==TIM2)
 722              		.loc 1 360 0
 723 0010 0368     		ldr	r3, [r0]
 724 0012 B3F1804F 		cmp	r3, #1073741824
 725 0016 08D0     		beq	.L61
 361:Src/stm32f7xx_hal_msp.c ****   {
 362:Src/stm32f7xx_hal_msp.c ****   /* USER CODE BEGIN TIM2_MspPostInit 0 */
 363:Src/stm32f7xx_hal_msp.c **** 
 364:Src/stm32f7xx_hal_msp.c ****   /* USER CODE END TIM2_MspPostInit 0 */
 365:Src/stm32f7xx_hal_msp.c ****     __HAL_RCC_GPIOA_CLK_ENABLE();
 366:Src/stm32f7xx_hal_msp.c ****     /**TIM2 GPIO Configuration    
 367:Src/stm32f7xx_hal_msp.c ****     PA1     ------> TIM2_CH2
 368:Src/stm32f7xx_hal_msp.c ****     PA5     ------> TIM2_CH1 
 369:Src/stm32f7xx_hal_msp.c ****     */
 370:Src/stm32f7xx_hal_msp.c ****     GPIO_InitStruct.Pin = GPIO_PIN_1|GPIO_PIN_5;
 371:Src/stm32f7xx_hal_msp.c ****     GPIO_InitStruct.Mode = GPIO_MODE_AF_PP;
 372:Src/stm32f7xx_hal_msp.c ****     GPIO_InitStruct.Pull = GPIO_NOPULL;
 373:Src/stm32f7xx_hal_msp.c ****     GPIO_InitStruct.Speed = GPIO_SPEED_FREQ_LOW;
 374:Src/stm32f7xx_hal_msp.c ****     GPIO_InitStruct.Alternate = GPIO_AF1_TIM2;
 375:Src/stm32f7xx_hal_msp.c ****     HAL_GPIO_Init(GPIOA, &GPIO_InitStruct);
 376:Src/stm32f7xx_hal_msp.c **** 
 377:Src/stm32f7xx_hal_msp.c ****   /* USER CODE BEGIN TIM2_MspPostInit 1 */
 378:Src/stm32f7xx_hal_msp.c **** 
 379:Src/stm32f7xx_hal_msp.c ****   /* USER CODE END TIM2_MspPostInit 1 */
 380:Src/stm32f7xx_hal_msp.c ****   }
 381:Src/stm32f7xx_hal_msp.c ****   else if(htim->Instance==TIM3)
 726              		.loc 1 381 0
 727 0018 234A     		ldr	r2, .L64
 728 001a 9342     		cmp	r3, r2
 729 001c 1BD0     		beq	.L62
 382:Src/stm32f7xx_hal_msp.c ****   {
 383:Src/stm32f7xx_hal_msp.c ****   /* USER CODE BEGIN TIM3_MspPostInit 0 */
 384:Src/stm32f7xx_hal_msp.c **** 
 385:Src/stm32f7xx_hal_msp.c ****   /* USER CODE END TIM3_MspPostInit 0 */
ARM GAS  /tmp/ccmEf6XR.s 			page 21


 386:Src/stm32f7xx_hal_msp.c ****   
 387:Src/stm32f7xx_hal_msp.c ****     __HAL_RCC_GPIOA_CLK_ENABLE();
 388:Src/stm32f7xx_hal_msp.c ****     /**TIM3 GPIO Configuration    
 389:Src/stm32f7xx_hal_msp.c ****     PA6     ------> TIM3_CH1 
 390:Src/stm32f7xx_hal_msp.c ****     */
 391:Src/stm32f7xx_hal_msp.c ****     GPIO_InitStruct.Pin = GPIO_PIN_6;
 392:Src/stm32f7xx_hal_msp.c ****     GPIO_InitStruct.Mode = GPIO_MODE_AF_PP;
 393:Src/stm32f7xx_hal_msp.c ****     GPIO_InitStruct.Pull = GPIO_NOPULL;
 394:Src/stm32f7xx_hal_msp.c ****     GPIO_InitStruct.Speed = GPIO_SPEED_FREQ_LOW;
 395:Src/stm32f7xx_hal_msp.c ****     GPIO_InitStruct.Alternate = GPIO_AF2_TIM3;
 396:Src/stm32f7xx_hal_msp.c ****     HAL_GPIO_Init(GPIOA, &GPIO_InitStruct);
 397:Src/stm32f7xx_hal_msp.c **** 
 398:Src/stm32f7xx_hal_msp.c ****   /* USER CODE BEGIN TIM3_MspPostInit 1 */
 399:Src/stm32f7xx_hal_msp.c **** 
 400:Src/stm32f7xx_hal_msp.c ****   /* USER CODE END TIM3_MspPostInit 1 */
 401:Src/stm32f7xx_hal_msp.c ****   }
 402:Src/stm32f7xx_hal_msp.c ****   else if(htim->Instance==TIM4)
 730              		.loc 1 402 0
 731 001e 234A     		ldr	r2, .L64+4
 732 0020 9342     		cmp	r3, r2
 733 0022 2CD0     		beq	.L63
 734              	.LVL39:
 735              	.L56:
 403:Src/stm32f7xx_hal_msp.c ****   {
 404:Src/stm32f7xx_hal_msp.c ****   /* USER CODE BEGIN TIM4_MspPostInit 0 */
 405:Src/stm32f7xx_hal_msp.c **** 
 406:Src/stm32f7xx_hal_msp.c ****   /* USER CODE END TIM4_MspPostInit 0 */
 407:Src/stm32f7xx_hal_msp.c ****   
 408:Src/stm32f7xx_hal_msp.c ****     __HAL_RCC_GPIOD_CLK_ENABLE();
 409:Src/stm32f7xx_hal_msp.c ****     /**TIM4 GPIO Configuration    
 410:Src/stm32f7xx_hal_msp.c ****     PD12     ------> TIM4_CH1
 411:Src/stm32f7xx_hal_msp.c ****     PD13     ------> TIM4_CH2 
 412:Src/stm32f7xx_hal_msp.c ****     */
 413:Src/stm32f7xx_hal_msp.c ****     GPIO_InitStruct.Pin = GPIO_PIN_12|GPIO_PIN_13;
 414:Src/stm32f7xx_hal_msp.c ****     GPIO_InitStruct.Mode = GPIO_MODE_AF_PP;
 415:Src/stm32f7xx_hal_msp.c ****     GPIO_InitStruct.Pull = GPIO_NOPULL;
 416:Src/stm32f7xx_hal_msp.c ****     GPIO_InitStruct.Speed = GPIO_SPEED_FREQ_LOW;
 417:Src/stm32f7xx_hal_msp.c ****     GPIO_InitStruct.Alternate = GPIO_AF2_TIM4;
 418:Src/stm32f7xx_hal_msp.c ****     HAL_GPIO_Init(GPIOD, &GPIO_InitStruct);
 419:Src/stm32f7xx_hal_msp.c **** 
 420:Src/stm32f7xx_hal_msp.c ****   /* USER CODE BEGIN TIM4_MspPostInit 1 */
 421:Src/stm32f7xx_hal_msp.c **** 
 422:Src/stm32f7xx_hal_msp.c ****   /* USER CODE END TIM4_MspPostInit 1 */
 423:Src/stm32f7xx_hal_msp.c ****   }
 424:Src/stm32f7xx_hal_msp.c **** 
 425:Src/stm32f7xx_hal_msp.c **** }
 736              		.loc 1 425 0
 737 0024 09B0     		add	sp, sp, #36
 738              	.LCFI22:
 739              		.cfi_remember_state
 740              		.cfi_def_cfa_offset 4
 741              		@ sp needed
 742 0026 5DF804FB 		ldr	pc, [sp], #4
 743              	.LVL40:
 744              	.L61:
 745              	.LCFI23:
 746              		.cfi_restore_state
ARM GAS  /tmp/ccmEf6XR.s 			page 22


 747              	.LBB14:
 365:Src/stm32f7xx_hal_msp.c ****     /**TIM2 GPIO Configuration    
 748              		.loc 1 365 0
 749 002a 03F50E33 		add	r3, r3, #145408
 750 002e 1A6B     		ldr	r2, [r3, #48]
 751 0030 42F00102 		orr	r2, r2, #1
 752 0034 1A63     		str	r2, [r3, #48]
 753 0036 1B6B     		ldr	r3, [r3, #48]
 754 0038 03F00103 		and	r3, r3, #1
 755 003c 0093     		str	r3, [sp]
 756 003e 009B     		ldr	r3, [sp]
 757              	.LBE14:
 370:Src/stm32f7xx_hal_msp.c ****     GPIO_InitStruct.Mode = GPIO_MODE_AF_PP;
 758              		.loc 1 370 0
 759 0040 2223     		movs	r3, #34
 760 0042 0393     		str	r3, [sp, #12]
 371:Src/stm32f7xx_hal_msp.c ****     GPIO_InitStruct.Pull = GPIO_NOPULL;
 761              		.loc 1 371 0
 762 0044 0223     		movs	r3, #2
 763 0046 0493     		str	r3, [sp, #16]
 374:Src/stm32f7xx_hal_msp.c ****     HAL_GPIO_Init(GPIOA, &GPIO_InitStruct);
 764              		.loc 1 374 0
 765 0048 0123     		movs	r3, #1
 766 004a 0793     		str	r3, [sp, #28]
 375:Src/stm32f7xx_hal_msp.c **** 
 767              		.loc 1 375 0
 768 004c 03A9     		add	r1, sp, #12
 769 004e 1848     		ldr	r0, .L64+8
 770              	.LVL41:
 771 0050 FFF7FEFF 		bl	HAL_GPIO_Init
 772              	.LVL42:
 773 0054 E6E7     		b	.L56
 774              	.LVL43:
 775              	.L62:
 776              	.LBB15:
 387:Src/stm32f7xx_hal_msp.c ****     /**TIM3 GPIO Configuration    
 777              		.loc 1 387 0
 778 0056 174B     		ldr	r3, .L64+12
 779 0058 1A6B     		ldr	r2, [r3, #48]
 780 005a 42F00102 		orr	r2, r2, #1
 781 005e 1A63     		str	r2, [r3, #48]
 782 0060 1B6B     		ldr	r3, [r3, #48]
 783 0062 03F00103 		and	r3, r3, #1
 784 0066 0193     		str	r3, [sp, #4]
 785 0068 019B     		ldr	r3, [sp, #4]
 786              	.LBE15:
 391:Src/stm32f7xx_hal_msp.c ****     GPIO_InitStruct.Mode = GPIO_MODE_AF_PP;
 787              		.loc 1 391 0
 788 006a 4023     		movs	r3, #64
 789 006c 0393     		str	r3, [sp, #12]
 392:Src/stm32f7xx_hal_msp.c ****     GPIO_InitStruct.Pull = GPIO_NOPULL;
 790              		.loc 1 392 0
 791 006e 0223     		movs	r3, #2
 792 0070 0493     		str	r3, [sp, #16]
 395:Src/stm32f7xx_hal_msp.c ****     HAL_GPIO_Init(GPIOA, &GPIO_InitStruct);
 793              		.loc 1 395 0
 794 0072 0793     		str	r3, [sp, #28]
ARM GAS  /tmp/ccmEf6XR.s 			page 23


 396:Src/stm32f7xx_hal_msp.c **** 
 795              		.loc 1 396 0
 796 0074 03A9     		add	r1, sp, #12
 797 0076 0E48     		ldr	r0, .L64+8
 798              	.LVL44:
 799 0078 FFF7FEFF 		bl	HAL_GPIO_Init
 800              	.LVL45:
 801 007c D2E7     		b	.L56
 802              	.LVL46:
 803              	.L63:
 804              	.LBB16:
 408:Src/stm32f7xx_hal_msp.c ****     /**TIM4 GPIO Configuration    
 805              		.loc 1 408 0
 806 007e 0D4B     		ldr	r3, .L64+12
 807 0080 1A6B     		ldr	r2, [r3, #48]
 808 0082 42F00802 		orr	r2, r2, #8
 809 0086 1A63     		str	r2, [r3, #48]
 810 0088 1B6B     		ldr	r3, [r3, #48]
 811 008a 03F00803 		and	r3, r3, #8
 812 008e 0293     		str	r3, [sp, #8]
 813 0090 029B     		ldr	r3, [sp, #8]
 814              	.LBE16:
 413:Src/stm32f7xx_hal_msp.c ****     GPIO_InitStruct.Mode = GPIO_MODE_AF_PP;
 815              		.loc 1 413 0
 816 0092 4FF44053 		mov	r3, #12288
 817 0096 0393     		str	r3, [sp, #12]
 414:Src/stm32f7xx_hal_msp.c ****     GPIO_InitStruct.Pull = GPIO_NOPULL;
 818              		.loc 1 414 0
 819 0098 0223     		movs	r3, #2
 820 009a 0493     		str	r3, [sp, #16]
 417:Src/stm32f7xx_hal_msp.c ****     HAL_GPIO_Init(GPIOD, &GPIO_InitStruct);
 821              		.loc 1 417 0
 822 009c 0793     		str	r3, [sp, #28]
 418:Src/stm32f7xx_hal_msp.c **** 
 823              		.loc 1 418 0
 824 009e 03A9     		add	r1, sp, #12
 825 00a0 0548     		ldr	r0, .L64+16
 826              	.LVL47:
 827 00a2 FFF7FEFF 		bl	HAL_GPIO_Init
 828              	.LVL48:
 829              		.loc 1 425 0
 830 00a6 BDE7     		b	.L56
 831              	.L65:
 832              		.align	2
 833              	.L64:
 834 00a8 00040040 		.word	1073742848
 835 00ac 00080040 		.word	1073743872
 836 00b0 00000240 		.word	1073872896
 837 00b4 00380240 		.word	1073887232
 838 00b8 000C0240 		.word	1073875968
 839              		.cfi_endproc
 840              	.LFE149:
 842              		.section	.text.HAL_TIM_Base_MspDeInit,"ax",%progbits
 843              		.align	1
 844              		.global	HAL_TIM_Base_MspDeInit
 845              		.syntax unified
 846              		.thumb
ARM GAS  /tmp/ccmEf6XR.s 			page 24


 847              		.thumb_func
 848              		.fpu fpv5-d16
 850              	HAL_TIM_Base_MspDeInit:
 851              	.LFB150:
 426:Src/stm32f7xx_hal_msp.c **** /**
 427:Src/stm32f7xx_hal_msp.c **** * @brief TIM_Base MSP De-Initialization
 428:Src/stm32f7xx_hal_msp.c **** * This function freeze the hardware resources used in this example
 429:Src/stm32f7xx_hal_msp.c **** * @param htim_base: TIM_Base handle pointer
 430:Src/stm32f7xx_hal_msp.c **** * @retval None
 431:Src/stm32f7xx_hal_msp.c **** */
 432:Src/stm32f7xx_hal_msp.c **** void HAL_TIM_Base_MspDeInit(TIM_HandleTypeDef* htim_base)
 433:Src/stm32f7xx_hal_msp.c **** {
 852              		.loc 1 433 0
 853              		.cfi_startproc
 854              		@ args = 0, pretend = 0, frame = 0
 855              		@ frame_needed = 0, uses_anonymous_args = 0
 856              		@ link register save eliminated.
 857              	.LVL49:
 434:Src/stm32f7xx_hal_msp.c ****   if(htim_base->Instance==TIM2)
 858              		.loc 1 434 0
 859 0000 0368     		ldr	r3, [r0]
 860 0002 B3F1804F 		cmp	r3, #1073741824
 861 0006 06D0     		beq	.L70
 435:Src/stm32f7xx_hal_msp.c ****   {
 436:Src/stm32f7xx_hal_msp.c ****   /* USER CODE BEGIN TIM2_MspDeInit 0 */
 437:Src/stm32f7xx_hal_msp.c **** 
 438:Src/stm32f7xx_hal_msp.c ****   /* USER CODE END TIM2_MspDeInit 0 */
 439:Src/stm32f7xx_hal_msp.c ****     /* Peripheral clock disable */
 440:Src/stm32f7xx_hal_msp.c ****     __HAL_RCC_TIM2_CLK_DISABLE();
 441:Src/stm32f7xx_hal_msp.c ****   /* USER CODE BEGIN TIM2_MspDeInit 1 */
 442:Src/stm32f7xx_hal_msp.c **** 
 443:Src/stm32f7xx_hal_msp.c ****   /* USER CODE END TIM2_MspDeInit 1 */
 444:Src/stm32f7xx_hal_msp.c ****   }
 445:Src/stm32f7xx_hal_msp.c ****   else if(htim_base->Instance==TIM3)
 862              		.loc 1 445 0
 863 0008 0D4A     		ldr	r2, .L73
 864 000a 9342     		cmp	r3, r2
 865 000c 09D0     		beq	.L71
 446:Src/stm32f7xx_hal_msp.c ****   {
 447:Src/stm32f7xx_hal_msp.c ****   /* USER CODE BEGIN TIM3_MspDeInit 0 */
 448:Src/stm32f7xx_hal_msp.c **** 
 449:Src/stm32f7xx_hal_msp.c ****   /* USER CODE END TIM3_MspDeInit 0 */
 450:Src/stm32f7xx_hal_msp.c ****     /* Peripheral clock disable */
 451:Src/stm32f7xx_hal_msp.c ****     __HAL_RCC_TIM3_CLK_DISABLE();
 452:Src/stm32f7xx_hal_msp.c ****   /* USER CODE BEGIN TIM3_MspDeInit 1 */
 453:Src/stm32f7xx_hal_msp.c **** 
 454:Src/stm32f7xx_hal_msp.c ****   /* USER CODE END TIM3_MspDeInit 1 */
 455:Src/stm32f7xx_hal_msp.c ****   }
 456:Src/stm32f7xx_hal_msp.c ****   else if(htim_base->Instance==TIM4)
 866              		.loc 1 456 0
 867 000e 0D4A     		ldr	r2, .L73+4
 868 0010 9342     		cmp	r3, r2
 869 0012 0DD0     		beq	.L72
 870              	.L66:
 871 0014 7047     		bx	lr
 872              	.L70:
 440:Src/stm32f7xx_hal_msp.c ****   /* USER CODE BEGIN TIM2_MspDeInit 1 */
ARM GAS  /tmp/ccmEf6XR.s 			page 25


 873              		.loc 1 440 0
 874 0016 0C4A     		ldr	r2, .L73+8
 875 0018 136C     		ldr	r3, [r2, #64]
 876 001a 23F00103 		bic	r3, r3, #1
 877 001e 1364     		str	r3, [r2, #64]
 878 0020 7047     		bx	lr
 879              	.L71:
 451:Src/stm32f7xx_hal_msp.c ****   /* USER CODE BEGIN TIM3_MspDeInit 1 */
 880              		.loc 1 451 0
 881 0022 02F50D32 		add	r2, r2, #144384
 882 0026 136C     		ldr	r3, [r2, #64]
 883 0028 23F00203 		bic	r3, r3, #2
 884 002c 1364     		str	r3, [r2, #64]
 885 002e 7047     		bx	lr
 886              	.L72:
 457:Src/stm32f7xx_hal_msp.c ****   {
 458:Src/stm32f7xx_hal_msp.c ****   /* USER CODE BEGIN TIM4_MspDeInit 0 */
 459:Src/stm32f7xx_hal_msp.c **** 
 460:Src/stm32f7xx_hal_msp.c ****   /* USER CODE END TIM4_MspDeInit 0 */
 461:Src/stm32f7xx_hal_msp.c ****     /* Peripheral clock disable */
 462:Src/stm32f7xx_hal_msp.c ****     __HAL_RCC_TIM4_CLK_DISABLE();
 887              		.loc 1 462 0
 888 0030 02F50C32 		add	r2, r2, #143360
 889 0034 136C     		ldr	r3, [r2, #64]
 890 0036 23F00403 		bic	r3, r3, #4
 891 003a 1364     		str	r3, [r2, #64]
 463:Src/stm32f7xx_hal_msp.c ****   /* USER CODE BEGIN TIM4_MspDeInit 1 */
 464:Src/stm32f7xx_hal_msp.c **** 
 465:Src/stm32f7xx_hal_msp.c ****   /* USER CODE END TIM4_MspDeInit 1 */
 466:Src/stm32f7xx_hal_msp.c ****   }
 467:Src/stm32f7xx_hal_msp.c **** 
 468:Src/stm32f7xx_hal_msp.c **** }
 892              		.loc 1 468 0
 893 003c EAE7     		b	.L66
 894              	.L74:
 895 003e 00BF     		.align	2
 896              	.L73:
 897 0040 00040040 		.word	1073742848
 898 0044 00080040 		.word	1073743872
 899 0048 00380240 		.word	1073887232
 900              		.cfi_endproc
 901              	.LFE150:
 903              		.section	.text.HAL_UART_MspInit,"ax",%progbits
 904              		.align	1
 905              		.global	HAL_UART_MspInit
 906              		.syntax unified
 907              		.thumb
 908              		.thumb_func
 909              		.fpu fpv5-d16
 911              	HAL_UART_MspInit:
 912              	.LFB151:
 469:Src/stm32f7xx_hal_msp.c **** 
 470:Src/stm32f7xx_hal_msp.c **** /**
 471:Src/stm32f7xx_hal_msp.c **** * @brief UART MSP Initialization
 472:Src/stm32f7xx_hal_msp.c **** * This function configures the hardware resources used in this example
 473:Src/stm32f7xx_hal_msp.c **** * @param huart: UART handle pointer
 474:Src/stm32f7xx_hal_msp.c **** * @retval None
ARM GAS  /tmp/ccmEf6XR.s 			page 26


 475:Src/stm32f7xx_hal_msp.c **** */
 476:Src/stm32f7xx_hal_msp.c **** void HAL_UART_MspInit(UART_HandleTypeDef* huart)
 477:Src/stm32f7xx_hal_msp.c **** {
 913              		.loc 1 477 0
 914              		.cfi_startproc
 915              		@ args = 0, pretend = 0, frame = 32
 916              		@ frame_needed = 0, uses_anonymous_args = 0
 917              	.LVL50:
 918 0000 00B5     		push	{lr}
 919              	.LCFI24:
 920              		.cfi_def_cfa_offset 4
 921              		.cfi_offset 14, -4
 922 0002 89B0     		sub	sp, sp, #36
 923              	.LCFI25:
 924              		.cfi_def_cfa_offset 40
 478:Src/stm32f7xx_hal_msp.c ****   GPIO_InitTypeDef GPIO_InitStruct = {0};
 925              		.loc 1 478 0
 926 0004 0023     		movs	r3, #0
 927 0006 0393     		str	r3, [sp, #12]
 928 0008 0493     		str	r3, [sp, #16]
 929 000a 0593     		str	r3, [sp, #20]
 930 000c 0693     		str	r3, [sp, #24]
 931 000e 0793     		str	r3, [sp, #28]
 479:Src/stm32f7xx_hal_msp.c ****   if(huart->Instance==USART3)
 932              		.loc 1 479 0
 933 0010 0268     		ldr	r2, [r0]
 934 0012 144B     		ldr	r3, .L79
 935 0014 9A42     		cmp	r2, r3
 936 0016 02D0     		beq	.L78
 937              	.LVL51:
 938              	.L75:
 480:Src/stm32f7xx_hal_msp.c ****   {
 481:Src/stm32f7xx_hal_msp.c ****   /* USER CODE BEGIN USART3_MspInit 0 */
 482:Src/stm32f7xx_hal_msp.c **** 
 483:Src/stm32f7xx_hal_msp.c ****   /* USER CODE END USART3_MspInit 0 */
 484:Src/stm32f7xx_hal_msp.c ****     /* Peripheral clock enable */
 485:Src/stm32f7xx_hal_msp.c ****     __HAL_RCC_USART3_CLK_ENABLE();
 486:Src/stm32f7xx_hal_msp.c ****   
 487:Src/stm32f7xx_hal_msp.c ****     __HAL_RCC_GPIOB_CLK_ENABLE();
 488:Src/stm32f7xx_hal_msp.c ****     /**USART3 GPIO Configuration    
 489:Src/stm32f7xx_hal_msp.c ****     PB10     ------> USART3_TX
 490:Src/stm32f7xx_hal_msp.c ****     PB11     ------> USART3_RX 
 491:Src/stm32f7xx_hal_msp.c ****     */
 492:Src/stm32f7xx_hal_msp.c ****     GPIO_InitStruct.Pin = GPIO_PIN_10|GPIO_PIN_11;
 493:Src/stm32f7xx_hal_msp.c ****     GPIO_InitStruct.Mode = GPIO_MODE_AF_PP;
 494:Src/stm32f7xx_hal_msp.c ****     GPIO_InitStruct.Pull = GPIO_NOPULL;
 495:Src/stm32f7xx_hal_msp.c ****     GPIO_InitStruct.Speed = GPIO_SPEED_FREQ_VERY_HIGH;
 496:Src/stm32f7xx_hal_msp.c ****     GPIO_InitStruct.Alternate = GPIO_AF7_USART3;
 497:Src/stm32f7xx_hal_msp.c ****     HAL_GPIO_Init(GPIOB, &GPIO_InitStruct);
 498:Src/stm32f7xx_hal_msp.c **** 
 499:Src/stm32f7xx_hal_msp.c ****   /* USER CODE BEGIN USART3_MspInit 1 */
 500:Src/stm32f7xx_hal_msp.c **** 
 501:Src/stm32f7xx_hal_msp.c ****   /* USER CODE END USART3_MspInit 1 */
 502:Src/stm32f7xx_hal_msp.c ****   }
 503:Src/stm32f7xx_hal_msp.c **** 
 504:Src/stm32f7xx_hal_msp.c **** }
 939              		.loc 1 504 0
ARM GAS  /tmp/ccmEf6XR.s 			page 27


 940 0018 09B0     		add	sp, sp, #36
 941              	.LCFI26:
 942              		.cfi_remember_state
 943              		.cfi_def_cfa_offset 4
 944              		@ sp needed
 945 001a 5DF804FB 		ldr	pc, [sp], #4
 946              	.LVL52:
 947              	.L78:
 948              	.LCFI27:
 949              		.cfi_restore_state
 950              	.LBB17:
 485:Src/stm32f7xx_hal_msp.c ****   
 951              		.loc 1 485 0
 952 001e 03F5F833 		add	r3, r3, #126976
 953 0022 1A6C     		ldr	r2, [r3, #64]
 954 0024 42F48022 		orr	r2, r2, #262144
 955 0028 1A64     		str	r2, [r3, #64]
 956 002a 1A6C     		ldr	r2, [r3, #64]
 957 002c 02F48022 		and	r2, r2, #262144
 958 0030 0192     		str	r2, [sp, #4]
 959 0032 019A     		ldr	r2, [sp, #4]
 960              	.LBE17:
 961              	.LBB18:
 487:Src/stm32f7xx_hal_msp.c ****     /**USART3 GPIO Configuration    
 962              		.loc 1 487 0
 963 0034 1A6B     		ldr	r2, [r3, #48]
 964 0036 42F00202 		orr	r2, r2, #2
 965 003a 1A63     		str	r2, [r3, #48]
 966 003c 1B6B     		ldr	r3, [r3, #48]
 967 003e 03F00203 		and	r3, r3, #2
 968 0042 0293     		str	r3, [sp, #8]
 969 0044 029B     		ldr	r3, [sp, #8]
 970              	.LBE18:
 492:Src/stm32f7xx_hal_msp.c ****     GPIO_InitStruct.Mode = GPIO_MODE_AF_PP;
 971              		.loc 1 492 0
 972 0046 4FF44063 		mov	r3, #3072
 973 004a 0393     		str	r3, [sp, #12]
 493:Src/stm32f7xx_hal_msp.c ****     GPIO_InitStruct.Pull = GPIO_NOPULL;
 974              		.loc 1 493 0
 975 004c 0223     		movs	r3, #2
 976 004e 0493     		str	r3, [sp, #16]
 495:Src/stm32f7xx_hal_msp.c ****     GPIO_InitStruct.Alternate = GPIO_AF7_USART3;
 977              		.loc 1 495 0
 978 0050 0323     		movs	r3, #3
 979 0052 0693     		str	r3, [sp, #24]
 496:Src/stm32f7xx_hal_msp.c ****     HAL_GPIO_Init(GPIOB, &GPIO_InitStruct);
 980              		.loc 1 496 0
 981 0054 0723     		movs	r3, #7
 982 0056 0793     		str	r3, [sp, #28]
 497:Src/stm32f7xx_hal_msp.c **** 
 983              		.loc 1 497 0
 984 0058 03A9     		add	r1, sp, #12
 985 005a 0348     		ldr	r0, .L79+4
 986              	.LVL53:
 987 005c FFF7FEFF 		bl	HAL_GPIO_Init
 988              	.LVL54:
 989              		.loc 1 504 0
ARM GAS  /tmp/ccmEf6XR.s 			page 28


 990 0060 DAE7     		b	.L75
 991              	.L80:
 992 0062 00BF     		.align	2
 993              	.L79:
 994 0064 00480040 		.word	1073760256
 995 0068 00040240 		.word	1073873920
 996              		.cfi_endproc
 997              	.LFE151:
 999              		.section	.text.HAL_UART_MspDeInit,"ax",%progbits
 1000              		.align	1
 1001              		.global	HAL_UART_MspDeInit
 1002              		.syntax unified
 1003              		.thumb
 1004              		.thumb_func
 1005              		.fpu fpv5-d16
 1007              	HAL_UART_MspDeInit:
 1008              	.LFB152:
 505:Src/stm32f7xx_hal_msp.c **** 
 506:Src/stm32f7xx_hal_msp.c **** /**
 507:Src/stm32f7xx_hal_msp.c **** * @brief UART MSP De-Initialization
 508:Src/stm32f7xx_hal_msp.c **** * This function freeze the hardware resources used in this example
 509:Src/stm32f7xx_hal_msp.c **** * @param huart: UART handle pointer
 510:Src/stm32f7xx_hal_msp.c **** * @retval None
 511:Src/stm32f7xx_hal_msp.c **** */
 512:Src/stm32f7xx_hal_msp.c **** void HAL_UART_MspDeInit(UART_HandleTypeDef* huart)
 513:Src/stm32f7xx_hal_msp.c **** {
 1009              		.loc 1 513 0
 1010              		.cfi_startproc
 1011              		@ args = 0, pretend = 0, frame = 0
 1012              		@ frame_needed = 0, uses_anonymous_args = 0
 1013              	.LVL55:
 1014 0000 08B5     		push	{r3, lr}
 1015              	.LCFI28:
 1016              		.cfi_def_cfa_offset 8
 1017              		.cfi_offset 3, -8
 1018              		.cfi_offset 14, -4
 514:Src/stm32f7xx_hal_msp.c ****   if(huart->Instance==USART3)
 1019              		.loc 1 514 0
 1020 0002 0268     		ldr	r2, [r0]
 1021 0004 074B     		ldr	r3, .L85
 1022 0006 9A42     		cmp	r2, r3
 1023 0008 00D0     		beq	.L84
 1024              	.LVL56:
 1025              	.L81:
 1026 000a 08BD     		pop	{r3, pc}
 1027              	.LVL57:
 1028              	.L84:
 515:Src/stm32f7xx_hal_msp.c ****   {
 516:Src/stm32f7xx_hal_msp.c ****   /* USER CODE BEGIN USART3_MspDeInit 0 */
 517:Src/stm32f7xx_hal_msp.c **** 
 518:Src/stm32f7xx_hal_msp.c ****   /* USER CODE END USART3_MspDeInit 0 */
 519:Src/stm32f7xx_hal_msp.c ****     /* Peripheral clock disable */
 520:Src/stm32f7xx_hal_msp.c ****     __HAL_RCC_USART3_CLK_DISABLE();
 1029              		.loc 1 520 0
 1030 000c 064A     		ldr	r2, .L85+4
 1031 000e 136C     		ldr	r3, [r2, #64]
 1032 0010 23F48023 		bic	r3, r3, #262144
ARM GAS  /tmp/ccmEf6XR.s 			page 29


 1033 0014 1364     		str	r3, [r2, #64]
 521:Src/stm32f7xx_hal_msp.c ****   
 522:Src/stm32f7xx_hal_msp.c ****     /**USART3 GPIO Configuration    
 523:Src/stm32f7xx_hal_msp.c ****     PB10     ------> USART3_TX
 524:Src/stm32f7xx_hal_msp.c ****     PB11     ------> USART3_RX 
 525:Src/stm32f7xx_hal_msp.c ****     */
 526:Src/stm32f7xx_hal_msp.c ****     HAL_GPIO_DeInit(GPIOB, GPIO_PIN_10|GPIO_PIN_11);
 1034              		.loc 1 526 0
 1035 0016 4FF44061 		mov	r1, #3072
 1036 001a 0448     		ldr	r0, .L85+8
 1037              	.LVL58:
 1038 001c FFF7FEFF 		bl	HAL_GPIO_DeInit
 1039              	.LVL59:
 527:Src/stm32f7xx_hal_msp.c **** 
 528:Src/stm32f7xx_hal_msp.c ****   /* USER CODE BEGIN USART3_MspDeInit 1 */
 529:Src/stm32f7xx_hal_msp.c **** 
 530:Src/stm32f7xx_hal_msp.c ****   /* USER CODE END USART3_MspDeInit 1 */
 531:Src/stm32f7xx_hal_msp.c ****   }
 532:Src/stm32f7xx_hal_msp.c **** 
 533:Src/stm32f7xx_hal_msp.c **** }
 1040              		.loc 1 533 0
 1041 0020 F3E7     		b	.L81
 1042              	.L86:
 1043 0022 00BF     		.align	2
 1044              	.L85:
 1045 0024 00480040 		.word	1073760256
 1046 0028 00380240 		.word	1073887232
 1047 002c 00040240 		.word	1073873920
 1048              		.cfi_endproc
 1049              	.LFE152:
 1051              		.text
 1052              	.Letext0:
 1053              		.file 2 "/usr/include/newlib/machine/_default_types.h"
 1054              		.file 3 "/usr/include/newlib/sys/_stdint.h"
 1055              		.file 4 "Drivers/CMSIS/Include/core_cm7.h"
 1056              		.file 5 "Drivers/CMSIS/Device/ST/STM32F7xx/Include/system_stm32f7xx.h"
 1057              		.file 6 "Drivers/CMSIS/Device/ST/STM32F7xx/Include/stm32f767xx.h"
 1058              		.file 7 "Drivers/CMSIS/Device/ST/STM32F7xx/Include/stm32f7xx.h"
 1059              		.file 8 "Drivers/STM32F7xx_HAL_Driver/Inc/stm32f7xx_hal_def.h"
 1060              		.file 9 "Drivers/STM32F7xx_HAL_Driver/Inc/stm32f7xx_hal_gpio.h"
 1061              		.file 10 "Drivers/STM32F7xx_HAL_Driver/Inc/stm32f7xx_hal_dma.h"
 1062              		.file 11 "Drivers/STM32F7xx_HAL_Driver/Inc/stm32f7xx_hal_adc.h"
 1063              		.file 12 "Drivers/STM32F7xx_HAL_Driver/Inc/stm32f7xx_hal_can.h"
 1064              		.file 13 "Drivers/STM32F7xx_HAL_Driver/Inc/stm32f7xx_hal_spi.h"
 1065              		.file 14 "Drivers/STM32F7xx_HAL_Driver/Inc/stm32f7xx_hal_tim.h"
 1066              		.file 15 "Drivers/STM32F7xx_HAL_Driver/Inc/stm32f7xx_hal_uart.h"
 1067              		.file 16 "Drivers/STM32F7xx_HAL_Driver/Inc/stm32f7xx_hal.h"
 1068              		.file 17 "Drivers/STM32F7xx_HAL_Driver/Inc/stm32f7xx_hal_cortex.h"
 1069              		.file 18 "Inc/main.h"
ARM GAS  /tmp/ccmEf6XR.s 			page 30

