ARM GAS  /tmp/ccEqsOFM.s 			page 1


   1              		.cpu cortex-m7
   2              		.eabi_attribute 28, 1
   3              		.eabi_attribute 20, 1
   4              		.eabi_attribute 21, 1
   5              		.eabi_attribute 23, 3
   6              		.eabi_attribute 24, 1
   7              		.eabi_attribute 25, 1
   8              		.eabi_attribute 26, 1
   9              		.eabi_attribute 30, 1
  10              		.eabi_attribute 34, 1
  11              		.eabi_attribute 18, 4
  12              		.file	"pwm.c"
  13              		.text
  14              	.Ltext0:
  15              		.cfi_sections	.debug_frame
  16              		.section	.text.write_pwm_value,"ax",%progbits
  17              		.align	1
  18              		.global	write_pwm_value
  19              		.arch armv7e-m
  20              		.syntax unified
  21              		.thumb
  22              		.thumb_func
  23              		.fpu fpv5-d16
  25              	write_pwm_value:
  26              	.LVL0:
  27              	.LFB141:
  28              		.file 1 "Src/pwm.c"
   1:Src/pwm.c     **** #include "pwm.h"
   2:Src/pwm.c     **** 
   3:Src/pwm.c     **** void write_pwm_value(pwm_struct *pwm)
   4:Src/pwm.c     **** {
  29              		.loc 1 4 1 view -0
  30              		.cfi_startproc
  31              		@ args = 0, pretend = 0, frame = 32
  32              		@ frame_needed = 0, uses_anonymous_args = 0
  33              		.loc 1 4 1 is_stmt 0 view .LVU1
  34 0000 10B5     		push	{r4, lr}
  35              	.LCFI0:
  36              		.cfi_def_cfa_offset 8
  37              		.cfi_offset 4, -8
  38              		.cfi_offset 14, -4
  39 0002 88B0     		sub	sp, sp, #32
  40              	.LCFI1:
  41              		.cfi_def_cfa_offset 40
  42 0004 0446     		mov	r4, r0
   5:Src/pwm.c     ****     HAL_TIM_PWM_Stop(pwm->timer, pwm->channel);
  43              		.loc 1 5 5 is_stmt 1 view .LVU2
  44 0006 C168     		ldr	r1, [r0, #12]
  45 0008 8068     		ldr	r0, [r0, #8]
  46              	.LVL1:
  47              		.loc 1 5 5 is_stmt 0 view .LVU3
  48 000a FFF7FEFF 		bl	HAL_TIM_PWM_Stop
  49              	.LVL2:
   6:Src/pwm.c     **** 
   7:Src/pwm.c     ****     TIM_OC_InitTypeDef sConfigOC;
  50              		.loc 1 7 5 is_stmt 1 view .LVU4
   8:Src/pwm.c     ****     sConfigOC.OCMode = TIM_OCMODE_PWM1;
ARM GAS  /tmp/ccEqsOFM.s 			page 2


  51              		.loc 1 8 5 view .LVU5
  52              		.loc 1 8 22 is_stmt 0 view .LVU6
  53 000e 6023     		movs	r3, #96
  54 0010 0193     		str	r3, [sp, #4]
   9:Src/pwm.c     ****     sConfigOC.Pulse = pwm->value;
  55              		.loc 1 9 5 is_stmt 1 view .LVU7
  56              		.loc 1 9 26 is_stmt 0 view .LVU8
  57 0012 2368     		ldr	r3, [r4]
  58              		.loc 1 9 21 view .LVU9
  59 0014 0293     		str	r3, [sp, #8]
  10:Src/pwm.c     ****     sConfigOC.OCPolarity = TIM_OCPOLARITY_HIGH;
  60              		.loc 1 10 5 is_stmt 1 view .LVU10
  61              		.loc 1 10 26 is_stmt 0 view .LVU11
  62 0016 0023     		movs	r3, #0
  63 0018 0393     		str	r3, [sp, #12]
  11:Src/pwm.c     ****     sConfigOC.OCFastMode = TIM_OCFAST_DISABLE;
  64              		.loc 1 11 5 is_stmt 1 view .LVU12
  65              		.loc 1 11 26 is_stmt 0 view .LVU13
  66 001a 0593     		str	r3, [sp, #20]
  12:Src/pwm.c     **** 
  13:Src/pwm.c     ****     HAL_TIM_PWM_ConfigChannel(pwm->timer, &sConfigOC, pwm->channel);
  67              		.loc 1 13 5 is_stmt 1 view .LVU14
  68 001c E268     		ldr	r2, [r4, #12]
  69 001e 01A9     		add	r1, sp, #4
  70 0020 A068     		ldr	r0, [r4, #8]
  71 0022 FFF7FEFF 		bl	HAL_TIM_PWM_ConfigChannel
  72              	.LVL3:
  14:Src/pwm.c     ****     HAL_TIM_PWM_Start(pwm->timer, pwm->channel);
  73              		.loc 1 14 5 view .LVU15
  74 0026 E168     		ldr	r1, [r4, #12]
  75 0028 A068     		ldr	r0, [r4, #8]
  76 002a FFF7FEFF 		bl	HAL_TIM_PWM_Start
  77              	.LVL4:
  15:Src/pwm.c     **** }
  78              		.loc 1 15 1 is_stmt 0 view .LVU16
  79 002e 08B0     		add	sp, sp, #32
  80              	.LCFI2:
  81              		.cfi_def_cfa_offset 8
  82              		@ sp needed
  83 0030 10BD     		pop	{r4, pc}
  84              		.loc 1 15 1 view .LVU17
  85              		.cfi_endproc
  86              	.LFE141:
  88              		.section	.text.Init_pwm,"ax",%progbits
  89              		.align	1
  90              		.global	Init_pwm
  91              		.syntax unified
  92              		.thumb
  93              		.thumb_func
  94              		.fpu fpv5-d16
  96              	Init_pwm:
  97              	.LVL5:
  98              	.LFB142:
  16:Src/pwm.c     **** 
  17:Src/pwm.c     **** void Init_pwm(pwm_struct *pwm, TIM_HandleTypeDef *timer, uint32_t channel)
  18:Src/pwm.c     **** {
  99              		.loc 1 18 1 is_stmt 1 view -0
ARM GAS  /tmp/ccEqsOFM.s 			page 3


 100              		.cfi_startproc
 101              		@ args = 0, pretend = 0, frame = 0
 102              		@ frame_needed = 0, uses_anonymous_args = 0
 103              		.loc 1 18 1 is_stmt 0 view .LVU19
 104 0000 08B5     		push	{r3, lr}
 105              	.LCFI3:
 106              		.cfi_def_cfa_offset 8
 107              		.cfi_offset 3, -8
 108              		.cfi_offset 14, -4
 109 0002 0346     		mov	r3, r0
 110 0004 0846     		mov	r0, r1
 111              	.LVL6:
 112              		.loc 1 18 1 view .LVU20
 113 0006 1146     		mov	r1, r2
 114              	.LVL7:
  19:Src/pwm.c     ****     pwm->timer = timer;
 115              		.loc 1 19 5 is_stmt 1 view .LVU21
 116              		.loc 1 19 16 is_stmt 0 view .LVU22
 117 0008 9860     		str	r0, [r3, #8]
  20:Src/pwm.c     ****     pwm->channel = channel;
 118              		.loc 1 20 5 is_stmt 1 view .LVU23
 119              		.loc 1 20 18 is_stmt 0 view .LVU24
 120 000a DA60     		str	r2, [r3, #12]
  21:Src/pwm.c     ****     pwm->value = 0;
 121              		.loc 1 21 5 is_stmt 1 view .LVU25
 122              		.loc 1 21 16 is_stmt 0 view .LVU26
 123 000c 0022     		movs	r2, #0
 124              	.LVL8:
 125              		.loc 1 21 16 view .LVU27
 126 000e 1A60     		str	r2, [r3]
  22:Src/pwm.c     ****     pwm->prev_value = 0;
 127              		.loc 1 22 5 is_stmt 1 view .LVU28
 128              		.loc 1 22 21 is_stmt 0 view .LVU29
 129 0010 5A60     		str	r2, [r3, #4]
  23:Src/pwm.c     **** 
  24:Src/pwm.c     ****     HAL_TIM_PWM_Start(pwm->timer, pwm->channel);
 130              		.loc 1 24 5 is_stmt 1 view .LVU30
 131 0012 FFF7FEFF 		bl	HAL_TIM_PWM_Start
 132              	.LVL9:
  25:Src/pwm.c     **** }...
 133              		.loc 1 25 1 is_stmt 0 view .LVU31
 134 0016 08BD     		pop	{r3, pc}
 135              		.cfi_endproc
 136              	.LFE142:
 138              		.text
 139              	.Letext0:
 140              		.file 2 "/home/alex/Mass Storage/ARM-GCC/arm-none-eabi/include/machine/_default_types.h"
 141              		.file 3 "/home/alex/Mass Storage/ARM-GCC/arm-none-eabi/include/sys/_stdint.h"
 142              		.file 4 "Drivers/CMSIS/Include/core_cm7.h"
 143              		.file 5 "Drivers/CMSIS/Device/ST/STM32F7xx/Include/system_stm32f7xx.h"
 144              		.file 6 "Drivers/CMSIS/Device/ST/STM32F7xx/Include/stm32f765xx.h"
 145              		.file 7 "Drivers/STM32F7xx_HAL_Driver/Inc/stm32f7xx_hal_def.h"
 146              		.file 8 "Drivers/STM32F7xx_HAL_Driver/Inc/stm32f7xx_hal_dma.h"
 147              		.file 9 "Drivers/STM32F7xx_HAL_Driver/Inc/stm32f7xx_hal_tim.h"
 148              		.file 10 "Drivers/STM32F7xx_HAL_Driver/Inc/stm32f7xx_hal.h"
 149              		.file 11 "Inc/pwm.h"
ARM GAS  /tmp/ccEqsOFM.s 			page 4

