ARM GAS  /tmp/cczsEcHh.s 			page 1


   1              		.cpu cortex-m7
   2              		.eabi_attribute 28, 1
   3              		.eabi_attribute 20, 1
   4              		.eabi_attribute 21, 1
   5              		.eabi_attribute 23, 3
   6              		.eabi_attribute 24, 1
   7              		.eabi_attribute 25, 1
   8              		.eabi_attribute 26, 1
   9              		.eabi_attribute 30, 1
  10              		.eabi_attribute 34, 1
  11              		.eabi_attribute 18, 4
  12              		.file	"stm32f7xx_hal_msp.c"
  13              		.text
  14              	.Ltext0:
  15              		.cfi_sections	.debug_frame
  16              		.section	.text.HAL_MspInit,"ax",%progbits
  17              		.align	1
  18              		.global	HAL_MspInit
  19              		.arch armv7e-m
  20              		.syntax unified
  21              		.thumb
  22              		.thumb_func
  23              		.fpu fpv5-d16
  25              	HAL_MspInit:
  26              	.LFB141:
  27              		.file 1 "Src/stm32f7xx_hal_msp.c"
   1:Src/stm32f7xx_hal_msp.c **** /* USER CODE BEGIN Header */
   2:Src/stm32f7xx_hal_msp.c **** /**
   3:Src/stm32f7xx_hal_msp.c ****   ******************************************************************************
   4:Src/stm32f7xx_hal_msp.c ****   * File Name          : stm32f7xx_hal_msp.c
   5:Src/stm32f7xx_hal_msp.c ****   * Description        : This file provides code for the MSP Initialization 
   6:Src/stm32f7xx_hal_msp.c ****   *                      and de-Initialization codes.
   7:Src/stm32f7xx_hal_msp.c ****   ******************************************************************************
   8:Src/stm32f7xx_hal_msp.c ****   * @attention
   9:Src/stm32f7xx_hal_msp.c ****   *
  10:Src/stm32f7xx_hal_msp.c ****   * <h2><center>&copy; Copyright (c) 2020 STMicroelectronics.
  11:Src/stm32f7xx_hal_msp.c ****   * All rights reserved.</center></h2>
  12:Src/stm32f7xx_hal_msp.c ****   *
  13:Src/stm32f7xx_hal_msp.c ****   * This software component is licensed by ST under Ultimate Liberty license
  14:Src/stm32f7xx_hal_msp.c ****   * SLA0044, the "License"; You may not use this file except in compliance with
  15:Src/stm32f7xx_hal_msp.c ****   * the License. You may obtain a copy of the License at:
  16:Src/stm32f7xx_hal_msp.c ****   *                             www.st.com/SLA0044
  17:Src/stm32f7xx_hal_msp.c ****   *
  18:Src/stm32f7xx_hal_msp.c ****   ******************************************************************************
  19:Src/stm32f7xx_hal_msp.c ****   */
  20:Src/stm32f7xx_hal_msp.c **** /* USER CODE END Header */
  21:Src/stm32f7xx_hal_msp.c **** 
  22:Src/stm32f7xx_hal_msp.c **** /* Includes ------------------------------------------------------------------*/
  23:Src/stm32f7xx_hal_msp.c **** #include "main.h"
  24:Src/stm32f7xx_hal_msp.c **** /* USER CODE BEGIN Includes */
  25:Src/stm32f7xx_hal_msp.c **** 
  26:Src/stm32f7xx_hal_msp.c **** /* USER CODE END Includes */
  27:Src/stm32f7xx_hal_msp.c **** extern DMA_HandleTypeDef hdma_adc1;
  28:Src/stm32f7xx_hal_msp.c **** 
  29:Src/stm32f7xx_hal_msp.c **** /* Private typedef -----------------------------------------------------------*/
  30:Src/stm32f7xx_hal_msp.c **** /* USER CODE BEGIN TD */
  31:Src/stm32f7xx_hal_msp.c **** 
ARM GAS  /tmp/cczsEcHh.s 			page 2


  32:Src/stm32f7xx_hal_msp.c **** /* USER CODE END TD */
  33:Src/stm32f7xx_hal_msp.c **** 
  34:Src/stm32f7xx_hal_msp.c **** /* Private define ------------------------------------------------------------*/
  35:Src/stm32f7xx_hal_msp.c **** /* USER CODE BEGIN Define */
  36:Src/stm32f7xx_hal_msp.c ****  
  37:Src/stm32f7xx_hal_msp.c **** /* USER CODE END Define */
  38:Src/stm32f7xx_hal_msp.c **** 
  39:Src/stm32f7xx_hal_msp.c **** /* Private macro -------------------------------------------------------------*/
  40:Src/stm32f7xx_hal_msp.c **** /* USER CODE BEGIN Macro */
  41:Src/stm32f7xx_hal_msp.c **** 
  42:Src/stm32f7xx_hal_msp.c **** /* USER CODE END Macro */
  43:Src/stm32f7xx_hal_msp.c **** 
  44:Src/stm32f7xx_hal_msp.c **** /* Private variables ---------------------------------------------------------*/
  45:Src/stm32f7xx_hal_msp.c **** /* USER CODE BEGIN PV */
  46:Src/stm32f7xx_hal_msp.c **** 
  47:Src/stm32f7xx_hal_msp.c **** /* USER CODE END PV */
  48:Src/stm32f7xx_hal_msp.c **** 
  49:Src/stm32f7xx_hal_msp.c **** /* Private function prototypes -----------------------------------------------*/
  50:Src/stm32f7xx_hal_msp.c **** /* USER CODE BEGIN PFP */
  51:Src/stm32f7xx_hal_msp.c **** 
  52:Src/stm32f7xx_hal_msp.c **** /* USER CODE END PFP */
  53:Src/stm32f7xx_hal_msp.c **** 
  54:Src/stm32f7xx_hal_msp.c **** /* External functions --------------------------------------------------------*/
  55:Src/stm32f7xx_hal_msp.c **** /* USER CODE BEGIN ExternalFunctions */
  56:Src/stm32f7xx_hal_msp.c **** 
  57:Src/stm32f7xx_hal_msp.c **** /* USER CODE END ExternalFunctions */
  58:Src/stm32f7xx_hal_msp.c **** 
  59:Src/stm32f7xx_hal_msp.c **** /* USER CODE BEGIN 0 */
  60:Src/stm32f7xx_hal_msp.c **** 
  61:Src/stm32f7xx_hal_msp.c **** /* USER CODE END 0 */
  62:Src/stm32f7xx_hal_msp.c ****                         
  63:Src/stm32f7xx_hal_msp.c **** void HAL_TIM_MspPostInit(TIM_HandleTypeDef *htim);
  64:Src/stm32f7xx_hal_msp.c ****                                                                                 /**
  65:Src/stm32f7xx_hal_msp.c ****   * Initializes the Global MSP.
  66:Src/stm32f7xx_hal_msp.c ****   */
  67:Src/stm32f7xx_hal_msp.c **** void HAL_MspInit(void)
  68:Src/stm32f7xx_hal_msp.c **** {
  28              		.loc 1 68 1 view -0
  29              		.cfi_startproc
  30              		@ args = 0, pretend = 0, frame = 8
  31              		@ frame_needed = 0, uses_anonymous_args = 0
  32              		@ link register save eliminated.
  33 0000 82B0     		sub	sp, sp, #8
  34              	.LCFI0:
  35              		.cfi_def_cfa_offset 8
  69:Src/stm32f7xx_hal_msp.c ****   /* USER CODE BEGIN MspInit 0 */
  70:Src/stm32f7xx_hal_msp.c **** 
  71:Src/stm32f7xx_hal_msp.c ****   /* USER CODE END MspInit 0 */
  72:Src/stm32f7xx_hal_msp.c **** 
  73:Src/stm32f7xx_hal_msp.c ****   __HAL_RCC_PWR_CLK_ENABLE();
  36              		.loc 1 73 3 view .LVU1
  37              	.LBB2:
  38              		.loc 1 73 3 view .LVU2
  39              		.loc 1 73 3 view .LVU3
  40 0002 0A4B     		ldr	r3, .L3
  41 0004 1A6C     		ldr	r2, [r3, #64]
  42 0006 42F08052 		orr	r2, r2, #268435456
ARM GAS  /tmp/cczsEcHh.s 			page 3


  43 000a 1A64     		str	r2, [r3, #64]
  44              		.loc 1 73 3 view .LVU4
  45 000c 1A6C     		ldr	r2, [r3, #64]
  46 000e 02F08052 		and	r2, r2, #268435456
  47 0012 0092     		str	r2, [sp]
  48              		.loc 1 73 3 view .LVU5
  49 0014 009A     		ldr	r2, [sp]
  50              	.LBE2:
  51              		.loc 1 73 3 view .LVU6
  74:Src/stm32f7xx_hal_msp.c ****   __HAL_RCC_SYSCFG_CLK_ENABLE();
  52              		.loc 1 74 3 view .LVU7
  53              	.LBB3:
  54              		.loc 1 74 3 view .LVU8
  55              		.loc 1 74 3 view .LVU9
  56 0016 5A6C     		ldr	r2, [r3, #68]
  57 0018 42F48042 		orr	r2, r2, #16384
  58 001c 5A64     		str	r2, [r3, #68]
  59              		.loc 1 74 3 view .LVU10
  60 001e 5B6C     		ldr	r3, [r3, #68]
  61 0020 03F48043 		and	r3, r3, #16384
  62 0024 0193     		str	r3, [sp, #4]
  63              		.loc 1 74 3 view .LVU11
  64 0026 019B     		ldr	r3, [sp, #4]
  65              	.LBE3:
  66              		.loc 1 74 3 view .LVU12
  75:Src/stm32f7xx_hal_msp.c **** 
  76:Src/stm32f7xx_hal_msp.c ****   /* System interrupt init*/
  77:Src/stm32f7xx_hal_msp.c **** 
  78:Src/stm32f7xx_hal_msp.c ****   /* USER CODE BEGIN MspInit 1 */
  79:Src/stm32f7xx_hal_msp.c **** 
  80:Src/stm32f7xx_hal_msp.c ****   /* USER CODE END MspInit 1 */
  81:Src/stm32f7xx_hal_msp.c **** }
  67              		.loc 1 81 1 is_stmt 0 view .LVU13
  68 0028 02B0     		add	sp, sp, #8
  69              	.LCFI1:
  70              		.cfi_def_cfa_offset 0
  71              		@ sp needed
  72 002a 7047     		bx	lr
  73              	.L4:
  74              		.align	2
  75              	.L3:
  76 002c 00380240 		.word	1073887232
  77              		.cfi_endproc
  78              	.LFE141:
  80              		.section	.text.HAL_ADC_MspInit,"ax",%progbits
  81              		.align	1
  82              		.global	HAL_ADC_MspInit
  83              		.syntax unified
  84              		.thumb
  85              		.thumb_func
  86              		.fpu fpv5-d16
  88              	HAL_ADC_MspInit:
  89              	.LVL0:
  90              	.LFB142:
  82:Src/stm32f7xx_hal_msp.c **** 
  83:Src/stm32f7xx_hal_msp.c **** /**
  84:Src/stm32f7xx_hal_msp.c **** * @brief ADC MSP Initialization
ARM GAS  /tmp/cczsEcHh.s 			page 4


  85:Src/stm32f7xx_hal_msp.c **** * This function configures the hardware resources used in this example
  86:Src/stm32f7xx_hal_msp.c **** * @param hadc: ADC handle pointer
  87:Src/stm32f7xx_hal_msp.c **** * @retval None
  88:Src/stm32f7xx_hal_msp.c **** */
  89:Src/stm32f7xx_hal_msp.c **** void HAL_ADC_MspInit(ADC_HandleTypeDef* hadc)
  90:Src/stm32f7xx_hal_msp.c **** {
  91              		.loc 1 90 1 is_stmt 1 view -0
  92              		.cfi_startproc
  93              		@ args = 0, pretend = 0, frame = 32
  94              		@ frame_needed = 0, uses_anonymous_args = 0
  95              		.loc 1 90 1 is_stmt 0 view .LVU15
  96 0000 70B5     		push	{r4, r5, r6, lr}
  97              	.LCFI2:
  98              		.cfi_def_cfa_offset 16
  99              		.cfi_offset 4, -16
 100              		.cfi_offset 5, -12
 101              		.cfi_offset 6, -8
 102              		.cfi_offset 14, -4
 103 0002 88B0     		sub	sp, sp, #32
 104              	.LCFI3:
 105              		.cfi_def_cfa_offset 48
  91:Src/stm32f7xx_hal_msp.c ****   GPIO_InitTypeDef GPIO_InitStruct = {0};
 106              		.loc 1 91 3 is_stmt 1 view .LVU16
 107              		.loc 1 91 20 is_stmt 0 view .LVU17
 108 0004 0023     		movs	r3, #0
 109 0006 0393     		str	r3, [sp, #12]
 110 0008 0493     		str	r3, [sp, #16]
 111 000a 0593     		str	r3, [sp, #20]
 112 000c 0693     		str	r3, [sp, #24]
 113 000e 0793     		str	r3, [sp, #28]
  92:Src/stm32f7xx_hal_msp.c ****   if(hadc->Instance==ADC1)
 114              		.loc 1 92 3 is_stmt 1 view .LVU18
 115              		.loc 1 92 10 is_stmt 0 view .LVU19
 116 0010 0268     		ldr	r2, [r0]
 117              		.loc 1 92 5 view .LVU20
 118 0012 03F18043 		add	r3, r3, #1073741824
 119 0016 03F59033 		add	r3, r3, #73728
 120 001a 9A42     		cmp	r2, r3
 121 001c 01D0     		beq	.L9
 122              	.LVL1:
 123              	.L5:
  93:Src/stm32f7xx_hal_msp.c ****   {
  94:Src/stm32f7xx_hal_msp.c ****   /* USER CODE BEGIN ADC1_MspInit 0 */
  95:Src/stm32f7xx_hal_msp.c **** 
  96:Src/stm32f7xx_hal_msp.c ****   /* USER CODE END ADC1_MspInit 0 */
  97:Src/stm32f7xx_hal_msp.c ****     /* Peripheral clock enable */
  98:Src/stm32f7xx_hal_msp.c ****     __HAL_RCC_ADC1_CLK_ENABLE();
  99:Src/stm32f7xx_hal_msp.c ****   
 100:Src/stm32f7xx_hal_msp.c ****     __HAL_RCC_GPIOA_CLK_ENABLE();
 101:Src/stm32f7xx_hal_msp.c ****     __HAL_RCC_GPIOB_CLK_ENABLE();
 102:Src/stm32f7xx_hal_msp.c ****     /**ADC1 GPIO Configuration    
 103:Src/stm32f7xx_hal_msp.c ****     PA2     ------> ADC1_IN2
 104:Src/stm32f7xx_hal_msp.c ****     PA3     ------> ADC1_IN3
 105:Src/stm32f7xx_hal_msp.c ****     PA7     ------> ADC1_IN7
 106:Src/stm32f7xx_hal_msp.c ****     PB0     ------> ADC1_IN8
 107:Src/stm32f7xx_hal_msp.c ****     PB1     ------> ADC1_IN9 
 108:Src/stm32f7xx_hal_msp.c ****     */
ARM GAS  /tmp/cczsEcHh.s 			page 5


 109:Src/stm32f7xx_hal_msp.c ****     GPIO_InitStruct.Pin = CURRENT_SENSOR_Pin|T_BATT1_Pin|T_BATT2_Pin;
 110:Src/stm32f7xx_hal_msp.c ****     GPIO_InitStruct.Mode = GPIO_MODE_ANALOG;
 111:Src/stm32f7xx_hal_msp.c ****     GPIO_InitStruct.Pull = GPIO_NOPULL;
 112:Src/stm32f7xx_hal_msp.c ****     HAL_GPIO_Init(GPIOA, &GPIO_InitStruct);
 113:Src/stm32f7xx_hal_msp.c **** 
 114:Src/stm32f7xx_hal_msp.c ****     GPIO_InitStruct.Pin = T_DCDC12_Pin|T_DCDC24_Pin;
 115:Src/stm32f7xx_hal_msp.c ****     GPIO_InitStruct.Mode = GPIO_MODE_ANALOG;
 116:Src/stm32f7xx_hal_msp.c ****     GPIO_InitStruct.Pull = GPIO_NOPULL;
 117:Src/stm32f7xx_hal_msp.c ****     HAL_GPIO_Init(GPIOB, &GPIO_InitStruct);
 118:Src/stm32f7xx_hal_msp.c **** 
 119:Src/stm32f7xx_hal_msp.c ****     /* ADC1 DMA Init */
 120:Src/stm32f7xx_hal_msp.c ****     /* ADC1 Init */
 121:Src/stm32f7xx_hal_msp.c ****     hdma_adc1.Instance = DMA2_Stream0;
 122:Src/stm32f7xx_hal_msp.c ****     hdma_adc1.Init.Channel = DMA_CHANNEL_0;
 123:Src/stm32f7xx_hal_msp.c ****     hdma_adc1.Init.Direction = DMA_PERIPH_TO_MEMORY;
 124:Src/stm32f7xx_hal_msp.c ****     hdma_adc1.Init.PeriphInc = DMA_PINC_DISABLE;
 125:Src/stm32f7xx_hal_msp.c ****     hdma_adc1.Init.MemInc = DMA_MINC_ENABLE;
 126:Src/stm32f7xx_hal_msp.c ****     hdma_adc1.Init.PeriphDataAlignment = DMA_PDATAALIGN_WORD;
 127:Src/stm32f7xx_hal_msp.c ****     hdma_adc1.Init.MemDataAlignment = DMA_MDATAALIGN_WORD;
 128:Src/stm32f7xx_hal_msp.c ****     hdma_adc1.Init.Mode = DMA_NORMAL;
 129:Src/stm32f7xx_hal_msp.c ****     hdma_adc1.Init.Priority = DMA_PRIORITY_LOW;
 130:Src/stm32f7xx_hal_msp.c ****     hdma_adc1.Init.FIFOMode = DMA_FIFOMODE_DISABLE;
 131:Src/stm32f7xx_hal_msp.c ****     if (HAL_DMA_Init(&hdma_adc1) != HAL_OK)
 132:Src/stm32f7xx_hal_msp.c ****     {
 133:Src/stm32f7xx_hal_msp.c ****       Error_Handler();
 134:Src/stm32f7xx_hal_msp.c ****     }
 135:Src/stm32f7xx_hal_msp.c **** 
 136:Src/stm32f7xx_hal_msp.c ****     __HAL_LINKDMA(hadc,DMA_Handle,hdma_adc1);
 137:Src/stm32f7xx_hal_msp.c **** 
 138:Src/stm32f7xx_hal_msp.c ****   /* USER CODE BEGIN ADC1_MspInit 1 */
 139:Src/stm32f7xx_hal_msp.c **** 
 140:Src/stm32f7xx_hal_msp.c ****   /* USER CODE END ADC1_MspInit 1 */
 141:Src/stm32f7xx_hal_msp.c ****   }
 142:Src/stm32f7xx_hal_msp.c **** 
 143:Src/stm32f7xx_hal_msp.c **** }
 124              		.loc 1 143 1 view .LVU21
 125 001e 08B0     		add	sp, sp, #32
 126              	.LCFI4:
 127              		.cfi_remember_state
 128              		.cfi_def_cfa_offset 16
 129              		@ sp needed
 130 0020 70BD     		pop	{r4, r5, r6, pc}
 131              	.LVL2:
 132              	.L9:
 133              	.LCFI5:
 134              		.cfi_restore_state
 135              		.loc 1 143 1 view .LVU22
 136 0022 0446     		mov	r4, r0
  98:Src/stm32f7xx_hal_msp.c ****   
 137              		.loc 1 98 5 is_stmt 1 view .LVU23
 138              	.LBB4:
  98:Src/stm32f7xx_hal_msp.c ****   
 139              		.loc 1 98 5 view .LVU24
  98:Src/stm32f7xx_hal_msp.c ****   
 140              		.loc 1 98 5 view .LVU25
 141 0024 03F58C33 		add	r3, r3, #71680
 142 0028 5A6C     		ldr	r2, [r3, #68]
ARM GAS  /tmp/cczsEcHh.s 			page 6


 143 002a 42F48072 		orr	r2, r2, #256
 144 002e 5A64     		str	r2, [r3, #68]
  98:Src/stm32f7xx_hal_msp.c ****   
 145              		.loc 1 98 5 view .LVU26
 146 0030 5A6C     		ldr	r2, [r3, #68]
 147 0032 02F48072 		and	r2, r2, #256
 148 0036 0092     		str	r2, [sp]
  98:Src/stm32f7xx_hal_msp.c ****   
 149              		.loc 1 98 5 view .LVU27
 150 0038 009A     		ldr	r2, [sp]
 151              	.LBE4:
  98:Src/stm32f7xx_hal_msp.c ****   
 152              		.loc 1 98 5 view .LVU28
 100:Src/stm32f7xx_hal_msp.c ****     __HAL_RCC_GPIOB_CLK_ENABLE();
 153              		.loc 1 100 5 view .LVU29
 154              	.LBB5:
 100:Src/stm32f7xx_hal_msp.c ****     __HAL_RCC_GPIOB_CLK_ENABLE();
 155              		.loc 1 100 5 view .LVU30
 100:Src/stm32f7xx_hal_msp.c ****     __HAL_RCC_GPIOB_CLK_ENABLE();
 156              		.loc 1 100 5 view .LVU31
 157 003a 1A6B     		ldr	r2, [r3, #48]
 158 003c 42F00102 		orr	r2, r2, #1
 159 0040 1A63     		str	r2, [r3, #48]
 100:Src/stm32f7xx_hal_msp.c ****     __HAL_RCC_GPIOB_CLK_ENABLE();
 160              		.loc 1 100 5 view .LVU32
 161 0042 1A6B     		ldr	r2, [r3, #48]
 162 0044 02F00102 		and	r2, r2, #1
 163 0048 0192     		str	r2, [sp, #4]
 100:Src/stm32f7xx_hal_msp.c ****     __HAL_RCC_GPIOB_CLK_ENABLE();
 164              		.loc 1 100 5 view .LVU33
 165 004a 019A     		ldr	r2, [sp, #4]
 166              	.LBE5:
 100:Src/stm32f7xx_hal_msp.c ****     __HAL_RCC_GPIOB_CLK_ENABLE();
 167              		.loc 1 100 5 view .LVU34
 101:Src/stm32f7xx_hal_msp.c ****     /**ADC1 GPIO Configuration    
 168              		.loc 1 101 5 view .LVU35
 169              	.LBB6:
 101:Src/stm32f7xx_hal_msp.c ****     /**ADC1 GPIO Configuration    
 170              		.loc 1 101 5 view .LVU36
 101:Src/stm32f7xx_hal_msp.c ****     /**ADC1 GPIO Configuration    
 171              		.loc 1 101 5 view .LVU37
 172 004c 1A6B     		ldr	r2, [r3, #48]
 173 004e 42F00202 		orr	r2, r2, #2
 174 0052 1A63     		str	r2, [r3, #48]
 101:Src/stm32f7xx_hal_msp.c ****     /**ADC1 GPIO Configuration    
 175              		.loc 1 101 5 view .LVU38
 176 0054 1B6B     		ldr	r3, [r3, #48]
 177 0056 03F00203 		and	r3, r3, #2
 178 005a 0293     		str	r3, [sp, #8]
 101:Src/stm32f7xx_hal_msp.c ****     /**ADC1 GPIO Configuration    
 179              		.loc 1 101 5 view .LVU39
 180 005c 029B     		ldr	r3, [sp, #8]
 181              	.LBE6:
 101:Src/stm32f7xx_hal_msp.c ****     /**ADC1 GPIO Configuration    
 182              		.loc 1 101 5 view .LVU40
 109:Src/stm32f7xx_hal_msp.c ****     GPIO_InitStruct.Mode = GPIO_MODE_ANALOG;
 183              		.loc 1 109 5 view .LVU41
ARM GAS  /tmp/cczsEcHh.s 			page 7


 109:Src/stm32f7xx_hal_msp.c ****     GPIO_InitStruct.Mode = GPIO_MODE_ANALOG;
 184              		.loc 1 109 25 is_stmt 0 view .LVU42
 185 005e 8C23     		movs	r3, #140
 186 0060 0393     		str	r3, [sp, #12]
 110:Src/stm32f7xx_hal_msp.c ****     GPIO_InitStruct.Pull = GPIO_NOPULL;
 187              		.loc 1 110 5 is_stmt 1 view .LVU43
 110:Src/stm32f7xx_hal_msp.c ****     GPIO_InitStruct.Pull = GPIO_NOPULL;
 188              		.loc 1 110 26 is_stmt 0 view .LVU44
 189 0062 0326     		movs	r6, #3
 190 0064 0496     		str	r6, [sp, #16]
 111:Src/stm32f7xx_hal_msp.c ****     HAL_GPIO_Init(GPIOA, &GPIO_InitStruct);
 191              		.loc 1 111 5 is_stmt 1 view .LVU45
 111:Src/stm32f7xx_hal_msp.c ****     HAL_GPIO_Init(GPIOA, &GPIO_InitStruct);
 192              		.loc 1 111 26 is_stmt 0 view .LVU46
 193 0066 0025     		movs	r5, #0
 194 0068 0595     		str	r5, [sp, #20]
 112:Src/stm32f7xx_hal_msp.c **** 
 195              		.loc 1 112 5 is_stmt 1 view .LVU47
 196 006a 03A9     		add	r1, sp, #12
 197 006c 1248     		ldr	r0, .L11
 198              	.LVL3:
 112:Src/stm32f7xx_hal_msp.c **** 
 199              		.loc 1 112 5 is_stmt 0 view .LVU48
 200 006e FFF7FEFF 		bl	HAL_GPIO_Init
 201              	.LVL4:
 114:Src/stm32f7xx_hal_msp.c ****     GPIO_InitStruct.Mode = GPIO_MODE_ANALOG;
 202              		.loc 1 114 5 is_stmt 1 view .LVU49
 114:Src/stm32f7xx_hal_msp.c ****     GPIO_InitStruct.Mode = GPIO_MODE_ANALOG;
 203              		.loc 1 114 25 is_stmt 0 view .LVU50
 204 0072 0396     		str	r6, [sp, #12]
 115:Src/stm32f7xx_hal_msp.c ****     GPIO_InitStruct.Pull = GPIO_NOPULL;
 205              		.loc 1 115 5 is_stmt 1 view .LVU51
 115:Src/stm32f7xx_hal_msp.c ****     GPIO_InitStruct.Pull = GPIO_NOPULL;
 206              		.loc 1 115 26 is_stmt 0 view .LVU52
 207 0074 0496     		str	r6, [sp, #16]
 116:Src/stm32f7xx_hal_msp.c ****     HAL_GPIO_Init(GPIOB, &GPIO_InitStruct);
 208              		.loc 1 116 5 is_stmt 1 view .LVU53
 116:Src/stm32f7xx_hal_msp.c ****     HAL_GPIO_Init(GPIOB, &GPIO_InitStruct);
 209              		.loc 1 116 26 is_stmt 0 view .LVU54
 210 0076 0595     		str	r5, [sp, #20]
 117:Src/stm32f7xx_hal_msp.c **** 
 211              		.loc 1 117 5 is_stmt 1 view .LVU55
 212 0078 03A9     		add	r1, sp, #12
 213 007a 1048     		ldr	r0, .L11+4
 214 007c FFF7FEFF 		bl	HAL_GPIO_Init
 215              	.LVL5:
 121:Src/stm32f7xx_hal_msp.c ****     hdma_adc1.Init.Channel = DMA_CHANNEL_0;
 216              		.loc 1 121 5 view .LVU56
 121:Src/stm32f7xx_hal_msp.c ****     hdma_adc1.Init.Channel = DMA_CHANNEL_0;
 217              		.loc 1 121 24 is_stmt 0 view .LVU57
 218 0080 0F48     		ldr	r0, .L11+8
 219 0082 104B     		ldr	r3, .L11+12
 220 0084 0360     		str	r3, [r0]
 122:Src/stm32f7xx_hal_msp.c ****     hdma_adc1.Init.Direction = DMA_PERIPH_TO_MEMORY;
 221              		.loc 1 122 5 is_stmt 1 view .LVU58
 122:Src/stm32f7xx_hal_msp.c ****     hdma_adc1.Init.Direction = DMA_PERIPH_TO_MEMORY;
 222              		.loc 1 122 28 is_stmt 0 view .LVU59
ARM GAS  /tmp/cczsEcHh.s 			page 8


 223 0086 4560     		str	r5, [r0, #4]
 123:Src/stm32f7xx_hal_msp.c ****     hdma_adc1.Init.PeriphInc = DMA_PINC_DISABLE;
 224              		.loc 1 123 5 is_stmt 1 view .LVU60
 123:Src/stm32f7xx_hal_msp.c ****     hdma_adc1.Init.PeriphInc = DMA_PINC_DISABLE;
 225              		.loc 1 123 30 is_stmt 0 view .LVU61
 226 0088 8560     		str	r5, [r0, #8]
 124:Src/stm32f7xx_hal_msp.c ****     hdma_adc1.Init.MemInc = DMA_MINC_ENABLE;
 227              		.loc 1 124 5 is_stmt 1 view .LVU62
 124:Src/stm32f7xx_hal_msp.c ****     hdma_adc1.Init.MemInc = DMA_MINC_ENABLE;
 228              		.loc 1 124 30 is_stmt 0 view .LVU63
 229 008a C560     		str	r5, [r0, #12]
 125:Src/stm32f7xx_hal_msp.c ****     hdma_adc1.Init.PeriphDataAlignment = DMA_PDATAALIGN_WORD;
 230              		.loc 1 125 5 is_stmt 1 view .LVU64
 125:Src/stm32f7xx_hal_msp.c ****     hdma_adc1.Init.PeriphDataAlignment = DMA_PDATAALIGN_WORD;
 231              		.loc 1 125 27 is_stmt 0 view .LVU65
 232 008c 4FF48063 		mov	r3, #1024
 233 0090 0361     		str	r3, [r0, #16]
 126:Src/stm32f7xx_hal_msp.c ****     hdma_adc1.Init.MemDataAlignment = DMA_MDATAALIGN_WORD;
 234              		.loc 1 126 5 is_stmt 1 view .LVU66
 126:Src/stm32f7xx_hal_msp.c ****     hdma_adc1.Init.MemDataAlignment = DMA_MDATAALIGN_WORD;
 235              		.loc 1 126 40 is_stmt 0 view .LVU67
 236 0092 4FF48053 		mov	r3, #4096
 237 0096 4361     		str	r3, [r0, #20]
 127:Src/stm32f7xx_hal_msp.c ****     hdma_adc1.Init.Mode = DMA_NORMAL;
 238              		.loc 1 127 5 is_stmt 1 view .LVU68
 127:Src/stm32f7xx_hal_msp.c ****     hdma_adc1.Init.Mode = DMA_NORMAL;
 239              		.loc 1 127 37 is_stmt 0 view .LVU69
 240 0098 4FF48043 		mov	r3, #16384
 241 009c 8361     		str	r3, [r0, #24]
 128:Src/stm32f7xx_hal_msp.c ****     hdma_adc1.Init.Priority = DMA_PRIORITY_LOW;
 242              		.loc 1 128 5 is_stmt 1 view .LVU70
 128:Src/stm32f7xx_hal_msp.c ****     hdma_adc1.Init.Priority = DMA_PRIORITY_LOW;
 243              		.loc 1 128 25 is_stmt 0 view .LVU71
 244 009e C561     		str	r5, [r0, #28]
 129:Src/stm32f7xx_hal_msp.c ****     hdma_adc1.Init.FIFOMode = DMA_FIFOMODE_DISABLE;
 245              		.loc 1 129 5 is_stmt 1 view .LVU72
 129:Src/stm32f7xx_hal_msp.c ****     hdma_adc1.Init.FIFOMode = DMA_FIFOMODE_DISABLE;
 246              		.loc 1 129 29 is_stmt 0 view .LVU73
 247 00a0 0562     		str	r5, [r0, #32]
 130:Src/stm32f7xx_hal_msp.c ****     if (HAL_DMA_Init(&hdma_adc1) != HAL_OK)
 248              		.loc 1 130 5 is_stmt 1 view .LVU74
 130:Src/stm32f7xx_hal_msp.c ****     if (HAL_DMA_Init(&hdma_adc1) != HAL_OK)
 249              		.loc 1 130 29 is_stmt 0 view .LVU75
 250 00a2 4562     		str	r5, [r0, #36]
 131:Src/stm32f7xx_hal_msp.c ****     {
 251              		.loc 1 131 5 is_stmt 1 view .LVU76
 131:Src/stm32f7xx_hal_msp.c ****     {
 252              		.loc 1 131 9 is_stmt 0 view .LVU77
 253 00a4 FFF7FEFF 		bl	HAL_DMA_Init
 254              	.LVL6:
 131:Src/stm32f7xx_hal_msp.c ****     {
 255              		.loc 1 131 8 view .LVU78
 256 00a8 18B9     		cbnz	r0, .L10
 257              	.L7:
 136:Src/stm32f7xx_hal_msp.c **** 
 258              		.loc 1 136 5 is_stmt 1 view .LVU79
 136:Src/stm32f7xx_hal_msp.c **** 
ARM GAS  /tmp/cczsEcHh.s 			page 9


 259              		.loc 1 136 5 view .LVU80
 260 00aa 054B     		ldr	r3, .L11+8
 261 00ac A363     		str	r3, [r4, #56]
 136:Src/stm32f7xx_hal_msp.c **** 
 262              		.loc 1 136 5 view .LVU81
 263 00ae 9C63     		str	r4, [r3, #56]
 136:Src/stm32f7xx_hal_msp.c **** 
 264              		.loc 1 136 5 view .LVU82
 265              		.loc 1 143 1 is_stmt 0 view .LVU83
 266 00b0 B5E7     		b	.L5
 267              	.L10:
 133:Src/stm32f7xx_hal_msp.c ****     }
 268              		.loc 1 133 7 is_stmt 1 view .LVU84
 269 00b2 FFF7FEFF 		bl	Error_Handler
 270              	.LVL7:
 271 00b6 F8E7     		b	.L7
 272              	.L12:
 273              		.align	2
 274              	.L11:
 275 00b8 00000240 		.word	1073872896
 276 00bc 00040240 		.word	1073873920
 277 00c0 00000000 		.word	hdma_adc1
 278 00c4 10640240 		.word	1073898512
 279              		.cfi_endproc
 280              	.LFE142:
 282              		.section	.text.HAL_ADC_MspDeInit,"ax",%progbits
 283              		.align	1
 284              		.global	HAL_ADC_MspDeInit
 285              		.syntax unified
 286              		.thumb
 287              		.thumb_func
 288              		.fpu fpv5-d16
 290              	HAL_ADC_MspDeInit:
 291              	.LVL8:
 292              	.LFB143:
 144:Src/stm32f7xx_hal_msp.c **** 
 145:Src/stm32f7xx_hal_msp.c **** /**
 146:Src/stm32f7xx_hal_msp.c **** * @brief ADC MSP De-Initialization
 147:Src/stm32f7xx_hal_msp.c **** * This function freeze the hardware resources used in this example
 148:Src/stm32f7xx_hal_msp.c **** * @param hadc: ADC handle pointer
 149:Src/stm32f7xx_hal_msp.c **** * @retval None
 150:Src/stm32f7xx_hal_msp.c **** */
 151:Src/stm32f7xx_hal_msp.c **** void HAL_ADC_MspDeInit(ADC_HandleTypeDef* hadc)
 152:Src/stm32f7xx_hal_msp.c **** {
 293              		.loc 1 152 1 view -0
 294              		.cfi_startproc
 295              		@ args = 0, pretend = 0, frame = 0
 296              		@ frame_needed = 0, uses_anonymous_args = 0
 153:Src/stm32f7xx_hal_msp.c ****   if(hadc->Instance==ADC1)
 297              		.loc 1 153 3 view .LVU86
 298              		.loc 1 153 10 is_stmt 0 view .LVU87
 299 0000 0268     		ldr	r2, [r0]
 300              		.loc 1 153 5 view .LVU88
 301 0002 0B4B     		ldr	r3, .L20
 302 0004 9A42     		cmp	r2, r3
 303 0006 00D0     		beq	.L19
 304 0008 7047     		bx	lr
ARM GAS  /tmp/cczsEcHh.s 			page 10


 305              	.L19:
 152:Src/stm32f7xx_hal_msp.c ****   if(hadc->Instance==ADC1)
 306              		.loc 1 152 1 view .LVU89
 307 000a 10B5     		push	{r4, lr}
 308              	.LCFI6:
 309              		.cfi_def_cfa_offset 8
 310              		.cfi_offset 4, -8
 311              		.cfi_offset 14, -4
 312 000c 0446     		mov	r4, r0
 154:Src/stm32f7xx_hal_msp.c ****   {
 155:Src/stm32f7xx_hal_msp.c ****   /* USER CODE BEGIN ADC1_MspDeInit 0 */
 156:Src/stm32f7xx_hal_msp.c **** 
 157:Src/stm32f7xx_hal_msp.c ****   /* USER CODE END ADC1_MspDeInit 0 */
 158:Src/stm32f7xx_hal_msp.c ****     /* Peripheral clock disable */
 159:Src/stm32f7xx_hal_msp.c ****     __HAL_RCC_ADC1_CLK_DISABLE();
 313              		.loc 1 159 5 is_stmt 1 view .LVU90
 314 000e 094A     		ldr	r2, .L20+4
 315 0010 536C     		ldr	r3, [r2, #68]
 316 0012 23F48073 		bic	r3, r3, #256
 317 0016 5364     		str	r3, [r2, #68]
 160:Src/stm32f7xx_hal_msp.c ****   
 161:Src/stm32f7xx_hal_msp.c ****     /**ADC1 GPIO Configuration    
 162:Src/stm32f7xx_hal_msp.c ****     PA2     ------> ADC1_IN2
 163:Src/stm32f7xx_hal_msp.c ****     PA3     ------> ADC1_IN3
 164:Src/stm32f7xx_hal_msp.c ****     PA7     ------> ADC1_IN7
 165:Src/stm32f7xx_hal_msp.c ****     PB0     ------> ADC1_IN8
 166:Src/stm32f7xx_hal_msp.c ****     PB1     ------> ADC1_IN9 
 167:Src/stm32f7xx_hal_msp.c ****     */
 168:Src/stm32f7xx_hal_msp.c ****     HAL_GPIO_DeInit(GPIOA, CURRENT_SENSOR_Pin|T_BATT1_Pin|T_BATT2_Pin);
 318              		.loc 1 168 5 view .LVU91
 319 0018 8C21     		movs	r1, #140
 320 001a 0748     		ldr	r0, .L20+8
 321              	.LVL9:
 322              		.loc 1 168 5 is_stmt 0 view .LVU92
 323 001c FFF7FEFF 		bl	HAL_GPIO_DeInit
 324              	.LVL10:
 169:Src/stm32f7xx_hal_msp.c **** 
 170:Src/stm32f7xx_hal_msp.c ****     HAL_GPIO_DeInit(GPIOB, T_DCDC12_Pin|T_DCDC24_Pin);
 325              		.loc 1 170 5 is_stmt 1 view .LVU93
 326 0020 0321     		movs	r1, #3
 327 0022 0648     		ldr	r0, .L20+12
 328 0024 FFF7FEFF 		bl	HAL_GPIO_DeInit
 329              	.LVL11:
 171:Src/stm32f7xx_hal_msp.c **** 
 172:Src/stm32f7xx_hal_msp.c ****     /* ADC1 DMA DeInit */
 173:Src/stm32f7xx_hal_msp.c ****     HAL_DMA_DeInit(hadc->DMA_Handle);
 330              		.loc 1 173 5 view .LVU94
 331 0028 A06B     		ldr	r0, [r4, #56]
 332 002a FFF7FEFF 		bl	HAL_DMA_DeInit
 333              	.LVL12:
 174:Src/stm32f7xx_hal_msp.c ****   /* USER CODE BEGIN ADC1_MspDeInit 1 */
 175:Src/stm32f7xx_hal_msp.c **** 
 176:Src/stm32f7xx_hal_msp.c ****   /* USER CODE END ADC1_MspDeInit 1 */
 177:Src/stm32f7xx_hal_msp.c ****   }
 178:Src/stm32f7xx_hal_msp.c **** 
 179:Src/stm32f7xx_hal_msp.c **** }
 334              		.loc 1 179 1 is_stmt 0 view .LVU95
ARM GAS  /tmp/cczsEcHh.s 			page 11


 335 002e 10BD     		pop	{r4, pc}
 336              	.LVL13:
 337              	.L21:
 338              		.loc 1 179 1 view .LVU96
 339              		.align	2
 340              	.L20:
 341 0030 00200140 		.word	1073815552
 342 0034 00380240 		.word	1073887232
 343 0038 00000240 		.word	1073872896
 344 003c 00040240 		.word	1073873920
 345              		.cfi_endproc
 346              	.LFE143:
 348              		.section	.text.HAL_CAN_MspInit,"ax",%progbits
 349              		.align	1
 350              		.global	HAL_CAN_MspInit
 351              		.syntax unified
 352              		.thumb
 353              		.thumb_func
 354              		.fpu fpv5-d16
 356              	HAL_CAN_MspInit:
 357              	.LVL14:
 358              	.LFB144:
 180:Src/stm32f7xx_hal_msp.c **** 
 181:Src/stm32f7xx_hal_msp.c **** static uint32_t HAL_RCC_CAN1_CLK_ENABLED=0;
 182:Src/stm32f7xx_hal_msp.c **** 
 183:Src/stm32f7xx_hal_msp.c **** /**
 184:Src/stm32f7xx_hal_msp.c **** * @brief CAN MSP Initialization
 185:Src/stm32f7xx_hal_msp.c **** * This function configures the hardware resources used in this example
 186:Src/stm32f7xx_hal_msp.c **** * @param hcan: CAN handle pointer
 187:Src/stm32f7xx_hal_msp.c **** * @retval None
 188:Src/stm32f7xx_hal_msp.c **** */
 189:Src/stm32f7xx_hal_msp.c **** void HAL_CAN_MspInit(CAN_HandleTypeDef* hcan)
 190:Src/stm32f7xx_hal_msp.c **** {
 359              		.loc 1 190 1 is_stmt 1 view -0
 360              		.cfi_startproc
 361              		@ args = 0, pretend = 0, frame = 48
 362              		@ frame_needed = 0, uses_anonymous_args = 0
 363              		.loc 1 190 1 is_stmt 0 view .LVU98
 364 0000 F0B5     		push	{r4, r5, r6, r7, lr}
 365              	.LCFI7:
 366              		.cfi_def_cfa_offset 20
 367              		.cfi_offset 4, -20
 368              		.cfi_offset 5, -16
 369              		.cfi_offset 6, -12
 370              		.cfi_offset 7, -8
 371              		.cfi_offset 14, -4
 372 0002 8DB0     		sub	sp, sp, #52
 373              	.LCFI8:
 374              		.cfi_def_cfa_offset 72
 191:Src/stm32f7xx_hal_msp.c ****   GPIO_InitTypeDef GPIO_InitStruct = {0};
 375              		.loc 1 191 3 is_stmt 1 view .LVU99
 376              		.loc 1 191 20 is_stmt 0 view .LVU100
 377 0004 0023     		movs	r3, #0
 378 0006 0793     		str	r3, [sp, #28]
 379 0008 0893     		str	r3, [sp, #32]
 380 000a 0993     		str	r3, [sp, #36]
 381 000c 0A93     		str	r3, [sp, #40]
ARM GAS  /tmp/cczsEcHh.s 			page 12


 382 000e 0B93     		str	r3, [sp, #44]
 192:Src/stm32f7xx_hal_msp.c ****   if(hcan->Instance==CAN1)
 383              		.loc 1 192 3 is_stmt 1 view .LVU101
 384              		.loc 1 192 10 is_stmt 0 view .LVU102
 385 0010 0368     		ldr	r3, [r0]
 386              		.loc 1 192 5 view .LVU103
 387 0012 414A     		ldr	r2, .L32
 388 0014 9342     		cmp	r3, r2
 389 0016 04D0     		beq	.L28
 193:Src/stm32f7xx_hal_msp.c ****   {
 194:Src/stm32f7xx_hal_msp.c ****   /* USER CODE BEGIN CAN1_MspInit 0 */
 195:Src/stm32f7xx_hal_msp.c **** 
 196:Src/stm32f7xx_hal_msp.c ****   /* USER CODE END CAN1_MspInit 0 */
 197:Src/stm32f7xx_hal_msp.c ****     /* Peripheral clock enable */
 198:Src/stm32f7xx_hal_msp.c ****     HAL_RCC_CAN1_CLK_ENABLED++;
 199:Src/stm32f7xx_hal_msp.c ****     if(HAL_RCC_CAN1_CLK_ENABLED==1){
 200:Src/stm32f7xx_hal_msp.c ****       __HAL_RCC_CAN1_CLK_ENABLE();
 201:Src/stm32f7xx_hal_msp.c ****     }
 202:Src/stm32f7xx_hal_msp.c ****   
 203:Src/stm32f7xx_hal_msp.c ****     __HAL_RCC_GPIOD_CLK_ENABLE();
 204:Src/stm32f7xx_hal_msp.c ****     /**CAN1 GPIO Configuration    
 205:Src/stm32f7xx_hal_msp.c ****     PD0     ------> CAN1_RX
 206:Src/stm32f7xx_hal_msp.c ****     PD1     ------> CAN1_TX 
 207:Src/stm32f7xx_hal_msp.c ****     */
 208:Src/stm32f7xx_hal_msp.c ****     GPIO_InitStruct.Pin = GPIO_PIN_0|GPIO_PIN_1;
 209:Src/stm32f7xx_hal_msp.c ****     GPIO_InitStruct.Mode = GPIO_MODE_AF_PP;
 210:Src/stm32f7xx_hal_msp.c ****     GPIO_InitStruct.Pull = GPIO_NOPULL;
 211:Src/stm32f7xx_hal_msp.c ****     GPIO_InitStruct.Speed = GPIO_SPEED_FREQ_VERY_HIGH;
 212:Src/stm32f7xx_hal_msp.c ****     GPIO_InitStruct.Alternate = GPIO_AF9_CAN1;
 213:Src/stm32f7xx_hal_msp.c ****     HAL_GPIO_Init(GPIOD, &GPIO_InitStruct);
 214:Src/stm32f7xx_hal_msp.c **** 
 215:Src/stm32f7xx_hal_msp.c ****   /* USER CODE BEGIN CAN1_MspInit 1 */
 216:Src/stm32f7xx_hal_msp.c **** 
 217:Src/stm32f7xx_hal_msp.c ****   /* USER CODE END CAN1_MspInit 1 */
 218:Src/stm32f7xx_hal_msp.c ****   }
 219:Src/stm32f7xx_hal_msp.c ****   else if(hcan->Instance==CAN3)
 390              		.loc 1 219 8 is_stmt 1 view .LVU104
 391              		.loc 1 219 10 is_stmt 0 view .LVU105
 392 0018 404A     		ldr	r2, .L32+4
 393 001a 9342     		cmp	r3, r2
 394 001c 2AD0     		beq	.L29
 395              	.LVL15:
 396              	.L22:
 220:Src/stm32f7xx_hal_msp.c ****   {
 221:Src/stm32f7xx_hal_msp.c ****   /* USER CODE BEGIN CAN3_MspInit 0 */
 222:Src/stm32f7xx_hal_msp.c **** 
 223:Src/stm32f7xx_hal_msp.c ****   /* USER CODE END CAN3_MspInit 0 */
 224:Src/stm32f7xx_hal_msp.c ****     /* Peripheral clock enable */
 225:Src/stm32f7xx_hal_msp.c ****     __HAL_RCC_CAN3_CLK_ENABLE();
 226:Src/stm32f7xx_hal_msp.c ****     __HAL_RCC_CAN2_CLK_ENABLE();
 227:Src/stm32f7xx_hal_msp.c ****     HAL_RCC_CAN1_CLK_ENABLED++;
 228:Src/stm32f7xx_hal_msp.c ****     if(HAL_RCC_CAN1_CLK_ENABLED==1){
 229:Src/stm32f7xx_hal_msp.c ****       __HAL_RCC_CAN1_CLK_ENABLE();
 230:Src/stm32f7xx_hal_msp.c ****     }
 231:Src/stm32f7xx_hal_msp.c ****   
 232:Src/stm32f7xx_hal_msp.c ****     __HAL_RCC_GPIOA_CLK_ENABLE();
 233:Src/stm32f7xx_hal_msp.c ****     __HAL_RCC_GPIOB_CLK_ENABLE();
ARM GAS  /tmp/cczsEcHh.s 			page 13


 234:Src/stm32f7xx_hal_msp.c ****     /**CAN3 GPIO Configuration    
 235:Src/stm32f7xx_hal_msp.c ****     PA8     ------> CAN3_RX
 236:Src/stm32f7xx_hal_msp.c ****     PB4     ------> CAN3_TX 
 237:Src/stm32f7xx_hal_msp.c ****     */
 238:Src/stm32f7xx_hal_msp.c ****     GPIO_InitStruct.Pin = GPIO_PIN_8;
 239:Src/stm32f7xx_hal_msp.c ****     GPIO_InitStruct.Mode = GPIO_MODE_AF_PP;
 240:Src/stm32f7xx_hal_msp.c ****     GPIO_InitStruct.Pull = GPIO_NOPULL;
 241:Src/stm32f7xx_hal_msp.c ****     GPIO_InitStruct.Speed = GPIO_SPEED_FREQ_VERY_HIGH;
 242:Src/stm32f7xx_hal_msp.c ****     GPIO_InitStruct.Alternate = GPIO_AF11_CAN3;
 243:Src/stm32f7xx_hal_msp.c ****     HAL_GPIO_Init(GPIOA, &GPIO_InitStruct);
 244:Src/stm32f7xx_hal_msp.c **** 
 245:Src/stm32f7xx_hal_msp.c ****     GPIO_InitStruct.Pin = GPIO_PIN_4;
 246:Src/stm32f7xx_hal_msp.c ****     GPIO_InitStruct.Mode = GPIO_MODE_AF_PP;
 247:Src/stm32f7xx_hal_msp.c ****     GPIO_InitStruct.Pull = GPIO_NOPULL;
 248:Src/stm32f7xx_hal_msp.c ****     GPIO_InitStruct.Speed = GPIO_SPEED_FREQ_VERY_HIGH;
 249:Src/stm32f7xx_hal_msp.c ****     GPIO_InitStruct.Alternate = GPIO_AF11_CAN3;
 250:Src/stm32f7xx_hal_msp.c ****     HAL_GPIO_Init(GPIOB, &GPIO_InitStruct);
 251:Src/stm32f7xx_hal_msp.c **** 
 252:Src/stm32f7xx_hal_msp.c ****   /* USER CODE BEGIN CAN3_MspInit 1 */
 253:Src/stm32f7xx_hal_msp.c **** 
 254:Src/stm32f7xx_hal_msp.c ****   /* USER CODE END CAN3_MspInit 1 */
 255:Src/stm32f7xx_hal_msp.c ****   }
 256:Src/stm32f7xx_hal_msp.c **** 
 257:Src/stm32f7xx_hal_msp.c **** }
 397              		.loc 1 257 1 view .LVU106
 398 001e 0DB0     		add	sp, sp, #52
 399              	.LCFI9:
 400              		.cfi_remember_state
 401              		.cfi_def_cfa_offset 20
 402              		@ sp needed
 403 0020 F0BD     		pop	{r4, r5, r6, r7, pc}
 404              	.LVL16:
 405              	.L28:
 406              	.LCFI10:
 407              		.cfi_restore_state
 198:Src/stm32f7xx_hal_msp.c ****     if(HAL_RCC_CAN1_CLK_ENABLED==1){
 408              		.loc 1 198 5 is_stmt 1 view .LVU107
 198:Src/stm32f7xx_hal_msp.c ****     if(HAL_RCC_CAN1_CLK_ENABLED==1){
 409              		.loc 1 198 29 is_stmt 0 view .LVU108
 410 0022 3F4A     		ldr	r2, .L32+8
 411 0024 1368     		ldr	r3, [r2]
 412 0026 0133     		adds	r3, r3, #1
 413 0028 1360     		str	r3, [r2]
 199:Src/stm32f7xx_hal_msp.c ****       __HAL_RCC_CAN1_CLK_ENABLE();
 414              		.loc 1 199 5 is_stmt 1 view .LVU109
 199:Src/stm32f7xx_hal_msp.c ****       __HAL_RCC_CAN1_CLK_ENABLE();
 415              		.loc 1 199 7 is_stmt 0 view .LVU110
 416 002a 012B     		cmp	r3, #1
 417 002c 17D0     		beq	.L30
 418              	.L24:
 200:Src/stm32f7xx_hal_msp.c ****     }
 419              		.loc 1 200 7 is_stmt 1 discriminator 1 view .LVU111
 203:Src/stm32f7xx_hal_msp.c ****     /**CAN1 GPIO Configuration    
 420              		.loc 1 203 5 discriminator 1 view .LVU112
 421              	.LBB7:
 203:Src/stm32f7xx_hal_msp.c ****     /**CAN1 GPIO Configuration    
 422              		.loc 1 203 5 discriminator 1 view .LVU113
ARM GAS  /tmp/cczsEcHh.s 			page 14


 203:Src/stm32f7xx_hal_msp.c ****     /**CAN1 GPIO Configuration    
 423              		.loc 1 203 5 discriminator 1 view .LVU114
 424 002e 3D4B     		ldr	r3, .L32+12
 425 0030 1A6B     		ldr	r2, [r3, #48]
 426 0032 42F00802 		orr	r2, r2, #8
 427 0036 1A63     		str	r2, [r3, #48]
 203:Src/stm32f7xx_hal_msp.c ****     /**CAN1 GPIO Configuration    
 428              		.loc 1 203 5 discriminator 1 view .LVU115
 429 0038 1B6B     		ldr	r3, [r3, #48]
 430 003a 03F00803 		and	r3, r3, #8
 431 003e 0193     		str	r3, [sp, #4]
 203:Src/stm32f7xx_hal_msp.c ****     /**CAN1 GPIO Configuration    
 432              		.loc 1 203 5 discriminator 1 view .LVU116
 433 0040 019B     		ldr	r3, [sp, #4]
 434              	.LBE7:
 203:Src/stm32f7xx_hal_msp.c ****     /**CAN1 GPIO Configuration    
 435              		.loc 1 203 5 discriminator 1 view .LVU117
 208:Src/stm32f7xx_hal_msp.c ****     GPIO_InitStruct.Mode = GPIO_MODE_AF_PP;
 436              		.loc 1 208 5 discriminator 1 view .LVU118
 208:Src/stm32f7xx_hal_msp.c ****     GPIO_InitStruct.Mode = GPIO_MODE_AF_PP;
 437              		.loc 1 208 25 is_stmt 0 discriminator 1 view .LVU119
 438 0042 0323     		movs	r3, #3
 439 0044 0793     		str	r3, [sp, #28]
 209:Src/stm32f7xx_hal_msp.c ****     GPIO_InitStruct.Pull = GPIO_NOPULL;
 440              		.loc 1 209 5 is_stmt 1 discriminator 1 view .LVU120
 209:Src/stm32f7xx_hal_msp.c ****     GPIO_InitStruct.Pull = GPIO_NOPULL;
 441              		.loc 1 209 26 is_stmt 0 discriminator 1 view .LVU121
 442 0046 0222     		movs	r2, #2
 443 0048 0892     		str	r2, [sp, #32]
 210:Src/stm32f7xx_hal_msp.c ****     GPIO_InitStruct.Speed = GPIO_SPEED_FREQ_VERY_HIGH;
 444              		.loc 1 210 5 is_stmt 1 discriminator 1 view .LVU122
 210:Src/stm32f7xx_hal_msp.c ****     GPIO_InitStruct.Speed = GPIO_SPEED_FREQ_VERY_HIGH;
 445              		.loc 1 210 26 is_stmt 0 discriminator 1 view .LVU123
 446 004a 0022     		movs	r2, #0
 447 004c 0992     		str	r2, [sp, #36]
 211:Src/stm32f7xx_hal_msp.c ****     GPIO_InitStruct.Alternate = GPIO_AF9_CAN1;
 448              		.loc 1 211 5 is_stmt 1 discriminator 1 view .LVU124
 211:Src/stm32f7xx_hal_msp.c ****     GPIO_InitStruct.Alternate = GPIO_AF9_CAN1;
 449              		.loc 1 211 27 is_stmt 0 discriminator 1 view .LVU125
 450 004e 0A93     		str	r3, [sp, #40]
 212:Src/stm32f7xx_hal_msp.c ****     HAL_GPIO_Init(GPIOD, &GPIO_InitStruct);
 451              		.loc 1 212 5 is_stmt 1 discriminator 1 view .LVU126
 212:Src/stm32f7xx_hal_msp.c ****     HAL_GPIO_Init(GPIOD, &GPIO_InitStruct);
 452              		.loc 1 212 31 is_stmt 0 discriminator 1 view .LVU127
 453 0050 0923     		movs	r3, #9
 454 0052 0B93     		str	r3, [sp, #44]
 213:Src/stm32f7xx_hal_msp.c **** 
 455              		.loc 1 213 5 is_stmt 1 discriminator 1 view .LVU128
 456 0054 07A9     		add	r1, sp, #28
 457 0056 3448     		ldr	r0, .L32+16
 458              	.LVL17:
 213:Src/stm32f7xx_hal_msp.c **** 
 459              		.loc 1 213 5 is_stmt 0 discriminator 1 view .LVU129
 460 0058 FFF7FEFF 		bl	HAL_GPIO_Init
 461              	.LVL18:
 462 005c DFE7     		b	.L22
 463              	.LVL19:
ARM GAS  /tmp/cczsEcHh.s 			page 15


 464              	.L30:
 200:Src/stm32f7xx_hal_msp.c ****     }
 465              		.loc 1 200 7 is_stmt 1 view .LVU130
 466              	.LBB8:
 200:Src/stm32f7xx_hal_msp.c ****     }
 467              		.loc 1 200 7 view .LVU131
 200:Src/stm32f7xx_hal_msp.c ****     }
 468              		.loc 1 200 7 view .LVU132
 469 005e 314B     		ldr	r3, .L32+12
 470 0060 1A6C     		ldr	r2, [r3, #64]
 471 0062 42F00072 		orr	r2, r2, #33554432
 472 0066 1A64     		str	r2, [r3, #64]
 200:Src/stm32f7xx_hal_msp.c ****     }
 473              		.loc 1 200 7 view .LVU133
 474 0068 1B6C     		ldr	r3, [r3, #64]
 475 006a 03F00073 		and	r3, r3, #33554432
 476 006e 0093     		str	r3, [sp]
 200:Src/stm32f7xx_hal_msp.c ****     }
 477              		.loc 1 200 7 view .LVU134
 478 0070 009B     		ldr	r3, [sp]
 479 0072 DCE7     		b	.L24
 480              	.L29:
 481              	.LBE8:
 225:Src/stm32f7xx_hal_msp.c ****     __HAL_RCC_CAN2_CLK_ENABLE();
 482              		.loc 1 225 5 view .LVU135
 483              	.LBB9:
 225:Src/stm32f7xx_hal_msp.c ****     __HAL_RCC_CAN2_CLK_ENABLE();
 484              		.loc 1 225 5 view .LVU136
 225:Src/stm32f7xx_hal_msp.c ****     __HAL_RCC_CAN2_CLK_ENABLE();
 485              		.loc 1 225 5 view .LVU137
 486 0074 2B4B     		ldr	r3, .L32+12
 487 0076 1A6C     		ldr	r2, [r3, #64]
 488 0078 42F40052 		orr	r2, r2, #8192
 489 007c 1A64     		str	r2, [r3, #64]
 225:Src/stm32f7xx_hal_msp.c ****     __HAL_RCC_CAN2_CLK_ENABLE();
 490              		.loc 1 225 5 view .LVU138
 491 007e 1A6C     		ldr	r2, [r3, #64]
 492 0080 02F40052 		and	r2, r2, #8192
 493 0084 0292     		str	r2, [sp, #8]
 225:Src/stm32f7xx_hal_msp.c ****     __HAL_RCC_CAN2_CLK_ENABLE();
 494              		.loc 1 225 5 view .LVU139
 495 0086 029A     		ldr	r2, [sp, #8]
 496              	.LBE9:
 225:Src/stm32f7xx_hal_msp.c ****     __HAL_RCC_CAN2_CLK_ENABLE();
 497              		.loc 1 225 5 view .LVU140
 226:Src/stm32f7xx_hal_msp.c ****     HAL_RCC_CAN1_CLK_ENABLED++;
 498              		.loc 1 226 5 view .LVU141
 499              	.LBB10:
 226:Src/stm32f7xx_hal_msp.c ****     HAL_RCC_CAN1_CLK_ENABLED++;
 500              		.loc 1 226 5 view .LVU142
 226:Src/stm32f7xx_hal_msp.c ****     HAL_RCC_CAN1_CLK_ENABLED++;
 501              		.loc 1 226 5 view .LVU143
 502 0088 1A6C     		ldr	r2, [r3, #64]
 503 008a 42F08062 		orr	r2, r2, #67108864
 504 008e 1A64     		str	r2, [r3, #64]
 226:Src/stm32f7xx_hal_msp.c ****     HAL_RCC_CAN1_CLK_ENABLED++;
 505              		.loc 1 226 5 view .LVU144
ARM GAS  /tmp/cczsEcHh.s 			page 16


 506 0090 1B6C     		ldr	r3, [r3, #64]
 507 0092 03F08063 		and	r3, r3, #67108864
 508 0096 0393     		str	r3, [sp, #12]
 226:Src/stm32f7xx_hal_msp.c ****     HAL_RCC_CAN1_CLK_ENABLED++;
 509              		.loc 1 226 5 view .LVU145
 510 0098 039B     		ldr	r3, [sp, #12]
 511              	.LBE10:
 226:Src/stm32f7xx_hal_msp.c ****     HAL_RCC_CAN1_CLK_ENABLED++;
 512              		.loc 1 226 5 view .LVU146
 227:Src/stm32f7xx_hal_msp.c ****     if(HAL_RCC_CAN1_CLK_ENABLED==1){
 513              		.loc 1 227 5 view .LVU147
 227:Src/stm32f7xx_hal_msp.c ****     if(HAL_RCC_CAN1_CLK_ENABLED==1){
 514              		.loc 1 227 29 is_stmt 0 view .LVU148
 515 009a 214A     		ldr	r2, .L32+8
 516 009c 1368     		ldr	r3, [r2]
 517 009e 0133     		adds	r3, r3, #1
 518 00a0 1360     		str	r3, [r2]
 228:Src/stm32f7xx_hal_msp.c ****       __HAL_RCC_CAN1_CLK_ENABLE();
 519              		.loc 1 228 5 is_stmt 1 view .LVU149
 228:Src/stm32f7xx_hal_msp.c ****       __HAL_RCC_CAN1_CLK_ENABLE();
 520              		.loc 1 228 7 is_stmt 0 view .LVU150
 521 00a2 012B     		cmp	r3, #1
 522 00a4 2CD0     		beq	.L31
 523              	.L26:
 229:Src/stm32f7xx_hal_msp.c ****     }
 524              		.loc 1 229 7 is_stmt 1 discriminator 1 view .LVU151
 232:Src/stm32f7xx_hal_msp.c ****     __HAL_RCC_GPIOB_CLK_ENABLE();
 525              		.loc 1 232 5 discriminator 1 view .LVU152
 526              	.LBB11:
 232:Src/stm32f7xx_hal_msp.c ****     __HAL_RCC_GPIOB_CLK_ENABLE();
 527              		.loc 1 232 5 discriminator 1 view .LVU153
 232:Src/stm32f7xx_hal_msp.c ****     __HAL_RCC_GPIOB_CLK_ENABLE();
 528              		.loc 1 232 5 discriminator 1 view .LVU154
 529 00a6 1F4B     		ldr	r3, .L32+12
 530 00a8 1A6B     		ldr	r2, [r3, #48]
 531 00aa 42F00102 		orr	r2, r2, #1
 532 00ae 1A63     		str	r2, [r3, #48]
 232:Src/stm32f7xx_hal_msp.c ****     __HAL_RCC_GPIOB_CLK_ENABLE();
 533              		.loc 1 232 5 discriminator 1 view .LVU155
 534 00b0 1A6B     		ldr	r2, [r3, #48]
 535 00b2 02F00102 		and	r2, r2, #1
 536 00b6 0592     		str	r2, [sp, #20]
 232:Src/stm32f7xx_hal_msp.c ****     __HAL_RCC_GPIOB_CLK_ENABLE();
 537              		.loc 1 232 5 discriminator 1 view .LVU156
 538 00b8 059A     		ldr	r2, [sp, #20]
 539              	.LBE11:
 232:Src/stm32f7xx_hal_msp.c ****     __HAL_RCC_GPIOB_CLK_ENABLE();
 540              		.loc 1 232 5 discriminator 1 view .LVU157
 233:Src/stm32f7xx_hal_msp.c ****     /**CAN3 GPIO Configuration    
 541              		.loc 1 233 5 discriminator 1 view .LVU158
 542              	.LBB12:
 233:Src/stm32f7xx_hal_msp.c ****     /**CAN3 GPIO Configuration    
 543              		.loc 1 233 5 discriminator 1 view .LVU159
 233:Src/stm32f7xx_hal_msp.c ****     /**CAN3 GPIO Configuration    
 544              		.loc 1 233 5 discriminator 1 view .LVU160
 545 00ba 1A6B     		ldr	r2, [r3, #48]
 546 00bc 42F00202 		orr	r2, r2, #2
ARM GAS  /tmp/cczsEcHh.s 			page 17


 547 00c0 1A63     		str	r2, [r3, #48]
 233:Src/stm32f7xx_hal_msp.c ****     /**CAN3 GPIO Configuration    
 548              		.loc 1 233 5 discriminator 1 view .LVU161
 549 00c2 1B6B     		ldr	r3, [r3, #48]
 550 00c4 03F00203 		and	r3, r3, #2
 551 00c8 0693     		str	r3, [sp, #24]
 233:Src/stm32f7xx_hal_msp.c ****     /**CAN3 GPIO Configuration    
 552              		.loc 1 233 5 discriminator 1 view .LVU162
 553 00ca 069B     		ldr	r3, [sp, #24]
 554              	.LBE12:
 233:Src/stm32f7xx_hal_msp.c ****     /**CAN3 GPIO Configuration    
 555              		.loc 1 233 5 discriminator 1 view .LVU163
 238:Src/stm32f7xx_hal_msp.c ****     GPIO_InitStruct.Mode = GPIO_MODE_AF_PP;
 556              		.loc 1 238 5 discriminator 1 view .LVU164
 238:Src/stm32f7xx_hal_msp.c ****     GPIO_InitStruct.Mode = GPIO_MODE_AF_PP;
 557              		.loc 1 238 25 is_stmt 0 discriminator 1 view .LVU165
 558 00cc 4FF48073 		mov	r3, #256
 559 00d0 0793     		str	r3, [sp, #28]
 239:Src/stm32f7xx_hal_msp.c ****     GPIO_InitStruct.Pull = GPIO_NOPULL;
 560              		.loc 1 239 5 is_stmt 1 discriminator 1 view .LVU166
 239:Src/stm32f7xx_hal_msp.c ****     GPIO_InitStruct.Pull = GPIO_NOPULL;
 561              		.loc 1 239 26 is_stmt 0 discriminator 1 view .LVU167
 562 00d2 0227     		movs	r7, #2
 563 00d4 0897     		str	r7, [sp, #32]
 240:Src/stm32f7xx_hal_msp.c ****     GPIO_InitStruct.Speed = GPIO_SPEED_FREQ_VERY_HIGH;
 564              		.loc 1 240 5 is_stmt 1 discriminator 1 view .LVU168
 240:Src/stm32f7xx_hal_msp.c ****     GPIO_InitStruct.Speed = GPIO_SPEED_FREQ_VERY_HIGH;
 565              		.loc 1 240 26 is_stmt 0 discriminator 1 view .LVU169
 566 00d6 0026     		movs	r6, #0
 567 00d8 0996     		str	r6, [sp, #36]
 241:Src/stm32f7xx_hal_msp.c ****     GPIO_InitStruct.Alternate = GPIO_AF11_CAN3;
 568              		.loc 1 241 5 is_stmt 1 discriminator 1 view .LVU170
 241:Src/stm32f7xx_hal_msp.c ****     GPIO_InitStruct.Alternate = GPIO_AF11_CAN3;
 569              		.loc 1 241 27 is_stmt 0 discriminator 1 view .LVU171
 570 00da 0325     		movs	r5, #3
 571 00dc 0A95     		str	r5, [sp, #40]
 242:Src/stm32f7xx_hal_msp.c ****     HAL_GPIO_Init(GPIOA, &GPIO_InitStruct);
 572              		.loc 1 242 5 is_stmt 1 discriminator 1 view .LVU172
 242:Src/stm32f7xx_hal_msp.c ****     HAL_GPIO_Init(GPIOA, &GPIO_InitStruct);
 573              		.loc 1 242 31 is_stmt 0 discriminator 1 view .LVU173
 574 00de 0B24     		movs	r4, #11
 575 00e0 0B94     		str	r4, [sp, #44]
 243:Src/stm32f7xx_hal_msp.c **** 
 576              		.loc 1 243 5 is_stmt 1 discriminator 1 view .LVU174
 577 00e2 07A9     		add	r1, sp, #28
 578 00e4 1148     		ldr	r0, .L32+20
 579              	.LVL20:
 243:Src/stm32f7xx_hal_msp.c **** 
 580              		.loc 1 243 5 is_stmt 0 discriminator 1 view .LVU175
 581 00e6 FFF7FEFF 		bl	HAL_GPIO_Init
 582              	.LVL21:
 245:Src/stm32f7xx_hal_msp.c ****     GPIO_InitStruct.Mode = GPIO_MODE_AF_PP;
 583              		.loc 1 245 5 is_stmt 1 discriminator 1 view .LVU176
 245:Src/stm32f7xx_hal_msp.c ****     GPIO_InitStruct.Mode = GPIO_MODE_AF_PP;
 584              		.loc 1 245 25 is_stmt 0 discriminator 1 view .LVU177
 585 00ea 1023     		movs	r3, #16
 586 00ec 0793     		str	r3, [sp, #28]
ARM GAS  /tmp/cczsEcHh.s 			page 18


 246:Src/stm32f7xx_hal_msp.c ****     GPIO_InitStruct.Pull = GPIO_NOPULL;
 587              		.loc 1 246 5 is_stmt 1 discriminator 1 view .LVU178
 246:Src/stm32f7xx_hal_msp.c ****     GPIO_InitStruct.Pull = GPIO_NOPULL;
 588              		.loc 1 246 26 is_stmt 0 discriminator 1 view .LVU179
 589 00ee 0897     		str	r7, [sp, #32]
 247:Src/stm32f7xx_hal_msp.c ****     GPIO_InitStruct.Speed = GPIO_SPEED_FREQ_VERY_HIGH;
 590              		.loc 1 247 5 is_stmt 1 discriminator 1 view .LVU180
 247:Src/stm32f7xx_hal_msp.c ****     GPIO_InitStruct.Speed = GPIO_SPEED_FREQ_VERY_HIGH;
 591              		.loc 1 247 26 is_stmt 0 discriminator 1 view .LVU181
 592 00f0 0996     		str	r6, [sp, #36]
 248:Src/stm32f7xx_hal_msp.c ****     GPIO_InitStruct.Alternate = GPIO_AF11_CAN3;
 593              		.loc 1 248 5 is_stmt 1 discriminator 1 view .LVU182
 248:Src/stm32f7xx_hal_msp.c ****     GPIO_InitStruct.Alternate = GPIO_AF11_CAN3;
 594              		.loc 1 248 27 is_stmt 0 discriminator 1 view .LVU183
 595 00f2 0A95     		str	r5, [sp, #40]
 249:Src/stm32f7xx_hal_msp.c ****     HAL_GPIO_Init(GPIOB, &GPIO_InitStruct);
 596              		.loc 1 249 5 is_stmt 1 discriminator 1 view .LVU184
 249:Src/stm32f7xx_hal_msp.c ****     HAL_GPIO_Init(GPIOB, &GPIO_InitStruct);
 597              		.loc 1 249 31 is_stmt 0 discriminator 1 view .LVU185
 598 00f4 0B94     		str	r4, [sp, #44]
 250:Src/stm32f7xx_hal_msp.c **** 
 599              		.loc 1 250 5 is_stmt 1 discriminator 1 view .LVU186
 600 00f6 07A9     		add	r1, sp, #28
 601 00f8 0D48     		ldr	r0, .L32+24
 602 00fa FFF7FEFF 		bl	HAL_GPIO_Init
 603              	.LVL22:
 604              		.loc 1 257 1 is_stmt 0 discriminator 1 view .LVU187
 605 00fe 8EE7     		b	.L22
 606              	.LVL23:
 607              	.L31:
 229:Src/stm32f7xx_hal_msp.c ****     }
 608              		.loc 1 229 7 is_stmt 1 view .LVU188
 609              	.LBB13:
 229:Src/stm32f7xx_hal_msp.c ****     }
 610              		.loc 1 229 7 view .LVU189
 229:Src/stm32f7xx_hal_msp.c ****     }
 611              		.loc 1 229 7 view .LVU190
 612 0100 084B     		ldr	r3, .L32+12
 613 0102 1A6C     		ldr	r2, [r3, #64]
 614 0104 42F00072 		orr	r2, r2, #33554432
 615 0108 1A64     		str	r2, [r3, #64]
 229:Src/stm32f7xx_hal_msp.c ****     }
 616              		.loc 1 229 7 view .LVU191
 617 010a 1B6C     		ldr	r3, [r3, #64]
 618 010c 03F00073 		and	r3, r3, #33554432
 619 0110 0493     		str	r3, [sp, #16]
 229:Src/stm32f7xx_hal_msp.c ****     }
 620              		.loc 1 229 7 view .LVU192
 621 0112 049B     		ldr	r3, [sp, #16]
 622 0114 C7E7     		b	.L26
 623              	.L33:
 624 0116 00BF     		.align	2
 625              	.L32:
 626 0118 00640040 		.word	1073767424
 627 011c 00340040 		.word	1073755136
 628 0120 00000000 		.word	.LANCHOR0
 629 0124 00380240 		.word	1073887232
ARM GAS  /tmp/cczsEcHh.s 			page 19


 630 0128 000C0240 		.word	1073875968
 631 012c 00000240 		.word	1073872896
 632 0130 00040240 		.word	1073873920
 633              	.LBE13:
 634              		.cfi_endproc
 635              	.LFE144:
 637              		.section	.text.HAL_CAN_MspDeInit,"ax",%progbits
 638              		.align	1
 639              		.global	HAL_CAN_MspDeInit
 640              		.syntax unified
 641              		.thumb
 642              		.thumb_func
 643              		.fpu fpv5-d16
 645              	HAL_CAN_MspDeInit:
 646              	.LVL24:
 647              	.LFB145:
 258:Src/stm32f7xx_hal_msp.c **** 
 259:Src/stm32f7xx_hal_msp.c **** /**
 260:Src/stm32f7xx_hal_msp.c **** * @brief CAN MSP De-Initialization
 261:Src/stm32f7xx_hal_msp.c **** * This function freeze the hardware resources used in this example
 262:Src/stm32f7xx_hal_msp.c **** * @param hcan: CAN handle pointer
 263:Src/stm32f7xx_hal_msp.c **** * @retval None
 264:Src/stm32f7xx_hal_msp.c **** */
 265:Src/stm32f7xx_hal_msp.c **** void HAL_CAN_MspDeInit(CAN_HandleTypeDef* hcan)
 266:Src/stm32f7xx_hal_msp.c **** {
 648              		.loc 1 266 1 view -0
 649              		.cfi_startproc
 650              		@ args = 0, pretend = 0, frame = 0
 651              		@ frame_needed = 0, uses_anonymous_args = 0
 652              		.loc 1 266 1 is_stmt 0 view .LVU194
 653 0000 08B5     		push	{r3, lr}
 654              	.LCFI11:
 655              		.cfi_def_cfa_offset 8
 656              		.cfi_offset 3, -8
 657              		.cfi_offset 14, -4
 267:Src/stm32f7xx_hal_msp.c ****   if(hcan->Instance==CAN1)
 658              		.loc 1 267 3 is_stmt 1 view .LVU195
 659              		.loc 1 267 10 is_stmt 0 view .LVU196
 660 0002 0368     		ldr	r3, [r0]
 661              		.loc 1 267 5 view .LVU197
 662 0004 174A     		ldr	r2, .L41
 663 0006 9342     		cmp	r3, r2
 664 0008 03D0     		beq	.L39
 268:Src/stm32f7xx_hal_msp.c ****   {
 269:Src/stm32f7xx_hal_msp.c ****   /* USER CODE BEGIN CAN1_MspDeInit 0 */
 270:Src/stm32f7xx_hal_msp.c **** 
 271:Src/stm32f7xx_hal_msp.c ****   /* USER CODE END CAN1_MspDeInit 0 */
 272:Src/stm32f7xx_hal_msp.c ****     /* Peripheral clock disable */
 273:Src/stm32f7xx_hal_msp.c ****     __HAL_RCC_CAN1_CLK_DISABLE();
 274:Src/stm32f7xx_hal_msp.c ****   
 275:Src/stm32f7xx_hal_msp.c ****     /**CAN1 GPIO Configuration    
 276:Src/stm32f7xx_hal_msp.c ****     PD0     ------> CAN1_RX
 277:Src/stm32f7xx_hal_msp.c ****     PD1     ------> CAN1_TX 
 278:Src/stm32f7xx_hal_msp.c ****     */
 279:Src/stm32f7xx_hal_msp.c ****     HAL_GPIO_DeInit(GPIOD, GPIO_PIN_0|GPIO_PIN_1);
 280:Src/stm32f7xx_hal_msp.c **** 
 281:Src/stm32f7xx_hal_msp.c ****   /* USER CODE BEGIN CAN1_MspDeInit 1 */
ARM GAS  /tmp/cczsEcHh.s 			page 20


 282:Src/stm32f7xx_hal_msp.c **** 
 283:Src/stm32f7xx_hal_msp.c ****   /* USER CODE END CAN1_MspDeInit 1 */
 284:Src/stm32f7xx_hal_msp.c ****   }
 285:Src/stm32f7xx_hal_msp.c ****   else if(hcan->Instance==CAN3)
 665              		.loc 1 285 8 is_stmt 1 view .LVU198
 666              		.loc 1 285 10 is_stmt 0 view .LVU199
 667 000a 174A     		ldr	r2, .L41+4
 668 000c 9342     		cmp	r3, r2
 669 000e 0BD0     		beq	.L40
 670              	.LVL25:
 671              	.L34:
 286:Src/stm32f7xx_hal_msp.c ****   {
 287:Src/stm32f7xx_hal_msp.c ****   /* USER CODE BEGIN CAN3_MspDeInit 0 */
 288:Src/stm32f7xx_hal_msp.c **** 
 289:Src/stm32f7xx_hal_msp.c ****   /* USER CODE END CAN3_MspDeInit 0 */
 290:Src/stm32f7xx_hal_msp.c ****     /* Peripheral clock disable */
 291:Src/stm32f7xx_hal_msp.c ****     __HAL_RCC_CAN3_CLK_DISABLE();
 292:Src/stm32f7xx_hal_msp.c ****     __HAL_RCC_CAN2_CLK_DISABLE();
 293:Src/stm32f7xx_hal_msp.c ****     HAL_RCC_CAN1_CLK_ENABLED--;
 294:Src/stm32f7xx_hal_msp.c ****     if(HAL_RCC_CAN1_CLK_ENABLED==0){
 295:Src/stm32f7xx_hal_msp.c ****       __HAL_RCC_CAN1_CLK_DISABLE();
 296:Src/stm32f7xx_hal_msp.c ****     }
 297:Src/stm32f7xx_hal_msp.c ****   
 298:Src/stm32f7xx_hal_msp.c ****     /**CAN3 GPIO Configuration    
 299:Src/stm32f7xx_hal_msp.c ****     PA8     ------> CAN3_RX
 300:Src/stm32f7xx_hal_msp.c ****     PB4     ------> CAN3_TX 
 301:Src/stm32f7xx_hal_msp.c ****     */
 302:Src/stm32f7xx_hal_msp.c ****     HAL_GPIO_DeInit(GPIOA, GPIO_PIN_8);
 303:Src/stm32f7xx_hal_msp.c **** 
 304:Src/stm32f7xx_hal_msp.c ****     HAL_GPIO_DeInit(GPIOB, GPIO_PIN_4);
 305:Src/stm32f7xx_hal_msp.c **** 
 306:Src/stm32f7xx_hal_msp.c ****   /* USER CODE BEGIN CAN3_MspDeInit 1 */
 307:Src/stm32f7xx_hal_msp.c **** 
 308:Src/stm32f7xx_hal_msp.c ****   /* USER CODE END CAN3_MspDeInit 1 */
 309:Src/stm32f7xx_hal_msp.c ****   }
 310:Src/stm32f7xx_hal_msp.c **** 
 311:Src/stm32f7xx_hal_msp.c **** }
 672              		.loc 1 311 1 view .LVU200
 673 0010 08BD     		pop	{r3, pc}
 674              	.LVL26:
 675              	.L39:
 273:Src/stm32f7xx_hal_msp.c ****   
 676              		.loc 1 273 5 is_stmt 1 view .LVU201
 677 0012 02F5EA32 		add	r2, r2, #119808
 678 0016 136C     		ldr	r3, [r2, #64]
 679 0018 23F00073 		bic	r3, r3, #33554432
 680 001c 1364     		str	r3, [r2, #64]
 279:Src/stm32f7xx_hal_msp.c **** 
 681              		.loc 1 279 5 view .LVU202
 682 001e 0321     		movs	r1, #3
 683 0020 1248     		ldr	r0, .L41+8
 684              	.LVL27:
 279:Src/stm32f7xx_hal_msp.c **** 
 685              		.loc 1 279 5 is_stmt 0 view .LVU203
 686 0022 FFF7FEFF 		bl	HAL_GPIO_DeInit
 687              	.LVL28:
 688 0026 F3E7     		b	.L34
ARM GAS  /tmp/cczsEcHh.s 			page 21


 689              	.LVL29:
 690              	.L40:
 291:Src/stm32f7xx_hal_msp.c ****     __HAL_RCC_CAN2_CLK_DISABLE();
 691              		.loc 1 291 5 is_stmt 1 view .LVU204
 692 0028 114B     		ldr	r3, .L41+12
 693 002a 1A6C     		ldr	r2, [r3, #64]
 694 002c 22F40052 		bic	r2, r2, #8192
 695 0030 1A64     		str	r2, [r3, #64]
 292:Src/stm32f7xx_hal_msp.c ****     HAL_RCC_CAN1_CLK_ENABLED--;
 696              		.loc 1 292 5 view .LVU205
 697 0032 1A6C     		ldr	r2, [r3, #64]
 698 0034 22F08062 		bic	r2, r2, #67108864
 699 0038 1A64     		str	r2, [r3, #64]
 293:Src/stm32f7xx_hal_msp.c ****     if(HAL_RCC_CAN1_CLK_ENABLED==0){
 700              		.loc 1 293 5 view .LVU206
 293:Src/stm32f7xx_hal_msp.c ****     if(HAL_RCC_CAN1_CLK_ENABLED==0){
 701              		.loc 1 293 29 is_stmt 0 view .LVU207
 702 003a 0E4A     		ldr	r2, .L41+16
 703 003c 1368     		ldr	r3, [r2]
 704 003e 013B     		subs	r3, r3, #1
 705 0040 1360     		str	r3, [r2]
 294:Src/stm32f7xx_hal_msp.c ****       __HAL_RCC_CAN1_CLK_DISABLE();
 706              		.loc 1 294 5 is_stmt 1 view .LVU208
 294:Src/stm32f7xx_hal_msp.c ****       __HAL_RCC_CAN1_CLK_DISABLE();
 707              		.loc 1 294 7 is_stmt 0 view .LVU209
 708 0042 23B9     		cbnz	r3, .L37
 295:Src/stm32f7xx_hal_msp.c ****     }
 709              		.loc 1 295 7 is_stmt 1 view .LVU210
 710 0044 0A4A     		ldr	r2, .L41+12
 711 0046 136C     		ldr	r3, [r2, #64]
 712 0048 23F00073 		bic	r3, r3, #33554432
 713 004c 1364     		str	r3, [r2, #64]
 714              	.L37:
 302:Src/stm32f7xx_hal_msp.c **** 
 715              		.loc 1 302 5 view .LVU211
 716 004e 4FF48071 		mov	r1, #256
 717 0052 0948     		ldr	r0, .L41+20
 718              	.LVL30:
 302:Src/stm32f7xx_hal_msp.c **** 
 719              		.loc 1 302 5 is_stmt 0 view .LVU212
 720 0054 FFF7FEFF 		bl	HAL_GPIO_DeInit
 721              	.LVL31:
 304:Src/stm32f7xx_hal_msp.c **** 
 722              		.loc 1 304 5 is_stmt 1 view .LVU213
 723 0058 1021     		movs	r1, #16
 724 005a 0848     		ldr	r0, .L41+24
 725 005c FFF7FEFF 		bl	HAL_GPIO_DeInit
 726              	.LVL32:
 727              		.loc 1 311 1 is_stmt 0 view .LVU214
 728 0060 D6E7     		b	.L34
 729              	.L42:
 730 0062 00BF     		.align	2
 731              	.L41:
 732 0064 00640040 		.word	1073767424
 733 0068 00340040 		.word	1073755136
 734 006c 000C0240 		.word	1073875968
 735 0070 00380240 		.word	1073887232
ARM GAS  /tmp/cczsEcHh.s 			page 22


 736 0074 00000000 		.word	.LANCHOR0
 737 0078 00000240 		.word	1073872896
 738 007c 00040240 		.word	1073873920
 739              		.cfi_endproc
 740              	.LFE145:
 742              		.section	.text.HAL_SD_MspInit,"ax",%progbits
 743              		.align	1
 744              		.global	HAL_SD_MspInit
 745              		.syntax unified
 746              		.thumb
 747              		.thumb_func
 748              		.fpu fpv5-d16
 750              	HAL_SD_MspInit:
 751              	.LVL33:
 752              	.LFB146:
 312:Src/stm32f7xx_hal_msp.c **** 
 313:Src/stm32f7xx_hal_msp.c **** /**
 314:Src/stm32f7xx_hal_msp.c **** * @brief SD MSP Initialization
 315:Src/stm32f7xx_hal_msp.c **** * This function configures the hardware resources used in this example
 316:Src/stm32f7xx_hal_msp.c **** * @param hsd: SD handle pointer
 317:Src/stm32f7xx_hal_msp.c **** * @retval None
 318:Src/stm32f7xx_hal_msp.c **** */
 319:Src/stm32f7xx_hal_msp.c **** void HAL_SD_MspInit(SD_HandleTypeDef* hsd)
 320:Src/stm32f7xx_hal_msp.c **** {
 753              		.loc 1 320 1 is_stmt 1 view -0
 754              		.cfi_startproc
 755              		@ args = 0, pretend = 0, frame = 32
 756              		@ frame_needed = 0, uses_anonymous_args = 0
 757              		.loc 1 320 1 is_stmt 0 view .LVU216
 758 0000 70B5     		push	{r4, r5, r6, lr}
 759              	.LCFI12:
 760              		.cfi_def_cfa_offset 16
 761              		.cfi_offset 4, -16
 762              		.cfi_offset 5, -12
 763              		.cfi_offset 6, -8
 764              		.cfi_offset 14, -4
 765 0002 88B0     		sub	sp, sp, #32
 766              	.LCFI13:
 767              		.cfi_def_cfa_offset 48
 321:Src/stm32f7xx_hal_msp.c ****   GPIO_InitTypeDef GPIO_InitStruct = {0};
 768              		.loc 1 321 3 is_stmt 1 view .LVU217
 769              		.loc 1 321 20 is_stmt 0 view .LVU218
 770 0004 0023     		movs	r3, #0
 771 0006 0393     		str	r3, [sp, #12]
 772 0008 0493     		str	r3, [sp, #16]
 773 000a 0593     		str	r3, [sp, #20]
 774 000c 0693     		str	r3, [sp, #24]
 775 000e 0793     		str	r3, [sp, #28]
 322:Src/stm32f7xx_hal_msp.c ****   if(hsd->Instance==SDMMC2)
 776              		.loc 1 322 3 is_stmt 1 view .LVU219
 777              		.loc 1 322 9 is_stmt 0 view .LVU220
 778 0010 0268     		ldr	r2, [r0]
 779              		.loc 1 322 5 view .LVU221
 780 0012 1E4B     		ldr	r3, .L47
 781 0014 9A42     		cmp	r2, r3
 782 0016 01D0     		beq	.L46
 783              	.LVL34:
ARM GAS  /tmp/cczsEcHh.s 			page 23


 784              	.L43:
 323:Src/stm32f7xx_hal_msp.c ****   {
 324:Src/stm32f7xx_hal_msp.c ****   /* USER CODE BEGIN SDMMC2_MspInit 0 */
 325:Src/stm32f7xx_hal_msp.c **** 
 326:Src/stm32f7xx_hal_msp.c ****   /* USER CODE END SDMMC2_MspInit 0 */
 327:Src/stm32f7xx_hal_msp.c ****     /* Peripheral clock enable */
 328:Src/stm32f7xx_hal_msp.c ****     __HAL_RCC_SDMMC2_CLK_ENABLE();
 329:Src/stm32f7xx_hal_msp.c ****   
 330:Src/stm32f7xx_hal_msp.c ****     __HAL_RCC_GPIOB_CLK_ENABLE();
 331:Src/stm32f7xx_hal_msp.c ****     __HAL_RCC_GPIOD_CLK_ENABLE();
 332:Src/stm32f7xx_hal_msp.c ****     /**SDMMC2 GPIO Configuration    
 333:Src/stm32f7xx_hal_msp.c ****     PB14     ------> SDMMC2_D0
 334:Src/stm32f7xx_hal_msp.c ****     PD6     ------> SDMMC2_CK
 335:Src/stm32f7xx_hal_msp.c ****     PD7     ------> SDMMC2_CMD 
 336:Src/stm32f7xx_hal_msp.c ****     */
 337:Src/stm32f7xx_hal_msp.c ****     GPIO_InitStruct.Pin = GPIO_PIN_14;
 338:Src/stm32f7xx_hal_msp.c ****     GPIO_InitStruct.Mode = GPIO_MODE_AF_PP;
 339:Src/stm32f7xx_hal_msp.c ****     GPIO_InitStruct.Pull = GPIO_NOPULL;
 340:Src/stm32f7xx_hal_msp.c ****     GPIO_InitStruct.Speed = GPIO_SPEED_FREQ_VERY_HIGH;
 341:Src/stm32f7xx_hal_msp.c ****     GPIO_InitStruct.Alternate = GPIO_AF10_SDMMC2;
 342:Src/stm32f7xx_hal_msp.c ****     HAL_GPIO_Init(GPIOB, &GPIO_InitStruct);
 343:Src/stm32f7xx_hal_msp.c **** 
 344:Src/stm32f7xx_hal_msp.c ****     GPIO_InitStruct.Pin = GPIO_PIN_6|GPIO_PIN_7;
 345:Src/stm32f7xx_hal_msp.c ****     GPIO_InitStruct.Mode = GPIO_MODE_AF_PP;
 346:Src/stm32f7xx_hal_msp.c ****     GPIO_InitStruct.Pull = GPIO_NOPULL;
 347:Src/stm32f7xx_hal_msp.c ****     GPIO_InitStruct.Speed = GPIO_SPEED_FREQ_VERY_HIGH;
 348:Src/stm32f7xx_hal_msp.c ****     GPIO_InitStruct.Alternate = GPIO_AF11_SDMMC2;
 349:Src/stm32f7xx_hal_msp.c ****     HAL_GPIO_Init(GPIOD, &GPIO_InitStruct);
 350:Src/stm32f7xx_hal_msp.c **** 
 351:Src/stm32f7xx_hal_msp.c ****   /* USER CODE BEGIN SDMMC2_MspInit 1 */
 352:Src/stm32f7xx_hal_msp.c **** 
 353:Src/stm32f7xx_hal_msp.c ****   /* USER CODE END SDMMC2_MspInit 1 */
 354:Src/stm32f7xx_hal_msp.c ****   }
 355:Src/stm32f7xx_hal_msp.c **** 
 356:Src/stm32f7xx_hal_msp.c **** }
 785              		.loc 1 356 1 view .LVU222
 786 0018 08B0     		add	sp, sp, #32
 787              	.LCFI14:
 788              		.cfi_remember_state
 789              		.cfi_def_cfa_offset 16
 790              		@ sp needed
 791 001a 70BD     		pop	{r4, r5, r6, pc}
 792              	.LVL35:
 793              	.L46:
 794              	.LCFI15:
 795              		.cfi_restore_state
 328:Src/stm32f7xx_hal_msp.c ****   
 796              		.loc 1 328 5 is_stmt 1 view .LVU223
 797              	.LBB14:
 328:Src/stm32f7xx_hal_msp.c ****   
 798              		.loc 1 328 5 view .LVU224
 328:Src/stm32f7xx_hal_msp.c ****   
 799              		.loc 1 328 5 view .LVU225
 800 001c 03F58E33 		add	r3, r3, #72704
 801 0020 5A6C     		ldr	r2, [r3, #68]
 802 0022 42F08002 		orr	r2, r2, #128
 803 0026 5A64     		str	r2, [r3, #68]
ARM GAS  /tmp/cczsEcHh.s 			page 24


 328:Src/stm32f7xx_hal_msp.c ****   
 804              		.loc 1 328 5 view .LVU226
 805 0028 5A6C     		ldr	r2, [r3, #68]
 806 002a 02F08002 		and	r2, r2, #128
 807 002e 0092     		str	r2, [sp]
 328:Src/stm32f7xx_hal_msp.c ****   
 808              		.loc 1 328 5 view .LVU227
 809 0030 009A     		ldr	r2, [sp]
 810              	.LBE14:
 328:Src/stm32f7xx_hal_msp.c ****   
 811              		.loc 1 328 5 view .LVU228
 330:Src/stm32f7xx_hal_msp.c ****     __HAL_RCC_GPIOD_CLK_ENABLE();
 812              		.loc 1 330 5 view .LVU229
 813              	.LBB15:
 330:Src/stm32f7xx_hal_msp.c ****     __HAL_RCC_GPIOD_CLK_ENABLE();
 814              		.loc 1 330 5 view .LVU230
 330:Src/stm32f7xx_hal_msp.c ****     __HAL_RCC_GPIOD_CLK_ENABLE();
 815              		.loc 1 330 5 view .LVU231
 816 0032 1A6B     		ldr	r2, [r3, #48]
 817 0034 42F00202 		orr	r2, r2, #2
 818 0038 1A63     		str	r2, [r3, #48]
 330:Src/stm32f7xx_hal_msp.c ****     __HAL_RCC_GPIOD_CLK_ENABLE();
 819              		.loc 1 330 5 view .LVU232
 820 003a 1A6B     		ldr	r2, [r3, #48]
 821 003c 02F00202 		and	r2, r2, #2
 822 0040 0192     		str	r2, [sp, #4]
 330:Src/stm32f7xx_hal_msp.c ****     __HAL_RCC_GPIOD_CLK_ENABLE();
 823              		.loc 1 330 5 view .LVU233
 824 0042 019A     		ldr	r2, [sp, #4]
 825              	.LBE15:
 330:Src/stm32f7xx_hal_msp.c ****     __HAL_RCC_GPIOD_CLK_ENABLE();
 826              		.loc 1 330 5 view .LVU234
 331:Src/stm32f7xx_hal_msp.c ****     /**SDMMC2 GPIO Configuration    
 827              		.loc 1 331 5 view .LVU235
 828              	.LBB16:
 331:Src/stm32f7xx_hal_msp.c ****     /**SDMMC2 GPIO Configuration    
 829              		.loc 1 331 5 view .LVU236
 331:Src/stm32f7xx_hal_msp.c ****     /**SDMMC2 GPIO Configuration    
 830              		.loc 1 331 5 view .LVU237
 831 0044 1A6B     		ldr	r2, [r3, #48]
 832 0046 42F00802 		orr	r2, r2, #8
 833 004a 1A63     		str	r2, [r3, #48]
 331:Src/stm32f7xx_hal_msp.c ****     /**SDMMC2 GPIO Configuration    
 834              		.loc 1 331 5 view .LVU238
 835 004c 1B6B     		ldr	r3, [r3, #48]
 836 004e 03F00803 		and	r3, r3, #8
 837 0052 0293     		str	r3, [sp, #8]
 331:Src/stm32f7xx_hal_msp.c ****     /**SDMMC2 GPIO Configuration    
 838              		.loc 1 331 5 view .LVU239
 839 0054 029B     		ldr	r3, [sp, #8]
 840              	.LBE16:
 331:Src/stm32f7xx_hal_msp.c ****     /**SDMMC2 GPIO Configuration    
 841              		.loc 1 331 5 view .LVU240
 337:Src/stm32f7xx_hal_msp.c ****     GPIO_InitStruct.Mode = GPIO_MODE_AF_PP;
 842              		.loc 1 337 5 view .LVU241
 337:Src/stm32f7xx_hal_msp.c ****     GPIO_InitStruct.Mode = GPIO_MODE_AF_PP;
 843              		.loc 1 337 25 is_stmt 0 view .LVU242
ARM GAS  /tmp/cczsEcHh.s 			page 25


 844 0056 4FF48043 		mov	r3, #16384
 845 005a 0393     		str	r3, [sp, #12]
 338:Src/stm32f7xx_hal_msp.c ****     GPIO_InitStruct.Pull = GPIO_NOPULL;
 846              		.loc 1 338 5 is_stmt 1 view .LVU243
 338:Src/stm32f7xx_hal_msp.c ****     GPIO_InitStruct.Pull = GPIO_NOPULL;
 847              		.loc 1 338 26 is_stmt 0 view .LVU244
 848 005c 0226     		movs	r6, #2
 849 005e 0496     		str	r6, [sp, #16]
 339:Src/stm32f7xx_hal_msp.c ****     GPIO_InitStruct.Speed = GPIO_SPEED_FREQ_VERY_HIGH;
 850              		.loc 1 339 5 is_stmt 1 view .LVU245
 339:Src/stm32f7xx_hal_msp.c ****     GPIO_InitStruct.Speed = GPIO_SPEED_FREQ_VERY_HIGH;
 851              		.loc 1 339 26 is_stmt 0 view .LVU246
 852 0060 0025     		movs	r5, #0
 853 0062 0595     		str	r5, [sp, #20]
 340:Src/stm32f7xx_hal_msp.c ****     GPIO_InitStruct.Alternate = GPIO_AF10_SDMMC2;
 854              		.loc 1 340 5 is_stmt 1 view .LVU247
 340:Src/stm32f7xx_hal_msp.c ****     GPIO_InitStruct.Alternate = GPIO_AF10_SDMMC2;
 855              		.loc 1 340 27 is_stmt 0 view .LVU248
 856 0064 0324     		movs	r4, #3
 857 0066 0694     		str	r4, [sp, #24]
 341:Src/stm32f7xx_hal_msp.c ****     HAL_GPIO_Init(GPIOB, &GPIO_InitStruct);
 858              		.loc 1 341 5 is_stmt 1 view .LVU249
 341:Src/stm32f7xx_hal_msp.c ****     HAL_GPIO_Init(GPIOB, &GPIO_InitStruct);
 859              		.loc 1 341 31 is_stmt 0 view .LVU250
 860 0068 0A23     		movs	r3, #10
 861 006a 0793     		str	r3, [sp, #28]
 342:Src/stm32f7xx_hal_msp.c **** 
 862              		.loc 1 342 5 is_stmt 1 view .LVU251
 863 006c 03A9     		add	r1, sp, #12
 864 006e 0848     		ldr	r0, .L47+4
 865              	.LVL36:
 342:Src/stm32f7xx_hal_msp.c **** 
 866              		.loc 1 342 5 is_stmt 0 view .LVU252
 867 0070 FFF7FEFF 		bl	HAL_GPIO_Init
 868              	.LVL37:
 344:Src/stm32f7xx_hal_msp.c ****     GPIO_InitStruct.Mode = GPIO_MODE_AF_PP;
 869              		.loc 1 344 5 is_stmt 1 view .LVU253
 344:Src/stm32f7xx_hal_msp.c ****     GPIO_InitStruct.Mode = GPIO_MODE_AF_PP;
 870              		.loc 1 344 25 is_stmt 0 view .LVU254
 871 0074 C023     		movs	r3, #192
 872 0076 0393     		str	r3, [sp, #12]
 345:Src/stm32f7xx_hal_msp.c ****     GPIO_InitStruct.Pull = GPIO_NOPULL;
 873              		.loc 1 345 5 is_stmt 1 view .LVU255
 345:Src/stm32f7xx_hal_msp.c ****     GPIO_InitStruct.Pull = GPIO_NOPULL;
 874              		.loc 1 345 26 is_stmt 0 view .LVU256
 875 0078 0496     		str	r6, [sp, #16]
 346:Src/stm32f7xx_hal_msp.c ****     GPIO_InitStruct.Speed = GPIO_SPEED_FREQ_VERY_HIGH;
 876              		.loc 1 346 5 is_stmt 1 view .LVU257
 346:Src/stm32f7xx_hal_msp.c ****     GPIO_InitStruct.Speed = GPIO_SPEED_FREQ_VERY_HIGH;
 877              		.loc 1 346 26 is_stmt 0 view .LVU258
 878 007a 0595     		str	r5, [sp, #20]
 347:Src/stm32f7xx_hal_msp.c ****     GPIO_InitStruct.Alternate = GPIO_AF11_SDMMC2;
 879              		.loc 1 347 5 is_stmt 1 view .LVU259
 347:Src/stm32f7xx_hal_msp.c ****     GPIO_InitStruct.Alternate = GPIO_AF11_SDMMC2;
 880              		.loc 1 347 27 is_stmt 0 view .LVU260
 881 007c 0694     		str	r4, [sp, #24]
 348:Src/stm32f7xx_hal_msp.c ****     HAL_GPIO_Init(GPIOD, &GPIO_InitStruct);
ARM GAS  /tmp/cczsEcHh.s 			page 26


 882              		.loc 1 348 5 is_stmt 1 view .LVU261
 348:Src/stm32f7xx_hal_msp.c ****     HAL_GPIO_Init(GPIOD, &GPIO_InitStruct);
 883              		.loc 1 348 31 is_stmt 0 view .LVU262
 884 007e 0B23     		movs	r3, #11
 885 0080 0793     		str	r3, [sp, #28]
 349:Src/stm32f7xx_hal_msp.c **** 
 886              		.loc 1 349 5 is_stmt 1 view .LVU263
 887 0082 03A9     		add	r1, sp, #12
 888 0084 0348     		ldr	r0, .L47+8
 889 0086 FFF7FEFF 		bl	HAL_GPIO_Init
 890              	.LVL38:
 891              		.loc 1 356 1 is_stmt 0 view .LVU264
 892 008a C5E7     		b	.L43
 893              	.L48:
 894              		.align	2
 895              	.L47:
 896 008c 001C0140 		.word	1073814528
 897 0090 00040240 		.word	1073873920
 898 0094 000C0240 		.word	1073875968
 899              		.cfi_endproc
 900              	.LFE146:
 902              		.section	.text.HAL_SD_MspDeInit,"ax",%progbits
 903              		.align	1
 904              		.global	HAL_SD_MspDeInit
 905              		.syntax unified
 906              		.thumb
 907              		.thumb_func
 908              		.fpu fpv5-d16
 910              	HAL_SD_MspDeInit:
 911              	.LVL39:
 912              	.LFB147:
 357:Src/stm32f7xx_hal_msp.c **** 
 358:Src/stm32f7xx_hal_msp.c **** /**
 359:Src/stm32f7xx_hal_msp.c **** * @brief SD MSP De-Initialization
 360:Src/stm32f7xx_hal_msp.c **** * This function freeze the hardware resources used in this example
 361:Src/stm32f7xx_hal_msp.c **** * @param hsd: SD handle pointer
 362:Src/stm32f7xx_hal_msp.c **** * @retval None
 363:Src/stm32f7xx_hal_msp.c **** */
 364:Src/stm32f7xx_hal_msp.c **** void HAL_SD_MspDeInit(SD_HandleTypeDef* hsd)
 365:Src/stm32f7xx_hal_msp.c **** {
 913              		.loc 1 365 1 is_stmt 1 view -0
 914              		.cfi_startproc
 915              		@ args = 0, pretend = 0, frame = 0
 916              		@ frame_needed = 0, uses_anonymous_args = 0
 917              		.loc 1 365 1 is_stmt 0 view .LVU266
 918 0000 08B5     		push	{r3, lr}
 919              	.LCFI16:
 920              		.cfi_def_cfa_offset 8
 921              		.cfi_offset 3, -8
 922              		.cfi_offset 14, -4
 366:Src/stm32f7xx_hal_msp.c ****   if(hsd->Instance==SDMMC2)
 923              		.loc 1 366 3 is_stmt 1 view .LVU267
 924              		.loc 1 366 9 is_stmt 0 view .LVU268
 925 0002 0268     		ldr	r2, [r0]
 926              		.loc 1 366 5 view .LVU269
 927 0004 094B     		ldr	r3, .L53
 928 0006 9A42     		cmp	r2, r3
ARM GAS  /tmp/cczsEcHh.s 			page 27


 929 0008 00D0     		beq	.L52
 930              	.LVL40:
 931              	.L49:
 367:Src/stm32f7xx_hal_msp.c ****   {
 368:Src/stm32f7xx_hal_msp.c ****   /* USER CODE BEGIN SDMMC2_MspDeInit 0 */
 369:Src/stm32f7xx_hal_msp.c **** 
 370:Src/stm32f7xx_hal_msp.c ****   /* USER CODE END SDMMC2_MspDeInit 0 */
 371:Src/stm32f7xx_hal_msp.c ****     /* Peripheral clock disable */
 372:Src/stm32f7xx_hal_msp.c ****     __HAL_RCC_SDMMC2_CLK_DISABLE();
 373:Src/stm32f7xx_hal_msp.c ****   
 374:Src/stm32f7xx_hal_msp.c ****     /**SDMMC2 GPIO Configuration    
 375:Src/stm32f7xx_hal_msp.c ****     PB14     ------> SDMMC2_D0
 376:Src/stm32f7xx_hal_msp.c ****     PD6     ------> SDMMC2_CK
 377:Src/stm32f7xx_hal_msp.c ****     PD7     ------> SDMMC2_CMD 
 378:Src/stm32f7xx_hal_msp.c ****     */
 379:Src/stm32f7xx_hal_msp.c ****     HAL_GPIO_DeInit(GPIOB, GPIO_PIN_14);
 380:Src/stm32f7xx_hal_msp.c **** 
 381:Src/stm32f7xx_hal_msp.c ****     HAL_GPIO_DeInit(GPIOD, GPIO_PIN_6|GPIO_PIN_7);
 382:Src/stm32f7xx_hal_msp.c **** 
 383:Src/stm32f7xx_hal_msp.c ****   /* USER CODE BEGIN SDMMC2_MspDeInit 1 */
 384:Src/stm32f7xx_hal_msp.c **** 
 385:Src/stm32f7xx_hal_msp.c ****   /* USER CODE END SDMMC2_MspDeInit 1 */
 386:Src/stm32f7xx_hal_msp.c ****   }
 387:Src/stm32f7xx_hal_msp.c **** 
 388:Src/stm32f7xx_hal_msp.c **** }
 932              		.loc 1 388 1 view .LVU270
 933 000a 08BD     		pop	{r3, pc}
 934              	.LVL41:
 935              	.L52:
 372:Src/stm32f7xx_hal_msp.c ****   
 936              		.loc 1 372 5 is_stmt 1 view .LVU271
 937 000c 084A     		ldr	r2, .L53+4
 938 000e 536C     		ldr	r3, [r2, #68]
 939 0010 23F08003 		bic	r3, r3, #128
 940 0014 5364     		str	r3, [r2, #68]
 379:Src/stm32f7xx_hal_msp.c **** 
 941              		.loc 1 379 5 view .LVU272
 942 0016 4FF48041 		mov	r1, #16384
 943 001a 0648     		ldr	r0, .L53+8
 944              	.LVL42:
 379:Src/stm32f7xx_hal_msp.c **** 
 945              		.loc 1 379 5 is_stmt 0 view .LVU273
 946 001c FFF7FEFF 		bl	HAL_GPIO_DeInit
 947              	.LVL43:
 381:Src/stm32f7xx_hal_msp.c **** 
 948              		.loc 1 381 5 is_stmt 1 view .LVU274
 949 0020 C021     		movs	r1, #192
 950 0022 0548     		ldr	r0, .L53+12
 951 0024 FFF7FEFF 		bl	HAL_GPIO_DeInit
 952              	.LVL44:
 953              		.loc 1 388 1 is_stmt 0 view .LVU275
 954 0028 EFE7     		b	.L49
 955              	.L54:
 956 002a 00BF     		.align	2
 957              	.L53:
 958 002c 001C0140 		.word	1073814528
 959 0030 00380240 		.word	1073887232
ARM GAS  /tmp/cczsEcHh.s 			page 28


 960 0034 00040240 		.word	1073873920
 961 0038 000C0240 		.word	1073875968
 962              		.cfi_endproc
 963              	.LFE147:
 965              		.section	.text.HAL_SPI_MspInit,"ax",%progbits
 966              		.align	1
 967              		.global	HAL_SPI_MspInit
 968              		.syntax unified
 969              		.thumb
 970              		.thumb_func
 971              		.fpu fpv5-d16
 973              	HAL_SPI_MspInit:
 974              	.LVL45:
 975              	.LFB148:
 389:Src/stm32f7xx_hal_msp.c **** 
 390:Src/stm32f7xx_hal_msp.c **** /**
 391:Src/stm32f7xx_hal_msp.c **** * @brief SPI MSP Initialization
 392:Src/stm32f7xx_hal_msp.c **** * This function configures the hardware resources used in this example
 393:Src/stm32f7xx_hal_msp.c **** * @param hspi: SPI handle pointer
 394:Src/stm32f7xx_hal_msp.c **** * @retval None
 395:Src/stm32f7xx_hal_msp.c **** */
 396:Src/stm32f7xx_hal_msp.c **** void HAL_SPI_MspInit(SPI_HandleTypeDef* hspi)
 397:Src/stm32f7xx_hal_msp.c **** {
 976              		.loc 1 397 1 is_stmt 1 view -0
 977              		.cfi_startproc
 978              		@ args = 0, pretend = 0, frame = 32
 979              		@ frame_needed = 0, uses_anonymous_args = 0
 980              		.loc 1 397 1 is_stmt 0 view .LVU277
 981 0000 F0B5     		push	{r4, r5, r6, r7, lr}
 982              	.LCFI17:
 983              		.cfi_def_cfa_offset 20
 984              		.cfi_offset 4, -20
 985              		.cfi_offset 5, -16
 986              		.cfi_offset 6, -12
 987              		.cfi_offset 7, -8
 988              		.cfi_offset 14, -4
 989 0002 89B0     		sub	sp, sp, #36
 990              	.LCFI18:
 991              		.cfi_def_cfa_offset 56
 398:Src/stm32f7xx_hal_msp.c ****   GPIO_InitTypeDef GPIO_InitStruct = {0};
 992              		.loc 1 398 3 is_stmt 1 view .LVU278
 993              		.loc 1 398 20 is_stmt 0 view .LVU279
 994 0004 0023     		movs	r3, #0
 995 0006 0393     		str	r3, [sp, #12]
 996 0008 0493     		str	r3, [sp, #16]
 997 000a 0593     		str	r3, [sp, #20]
 998 000c 0693     		str	r3, [sp, #24]
 999 000e 0793     		str	r3, [sp, #28]
 399:Src/stm32f7xx_hal_msp.c ****   if(hspi->Instance==SPI2)
 1000              		.loc 1 399 3 is_stmt 1 view .LVU280
 1001              		.loc 1 399 10 is_stmt 0 view .LVU281
 1002 0010 0268     		ldr	r2, [r0]
 1003              		.loc 1 399 5 view .LVU282
 1004 0012 1E4B     		ldr	r3, .L59
 1005 0014 9A42     		cmp	r2, r3
 1006 0016 01D0     		beq	.L58
 1007              	.LVL46:
ARM GAS  /tmp/cczsEcHh.s 			page 29


 1008              	.L55:
 400:Src/stm32f7xx_hal_msp.c ****   {
 401:Src/stm32f7xx_hal_msp.c ****   /* USER CODE BEGIN SPI2_MspInit 0 */
 402:Src/stm32f7xx_hal_msp.c **** 
 403:Src/stm32f7xx_hal_msp.c ****   /* USER CODE END SPI2_MspInit 0 */
 404:Src/stm32f7xx_hal_msp.c ****     /* Peripheral clock enable */
 405:Src/stm32f7xx_hal_msp.c ****     __HAL_RCC_SPI2_CLK_ENABLE();
 406:Src/stm32f7xx_hal_msp.c ****   
 407:Src/stm32f7xx_hal_msp.c ****     __HAL_RCC_GPIOC_CLK_ENABLE();
 408:Src/stm32f7xx_hal_msp.c ****     __HAL_RCC_GPIOD_CLK_ENABLE();
 409:Src/stm32f7xx_hal_msp.c ****     /**SPI2 GPIO Configuration    
 410:Src/stm32f7xx_hal_msp.c ****     PC2     ------> SPI2_MISO
 411:Src/stm32f7xx_hal_msp.c ****     PC3     ------> SPI2_MOSI
 412:Src/stm32f7xx_hal_msp.c ****     PD3     ------> SPI2_SCK 
 413:Src/stm32f7xx_hal_msp.c ****     */
 414:Src/stm32f7xx_hal_msp.c ****     GPIO_InitStruct.Pin = GPIO_PIN_2|GPIO_PIN_3;
 415:Src/stm32f7xx_hal_msp.c ****     GPIO_InitStruct.Mode = GPIO_MODE_AF_PP;
 416:Src/stm32f7xx_hal_msp.c ****     GPIO_InitStruct.Pull = GPIO_NOPULL;
 417:Src/stm32f7xx_hal_msp.c ****     GPIO_InitStruct.Speed = GPIO_SPEED_FREQ_VERY_HIGH;
 418:Src/stm32f7xx_hal_msp.c ****     GPIO_InitStruct.Alternate = GPIO_AF5_SPI2;
 419:Src/stm32f7xx_hal_msp.c ****     HAL_GPIO_Init(GPIOC, &GPIO_InitStruct);
 420:Src/stm32f7xx_hal_msp.c **** 
 421:Src/stm32f7xx_hal_msp.c ****     GPIO_InitStruct.Pin = GPIO_PIN_3;
 422:Src/stm32f7xx_hal_msp.c ****     GPIO_InitStruct.Mode = GPIO_MODE_AF_PP;
 423:Src/stm32f7xx_hal_msp.c ****     GPIO_InitStruct.Pull = GPIO_NOPULL;
 424:Src/stm32f7xx_hal_msp.c ****     GPIO_InitStruct.Speed = GPIO_SPEED_FREQ_VERY_HIGH;
 425:Src/stm32f7xx_hal_msp.c ****     GPIO_InitStruct.Alternate = GPIO_AF5_SPI2;
 426:Src/stm32f7xx_hal_msp.c ****     HAL_GPIO_Init(GPIOD, &GPIO_InitStruct);
 427:Src/stm32f7xx_hal_msp.c **** 
 428:Src/stm32f7xx_hal_msp.c ****   /* USER CODE BEGIN SPI2_MspInit 1 */
 429:Src/stm32f7xx_hal_msp.c **** 
 430:Src/stm32f7xx_hal_msp.c ****   /* USER CODE END SPI2_MspInit 1 */
 431:Src/stm32f7xx_hal_msp.c ****   }
 432:Src/stm32f7xx_hal_msp.c **** 
 433:Src/stm32f7xx_hal_msp.c **** }
 1009              		.loc 1 433 1 view .LVU283
 1010 0018 09B0     		add	sp, sp, #36
 1011              	.LCFI19:
 1012              		.cfi_remember_state
 1013              		.cfi_def_cfa_offset 20
 1014              		@ sp needed
 1015 001a F0BD     		pop	{r4, r5, r6, r7, pc}
 1016              	.LVL47:
 1017              	.L58:
 1018              	.LCFI20:
 1019              		.cfi_restore_state
 405:Src/stm32f7xx_hal_msp.c ****   
 1020              		.loc 1 405 5 is_stmt 1 view .LVU284
 1021              	.LBB17:
 405:Src/stm32f7xx_hal_msp.c ****   
 1022              		.loc 1 405 5 view .LVU285
 405:Src/stm32f7xx_hal_msp.c ****   
 1023              		.loc 1 405 5 view .LVU286
 1024 001c 03F50033 		add	r3, r3, #131072
 1025 0020 1A6C     		ldr	r2, [r3, #64]
 1026 0022 42F48042 		orr	r2, r2, #16384
 1027 0026 1A64     		str	r2, [r3, #64]
ARM GAS  /tmp/cczsEcHh.s 			page 30


 405:Src/stm32f7xx_hal_msp.c ****   
 1028              		.loc 1 405 5 view .LVU287
 1029 0028 1A6C     		ldr	r2, [r3, #64]
 1030 002a 02F48042 		and	r2, r2, #16384
 1031 002e 0092     		str	r2, [sp]
 405:Src/stm32f7xx_hal_msp.c ****   
 1032              		.loc 1 405 5 view .LVU288
 1033 0030 009A     		ldr	r2, [sp]
 1034              	.LBE17:
 405:Src/stm32f7xx_hal_msp.c ****   
 1035              		.loc 1 405 5 view .LVU289
 407:Src/stm32f7xx_hal_msp.c ****     __HAL_RCC_GPIOD_CLK_ENABLE();
 1036              		.loc 1 407 5 view .LVU290
 1037              	.LBB18:
 407:Src/stm32f7xx_hal_msp.c ****     __HAL_RCC_GPIOD_CLK_ENABLE();
 1038              		.loc 1 407 5 view .LVU291
 407:Src/stm32f7xx_hal_msp.c ****     __HAL_RCC_GPIOD_CLK_ENABLE();
 1039              		.loc 1 407 5 view .LVU292
 1040 0032 1A6B     		ldr	r2, [r3, #48]
 1041 0034 42F00402 		orr	r2, r2, #4
 1042 0038 1A63     		str	r2, [r3, #48]
 407:Src/stm32f7xx_hal_msp.c ****     __HAL_RCC_GPIOD_CLK_ENABLE();
 1043              		.loc 1 407 5 view .LVU293
 1044 003a 1A6B     		ldr	r2, [r3, #48]
 1045 003c 02F00402 		and	r2, r2, #4
 1046 0040 0192     		str	r2, [sp, #4]
 407:Src/stm32f7xx_hal_msp.c ****     __HAL_RCC_GPIOD_CLK_ENABLE();
 1047              		.loc 1 407 5 view .LVU294
 1048 0042 019A     		ldr	r2, [sp, #4]
 1049              	.LBE18:
 407:Src/stm32f7xx_hal_msp.c ****     __HAL_RCC_GPIOD_CLK_ENABLE();
 1050              		.loc 1 407 5 view .LVU295
 408:Src/stm32f7xx_hal_msp.c ****     /**SPI2 GPIO Configuration    
 1051              		.loc 1 408 5 view .LVU296
 1052              	.LBB19:
 408:Src/stm32f7xx_hal_msp.c ****     /**SPI2 GPIO Configuration    
 1053              		.loc 1 408 5 view .LVU297
 408:Src/stm32f7xx_hal_msp.c ****     /**SPI2 GPIO Configuration    
 1054              		.loc 1 408 5 view .LVU298
 1055 0044 1A6B     		ldr	r2, [r3, #48]
 1056 0046 42F00802 		orr	r2, r2, #8
 1057 004a 1A63     		str	r2, [r3, #48]
 408:Src/stm32f7xx_hal_msp.c ****     /**SPI2 GPIO Configuration    
 1058              		.loc 1 408 5 view .LVU299
 1059 004c 1B6B     		ldr	r3, [r3, #48]
 1060 004e 03F00803 		and	r3, r3, #8
 1061 0052 0293     		str	r3, [sp, #8]
 408:Src/stm32f7xx_hal_msp.c ****     /**SPI2 GPIO Configuration    
 1062              		.loc 1 408 5 view .LVU300
 1063 0054 029B     		ldr	r3, [sp, #8]
 1064              	.LBE19:
 408:Src/stm32f7xx_hal_msp.c ****     /**SPI2 GPIO Configuration    
 1065              		.loc 1 408 5 view .LVU301
 414:Src/stm32f7xx_hal_msp.c ****     GPIO_InitStruct.Mode = GPIO_MODE_AF_PP;
 1066              		.loc 1 414 5 view .LVU302
 414:Src/stm32f7xx_hal_msp.c ****     GPIO_InitStruct.Mode = GPIO_MODE_AF_PP;
 1067              		.loc 1 414 25 is_stmt 0 view .LVU303
ARM GAS  /tmp/cczsEcHh.s 			page 31


 1068 0056 0C23     		movs	r3, #12
 1069 0058 0393     		str	r3, [sp, #12]
 415:Src/stm32f7xx_hal_msp.c ****     GPIO_InitStruct.Pull = GPIO_NOPULL;
 1070              		.loc 1 415 5 is_stmt 1 view .LVU304
 415:Src/stm32f7xx_hal_msp.c ****     GPIO_InitStruct.Pull = GPIO_NOPULL;
 1071              		.loc 1 415 26 is_stmt 0 view .LVU305
 1072 005a 0227     		movs	r7, #2
 1073 005c 0497     		str	r7, [sp, #16]
 416:Src/stm32f7xx_hal_msp.c ****     GPIO_InitStruct.Speed = GPIO_SPEED_FREQ_VERY_HIGH;
 1074              		.loc 1 416 5 is_stmt 1 view .LVU306
 416:Src/stm32f7xx_hal_msp.c ****     GPIO_InitStruct.Speed = GPIO_SPEED_FREQ_VERY_HIGH;
 1075              		.loc 1 416 26 is_stmt 0 view .LVU307
 1076 005e 0026     		movs	r6, #0
 1077 0060 0596     		str	r6, [sp, #20]
 417:Src/stm32f7xx_hal_msp.c ****     GPIO_InitStruct.Alternate = GPIO_AF5_SPI2;
 1078              		.loc 1 417 5 is_stmt 1 view .LVU308
 417:Src/stm32f7xx_hal_msp.c ****     GPIO_InitStruct.Alternate = GPIO_AF5_SPI2;
 1079              		.loc 1 417 27 is_stmt 0 view .LVU309
 1080 0062 0325     		movs	r5, #3
 1081 0064 0695     		str	r5, [sp, #24]
 418:Src/stm32f7xx_hal_msp.c ****     HAL_GPIO_Init(GPIOC, &GPIO_InitStruct);
 1082              		.loc 1 418 5 is_stmt 1 view .LVU310
 418:Src/stm32f7xx_hal_msp.c ****     HAL_GPIO_Init(GPIOC, &GPIO_InitStruct);
 1083              		.loc 1 418 31 is_stmt 0 view .LVU311
 1084 0066 0524     		movs	r4, #5
 1085 0068 0794     		str	r4, [sp, #28]
 419:Src/stm32f7xx_hal_msp.c **** 
 1086              		.loc 1 419 5 is_stmt 1 view .LVU312
 1087 006a 0DEB0301 		add	r1, sp, r3
 1088 006e 0848     		ldr	r0, .L59+4
 1089              	.LVL48:
 419:Src/stm32f7xx_hal_msp.c **** 
 1090              		.loc 1 419 5 is_stmt 0 view .LVU313
 1091 0070 FFF7FEFF 		bl	HAL_GPIO_Init
 1092              	.LVL49:
 421:Src/stm32f7xx_hal_msp.c ****     GPIO_InitStruct.Mode = GPIO_MODE_AF_PP;
 1093              		.loc 1 421 5 is_stmt 1 view .LVU314
 421:Src/stm32f7xx_hal_msp.c ****     GPIO_InitStruct.Mode = GPIO_MODE_AF_PP;
 1094              		.loc 1 421 25 is_stmt 0 view .LVU315
 1095 0074 0823     		movs	r3, #8
 1096 0076 0393     		str	r3, [sp, #12]
 422:Src/stm32f7xx_hal_msp.c ****     GPIO_InitStruct.Pull = GPIO_NOPULL;
 1097              		.loc 1 422 5 is_stmt 1 view .LVU316
 422:Src/stm32f7xx_hal_msp.c ****     GPIO_InitStruct.Pull = GPIO_NOPULL;
 1098              		.loc 1 422 26 is_stmt 0 view .LVU317
 1099 0078 0497     		str	r7, [sp, #16]
 423:Src/stm32f7xx_hal_msp.c ****     GPIO_InitStruct.Speed = GPIO_SPEED_FREQ_VERY_HIGH;
 1100              		.loc 1 423 5 is_stmt 1 view .LVU318
 423:Src/stm32f7xx_hal_msp.c ****     GPIO_InitStruct.Speed = GPIO_SPEED_FREQ_VERY_HIGH;
 1101              		.loc 1 423 26 is_stmt 0 view .LVU319
 1102 007a 0596     		str	r6, [sp, #20]
 424:Src/stm32f7xx_hal_msp.c ****     GPIO_InitStruct.Alternate = GPIO_AF5_SPI2;
 1103              		.loc 1 424 5 is_stmt 1 view .LVU320
 424:Src/stm32f7xx_hal_msp.c ****     GPIO_InitStruct.Alternate = GPIO_AF5_SPI2;
 1104              		.loc 1 424 27 is_stmt 0 view .LVU321
 1105 007c 0695     		str	r5, [sp, #24]
 425:Src/stm32f7xx_hal_msp.c ****     HAL_GPIO_Init(GPIOD, &GPIO_InitStruct);
ARM GAS  /tmp/cczsEcHh.s 			page 32


 1106              		.loc 1 425 5 is_stmt 1 view .LVU322
 425:Src/stm32f7xx_hal_msp.c ****     HAL_GPIO_Init(GPIOD, &GPIO_InitStruct);
 1107              		.loc 1 425 31 is_stmt 0 view .LVU323
 1108 007e 0794     		str	r4, [sp, #28]
 426:Src/stm32f7xx_hal_msp.c **** 
 1109              		.loc 1 426 5 is_stmt 1 view .LVU324
 1110 0080 03A9     		add	r1, sp, #12
 1111 0082 0448     		ldr	r0, .L59+8
 1112 0084 FFF7FEFF 		bl	HAL_GPIO_Init
 1113              	.LVL50:
 1114              		.loc 1 433 1 is_stmt 0 view .LVU325
 1115 0088 C6E7     		b	.L55
 1116              	.L60:
 1117 008a 00BF     		.align	2
 1118              	.L59:
 1119 008c 00380040 		.word	1073756160
 1120 0090 00080240 		.word	1073874944
 1121 0094 000C0240 		.word	1073875968
 1122              		.cfi_endproc
 1123              	.LFE148:
 1125              		.section	.text.HAL_SPI_MspDeInit,"ax",%progbits
 1126              		.align	1
 1127              		.global	HAL_SPI_MspDeInit
 1128              		.syntax unified
 1129              		.thumb
 1130              		.thumb_func
 1131              		.fpu fpv5-d16
 1133              	HAL_SPI_MspDeInit:
 1134              	.LVL51:
 1135              	.LFB149:
 434:Src/stm32f7xx_hal_msp.c **** 
 435:Src/stm32f7xx_hal_msp.c **** /**
 436:Src/stm32f7xx_hal_msp.c **** * @brief SPI MSP De-Initialization
 437:Src/stm32f7xx_hal_msp.c **** * This function freeze the hardware resources used in this example
 438:Src/stm32f7xx_hal_msp.c **** * @param hspi: SPI handle pointer
 439:Src/stm32f7xx_hal_msp.c **** * @retval None
 440:Src/stm32f7xx_hal_msp.c **** */
 441:Src/stm32f7xx_hal_msp.c **** void HAL_SPI_MspDeInit(SPI_HandleTypeDef* hspi)
 442:Src/stm32f7xx_hal_msp.c **** {
 1136              		.loc 1 442 1 is_stmt 1 view -0
 1137              		.cfi_startproc
 1138              		@ args = 0, pretend = 0, frame = 0
 1139              		@ frame_needed = 0, uses_anonymous_args = 0
 1140              		.loc 1 442 1 is_stmt 0 view .LVU327
 1141 0000 08B5     		push	{r3, lr}
 1142              	.LCFI21:
 1143              		.cfi_def_cfa_offset 8
 1144              		.cfi_offset 3, -8
 1145              		.cfi_offset 14, -4
 443:Src/stm32f7xx_hal_msp.c ****   if(hspi->Instance==SPI2)
 1146              		.loc 1 443 3 is_stmt 1 view .LVU328
 1147              		.loc 1 443 10 is_stmt 0 view .LVU329
 1148 0002 0268     		ldr	r2, [r0]
 1149              		.loc 1 443 5 view .LVU330
 1150 0004 084B     		ldr	r3, .L65
 1151 0006 9A42     		cmp	r2, r3
 1152 0008 00D0     		beq	.L64
ARM GAS  /tmp/cczsEcHh.s 			page 33


 1153              	.LVL52:
 1154              	.L61:
 444:Src/stm32f7xx_hal_msp.c ****   {
 445:Src/stm32f7xx_hal_msp.c ****   /* USER CODE BEGIN SPI2_MspDeInit 0 */
 446:Src/stm32f7xx_hal_msp.c **** 
 447:Src/stm32f7xx_hal_msp.c ****   /* USER CODE END SPI2_MspDeInit 0 */
 448:Src/stm32f7xx_hal_msp.c ****     /* Peripheral clock disable */
 449:Src/stm32f7xx_hal_msp.c ****     __HAL_RCC_SPI2_CLK_DISABLE();
 450:Src/stm32f7xx_hal_msp.c ****   
 451:Src/stm32f7xx_hal_msp.c ****     /**SPI2 GPIO Configuration    
 452:Src/stm32f7xx_hal_msp.c ****     PC2     ------> SPI2_MISO
 453:Src/stm32f7xx_hal_msp.c ****     PC3     ------> SPI2_MOSI
 454:Src/stm32f7xx_hal_msp.c ****     PD3     ------> SPI2_SCK 
 455:Src/stm32f7xx_hal_msp.c ****     */
 456:Src/stm32f7xx_hal_msp.c ****     HAL_GPIO_DeInit(GPIOC, GPIO_PIN_2|GPIO_PIN_3);
 457:Src/stm32f7xx_hal_msp.c **** 
 458:Src/stm32f7xx_hal_msp.c ****     HAL_GPIO_DeInit(GPIOD, GPIO_PIN_3);
 459:Src/stm32f7xx_hal_msp.c **** 
 460:Src/stm32f7xx_hal_msp.c ****   /* USER CODE BEGIN SPI2_MspDeInit 1 */
 461:Src/stm32f7xx_hal_msp.c **** 
 462:Src/stm32f7xx_hal_msp.c ****   /* USER CODE END SPI2_MspDeInit 1 */
 463:Src/stm32f7xx_hal_msp.c ****   }
 464:Src/stm32f7xx_hal_msp.c **** 
 465:Src/stm32f7xx_hal_msp.c **** }
 1155              		.loc 1 465 1 view .LVU331
 1156 000a 08BD     		pop	{r3, pc}
 1157              	.LVL53:
 1158              	.L64:
 449:Src/stm32f7xx_hal_msp.c ****   
 1159              		.loc 1 449 5 is_stmt 1 view .LVU332
 1160 000c 074A     		ldr	r2, .L65+4
 1161 000e 136C     		ldr	r3, [r2, #64]
 1162 0010 23F48043 		bic	r3, r3, #16384
 1163 0014 1364     		str	r3, [r2, #64]
 456:Src/stm32f7xx_hal_msp.c **** 
 1164              		.loc 1 456 5 view .LVU333
 1165 0016 0C21     		movs	r1, #12
 1166 0018 0548     		ldr	r0, .L65+8
 1167              	.LVL54:
 456:Src/stm32f7xx_hal_msp.c **** 
 1168              		.loc 1 456 5 is_stmt 0 view .LVU334
 1169 001a FFF7FEFF 		bl	HAL_GPIO_DeInit
 1170              	.LVL55:
 458:Src/stm32f7xx_hal_msp.c **** 
 1171              		.loc 1 458 5 is_stmt 1 view .LVU335
 1172 001e 0821     		movs	r1, #8
 1173 0020 0448     		ldr	r0, .L65+12
 1174 0022 FFF7FEFF 		bl	HAL_GPIO_DeInit
 1175              	.LVL56:
 1176              		.loc 1 465 1 is_stmt 0 view .LVU336
 1177 0026 F0E7     		b	.L61
 1178              	.L66:
 1179              		.align	2
 1180              	.L65:
 1181 0028 00380040 		.word	1073756160
 1182 002c 00380240 		.word	1073887232
 1183 0030 00080240 		.word	1073874944
ARM GAS  /tmp/cczsEcHh.s 			page 34


 1184 0034 000C0240 		.word	1073875968
 1185              		.cfi_endproc
 1186              	.LFE149:
 1188              		.section	.text.HAL_TIM_PWM_MspInit,"ax",%progbits
 1189              		.align	1
 1190              		.global	HAL_TIM_PWM_MspInit
 1191              		.syntax unified
 1192              		.thumb
 1193              		.thumb_func
 1194              		.fpu fpv5-d16
 1196              	HAL_TIM_PWM_MspInit:
 1197              	.LVL57:
 1198              	.LFB150:
 466:Src/stm32f7xx_hal_msp.c **** 
 467:Src/stm32f7xx_hal_msp.c **** /**
 468:Src/stm32f7xx_hal_msp.c **** * @brief TIM_PWM MSP Initialization
 469:Src/stm32f7xx_hal_msp.c **** * This function configures the hardware resources used in this example
 470:Src/stm32f7xx_hal_msp.c **** * @param htim_pwm: TIM_PWM handle pointer
 471:Src/stm32f7xx_hal_msp.c **** * @retval None
 472:Src/stm32f7xx_hal_msp.c **** */
 473:Src/stm32f7xx_hal_msp.c **** void HAL_TIM_PWM_MspInit(TIM_HandleTypeDef* htim_pwm)
 474:Src/stm32f7xx_hal_msp.c **** {
 1199              		.loc 1 474 1 is_stmt 1 view -0
 1200              		.cfi_startproc
 1201              		@ args = 0, pretend = 0, frame = 16
 1202              		@ frame_needed = 0, uses_anonymous_args = 0
 1203              		@ link register save eliminated.
 1204              		.loc 1 474 1 is_stmt 0 view .LVU338
 1205 0000 84B0     		sub	sp, sp, #16
 1206              	.LCFI22:
 1207              		.cfi_def_cfa_offset 16
 475:Src/stm32f7xx_hal_msp.c ****   if(htim_pwm->Instance==TIM2)
 1208              		.loc 1 475 3 is_stmt 1 view .LVU339
 1209              		.loc 1 475 14 is_stmt 0 view .LVU340
 1210 0002 0368     		ldr	r3, [r0]
 1211              		.loc 1 475 5 view .LVU341
 1212 0004 B3F1804F 		cmp	r3, #1073741824
 1213 0008 13D0     		beq	.L73
 476:Src/stm32f7xx_hal_msp.c ****   {
 477:Src/stm32f7xx_hal_msp.c ****   /* USER CODE BEGIN TIM2_MspInit 0 */
 478:Src/stm32f7xx_hal_msp.c **** 
 479:Src/stm32f7xx_hal_msp.c ****   /* USER CODE END TIM2_MspInit 0 */
 480:Src/stm32f7xx_hal_msp.c ****     /* Peripheral clock enable */
 481:Src/stm32f7xx_hal_msp.c ****     __HAL_RCC_TIM2_CLK_ENABLE();
 482:Src/stm32f7xx_hal_msp.c ****   /* USER CODE BEGIN TIM2_MspInit 1 */
 483:Src/stm32f7xx_hal_msp.c **** 
 484:Src/stm32f7xx_hal_msp.c ****   /* USER CODE END TIM2_MspInit 1 */
 485:Src/stm32f7xx_hal_msp.c ****   }
 486:Src/stm32f7xx_hal_msp.c ****   else if(htim_pwm->Instance==TIM3)
 1214              		.loc 1 486 8 is_stmt 1 view .LVU342
 1215              		.loc 1 486 10 is_stmt 0 view .LVU343
 1216 000a 1B4A     		ldr	r2, .L76
 1217 000c 9342     		cmp	r3, r2
 1218 000e 1DD0     		beq	.L74
 487:Src/stm32f7xx_hal_msp.c ****   {
 488:Src/stm32f7xx_hal_msp.c ****   /* USER CODE BEGIN TIM3_MspInit 0 */
 489:Src/stm32f7xx_hal_msp.c **** 
ARM GAS  /tmp/cczsEcHh.s 			page 35


 490:Src/stm32f7xx_hal_msp.c ****   /* USER CODE END TIM3_MspInit 0 */
 491:Src/stm32f7xx_hal_msp.c ****     /* Peripheral clock enable */
 492:Src/stm32f7xx_hal_msp.c ****     __HAL_RCC_TIM3_CLK_ENABLE();
 493:Src/stm32f7xx_hal_msp.c ****   /* USER CODE BEGIN TIM3_MspInit 1 */
 494:Src/stm32f7xx_hal_msp.c **** 
 495:Src/stm32f7xx_hal_msp.c ****   /* USER CODE END TIM3_MspInit 1 */
 496:Src/stm32f7xx_hal_msp.c ****   }
 497:Src/stm32f7xx_hal_msp.c ****   else if(htim_pwm->Instance==TIM4)
 1219              		.loc 1 497 8 is_stmt 1 view .LVU344
 1220              		.loc 1 497 10 is_stmt 0 view .LVU345
 1221 0010 1A4A     		ldr	r2, .L76+4
 1222 0012 9342     		cmp	r3, r2
 1223 0014 25D0     		beq	.L75
 498:Src/stm32f7xx_hal_msp.c ****   {
 499:Src/stm32f7xx_hal_msp.c ****   /* USER CODE BEGIN TIM4_MspInit 0 */
 500:Src/stm32f7xx_hal_msp.c **** 
 501:Src/stm32f7xx_hal_msp.c ****   /* USER CODE END TIM4_MspInit 0 */
 502:Src/stm32f7xx_hal_msp.c ****     /* Peripheral clock enable */
 503:Src/stm32f7xx_hal_msp.c ****     __HAL_RCC_TIM4_CLK_ENABLE();
 504:Src/stm32f7xx_hal_msp.c ****   /* USER CODE BEGIN TIM4_MspInit 1 */
 505:Src/stm32f7xx_hal_msp.c **** 
 506:Src/stm32f7xx_hal_msp.c ****   /* USER CODE END TIM4_MspInit 1 */
 507:Src/stm32f7xx_hal_msp.c ****   }
 508:Src/stm32f7xx_hal_msp.c ****   else if(htim_pwm->Instance==TIM8)
 1224              		.loc 1 508 8 is_stmt 1 view .LVU346
 1225              		.loc 1 508 10 is_stmt 0 view .LVU347
 1226 0016 1A4A     		ldr	r2, .L76+8
 1227 0018 9342     		cmp	r3, r2
 1228 001a 15D1     		bne	.L67
 509:Src/stm32f7xx_hal_msp.c ****   {
 510:Src/stm32f7xx_hal_msp.c ****   /* USER CODE BEGIN TIM8_MspInit 0 */
 511:Src/stm32f7xx_hal_msp.c **** 
 512:Src/stm32f7xx_hal_msp.c ****   /* USER CODE END TIM8_MspInit 0 */
 513:Src/stm32f7xx_hal_msp.c ****     /* Peripheral clock enable */
 514:Src/stm32f7xx_hal_msp.c ****     __HAL_RCC_TIM8_CLK_ENABLE();
 1229              		.loc 1 514 5 is_stmt 1 view .LVU348
 1230              	.LBB20:
 1231              		.loc 1 514 5 view .LVU349
 1232              		.loc 1 514 5 view .LVU350
 1233 001c 194B     		ldr	r3, .L76+12
 1234 001e 5A6C     		ldr	r2, [r3, #68]
 1235 0020 42F00202 		orr	r2, r2, #2
 1236 0024 5A64     		str	r2, [r3, #68]
 1237              		.loc 1 514 5 view .LVU351
 1238 0026 5B6C     		ldr	r3, [r3, #68]
 1239 0028 03F00203 		and	r3, r3, #2
 1240 002c 0393     		str	r3, [sp, #12]
 1241              		.loc 1 514 5 view .LVU352
 1242 002e 039B     		ldr	r3, [sp, #12]
 1243              	.LBE20:
 1244              		.loc 1 514 5 view .LVU353
 515:Src/stm32f7xx_hal_msp.c ****   /* USER CODE BEGIN TIM8_MspInit 1 */
 516:Src/stm32f7xx_hal_msp.c **** 
 517:Src/stm32f7xx_hal_msp.c ****   /* USER CODE END TIM8_MspInit 1 */
 518:Src/stm32f7xx_hal_msp.c ****   }
 519:Src/stm32f7xx_hal_msp.c **** 
 520:Src/stm32f7xx_hal_msp.c **** }
ARM GAS  /tmp/cczsEcHh.s 			page 36


 1245              		.loc 1 520 1 is_stmt 0 view .LVU354
 1246 0030 0AE0     		b	.L67
 1247              	.L73:
 481:Src/stm32f7xx_hal_msp.c ****   /* USER CODE BEGIN TIM2_MspInit 1 */
 1248              		.loc 1 481 5 is_stmt 1 view .LVU355
 1249              	.LBB21:
 481:Src/stm32f7xx_hal_msp.c ****   /* USER CODE BEGIN TIM2_MspInit 1 */
 1250              		.loc 1 481 5 view .LVU356
 481:Src/stm32f7xx_hal_msp.c ****   /* USER CODE BEGIN TIM2_MspInit 1 */
 1251              		.loc 1 481 5 view .LVU357
 1252 0032 03F50E33 		add	r3, r3, #145408
 1253 0036 1A6C     		ldr	r2, [r3, #64]
 1254 0038 42F00102 		orr	r2, r2, #1
 1255 003c 1A64     		str	r2, [r3, #64]
 481:Src/stm32f7xx_hal_msp.c ****   /* USER CODE BEGIN TIM2_MspInit 1 */
 1256              		.loc 1 481 5 view .LVU358
 1257 003e 1B6C     		ldr	r3, [r3, #64]
 1258 0040 03F00103 		and	r3, r3, #1
 1259 0044 0093     		str	r3, [sp]
 481:Src/stm32f7xx_hal_msp.c ****   /* USER CODE BEGIN TIM2_MspInit 1 */
 1260              		.loc 1 481 5 view .LVU359
 1261 0046 009B     		ldr	r3, [sp]
 1262              	.LBE21:
 481:Src/stm32f7xx_hal_msp.c ****   /* USER CODE BEGIN TIM2_MspInit 1 */
 1263              		.loc 1 481 5 view .LVU360
 1264              	.L67:
 1265              		.loc 1 520 1 is_stmt 0 view .LVU361
 1266 0048 04B0     		add	sp, sp, #16
 1267              	.LCFI23:
 1268              		.cfi_remember_state
 1269              		.cfi_def_cfa_offset 0
 1270              		@ sp needed
 1271 004a 7047     		bx	lr
 1272              	.L74:
 1273              	.LCFI24:
 1274              		.cfi_restore_state
 492:Src/stm32f7xx_hal_msp.c ****   /* USER CODE BEGIN TIM3_MspInit 1 */
 1275              		.loc 1 492 5 is_stmt 1 view .LVU362
 1276              	.LBB22:
 492:Src/stm32f7xx_hal_msp.c ****   /* USER CODE BEGIN TIM3_MspInit 1 */
 1277              		.loc 1 492 5 view .LVU363
 492:Src/stm32f7xx_hal_msp.c ****   /* USER CODE BEGIN TIM3_MspInit 1 */
 1278              		.loc 1 492 5 view .LVU364
 1279 004c 0D4B     		ldr	r3, .L76+12
 1280 004e 1A6C     		ldr	r2, [r3, #64]
 1281 0050 42F00202 		orr	r2, r2, #2
 1282 0054 1A64     		str	r2, [r3, #64]
 492:Src/stm32f7xx_hal_msp.c ****   /* USER CODE BEGIN TIM3_MspInit 1 */
 1283              		.loc 1 492 5 view .LVU365
 1284 0056 1B6C     		ldr	r3, [r3, #64]
 1285 0058 03F00203 		and	r3, r3, #2
 1286 005c 0193     		str	r3, [sp, #4]
 492:Src/stm32f7xx_hal_msp.c ****   /* USER CODE BEGIN TIM3_MspInit 1 */
 1287              		.loc 1 492 5 view .LVU366
 1288 005e 019B     		ldr	r3, [sp, #4]
 1289              	.LBE22:
 492:Src/stm32f7xx_hal_msp.c ****   /* USER CODE BEGIN TIM3_MspInit 1 */
ARM GAS  /tmp/cczsEcHh.s 			page 37


 1290              		.loc 1 492 5 view .LVU367
 1291 0060 F2E7     		b	.L67
 1292              	.L75:
 503:Src/stm32f7xx_hal_msp.c ****   /* USER CODE BEGIN TIM4_MspInit 1 */
 1293              		.loc 1 503 5 view .LVU368
 1294              	.LBB23:
 503:Src/stm32f7xx_hal_msp.c ****   /* USER CODE BEGIN TIM4_MspInit 1 */
 1295              		.loc 1 503 5 view .LVU369
 503:Src/stm32f7xx_hal_msp.c ****   /* USER CODE BEGIN TIM4_MspInit 1 */
 1296              		.loc 1 503 5 view .LVU370
 1297 0062 084B     		ldr	r3, .L76+12
 1298 0064 1A6C     		ldr	r2, [r3, #64]
 1299 0066 42F00402 		orr	r2, r2, #4
 1300 006a 1A64     		str	r2, [r3, #64]
 503:Src/stm32f7xx_hal_msp.c ****   /* USER CODE BEGIN TIM4_MspInit 1 */
 1301              		.loc 1 503 5 view .LVU371
 1302 006c 1B6C     		ldr	r3, [r3, #64]
 1303 006e 03F00403 		and	r3, r3, #4
 1304 0072 0293     		str	r3, [sp, #8]
 503:Src/stm32f7xx_hal_msp.c ****   /* USER CODE BEGIN TIM4_MspInit 1 */
 1305              		.loc 1 503 5 view .LVU372
 1306 0074 029B     		ldr	r3, [sp, #8]
 1307              	.LBE23:
 503:Src/stm32f7xx_hal_msp.c ****   /* USER CODE BEGIN TIM4_MspInit 1 */
 1308              		.loc 1 503 5 view .LVU373
 1309 0076 E7E7     		b	.L67
 1310              	.L77:
 1311              		.align	2
 1312              	.L76:
 1313 0078 00040040 		.word	1073742848
 1314 007c 00080040 		.word	1073743872
 1315 0080 00040140 		.word	1073808384
 1316 0084 00380240 		.word	1073887232
 1317              		.cfi_endproc
 1318              	.LFE150:
 1320              		.section	.text.HAL_TIM_Base_MspInit,"ax",%progbits
 1321              		.align	1
 1322              		.global	HAL_TIM_Base_MspInit
 1323              		.syntax unified
 1324              		.thumb
 1325              		.thumb_func
 1326              		.fpu fpv5-d16
 1328              	HAL_TIM_Base_MspInit:
 1329              	.LVL58:
 1330              	.LFB151:
 521:Src/stm32f7xx_hal_msp.c **** 
 522:Src/stm32f7xx_hal_msp.c **** /**
 523:Src/stm32f7xx_hal_msp.c **** * @brief TIM_Base MSP Initialization
 524:Src/stm32f7xx_hal_msp.c **** * This function configures the hardware resources used in this example
 525:Src/stm32f7xx_hal_msp.c **** * @param htim_base: TIM_Base handle pointer
 526:Src/stm32f7xx_hal_msp.c **** * @retval None
 527:Src/stm32f7xx_hal_msp.c **** */
 528:Src/stm32f7xx_hal_msp.c **** void HAL_TIM_Base_MspInit(TIM_HandleTypeDef* htim_base)
 529:Src/stm32f7xx_hal_msp.c **** {
 1331              		.loc 1 529 1 view -0
 1332              		.cfi_startproc
 1333              		@ args = 0, pretend = 0, frame = 8
ARM GAS  /tmp/cczsEcHh.s 			page 38


 1334              		@ frame_needed = 0, uses_anonymous_args = 0
 530:Src/stm32f7xx_hal_msp.c ****   if(htim_base->Instance==TIM5)
 1335              		.loc 1 530 3 view .LVU375
 1336              		.loc 1 530 15 is_stmt 0 view .LVU376
 1337 0000 0268     		ldr	r2, [r0]
 1338              		.loc 1 530 5 view .LVU377
 1339 0002 0E4B     		ldr	r3, .L85
 1340 0004 9A42     		cmp	r2, r3
 1341 0006 00D0     		beq	.L84
 1342 0008 7047     		bx	lr
 1343              	.L84:
 529:Src/stm32f7xx_hal_msp.c ****   if(htim_base->Instance==TIM5)
 1344              		.loc 1 529 1 view .LVU378
 1345 000a 00B5     		push	{lr}
 1346              	.LCFI25:
 1347              		.cfi_def_cfa_offset 4
 1348              		.cfi_offset 14, -4
 1349 000c 83B0     		sub	sp, sp, #12
 1350              	.LCFI26:
 1351              		.cfi_def_cfa_offset 16
 531:Src/stm32f7xx_hal_msp.c ****   {
 532:Src/stm32f7xx_hal_msp.c ****   /* USER CODE BEGIN TIM5_MspInit 0 */
 533:Src/stm32f7xx_hal_msp.c **** 
 534:Src/stm32f7xx_hal_msp.c ****   /* USER CODE END TIM5_MspInit 0 */
 535:Src/stm32f7xx_hal_msp.c ****     /* Peripheral clock enable */
 536:Src/stm32f7xx_hal_msp.c ****     __HAL_RCC_TIM5_CLK_ENABLE();
 1352              		.loc 1 536 5 is_stmt 1 view .LVU379
 1353              	.LBB24:
 1354              		.loc 1 536 5 view .LVU380
 1355              		.loc 1 536 5 view .LVU381
 1356 000e 03F50B33 		add	r3, r3, #142336
 1357 0012 1A6C     		ldr	r2, [r3, #64]
 1358 0014 42F00802 		orr	r2, r2, #8
 1359 0018 1A64     		str	r2, [r3, #64]
 1360              		.loc 1 536 5 view .LVU382
 1361 001a 1B6C     		ldr	r3, [r3, #64]
 1362 001c 03F00803 		and	r3, r3, #8
 1363 0020 0193     		str	r3, [sp, #4]
 1364              		.loc 1 536 5 view .LVU383
 1365 0022 019B     		ldr	r3, [sp, #4]
 1366              	.LBE24:
 1367              		.loc 1 536 5 view .LVU384
 537:Src/stm32f7xx_hal_msp.c ****     /* TIM5 interrupt Init */
 538:Src/stm32f7xx_hal_msp.c ****     HAL_NVIC_SetPriority(TIM5_IRQn, 0, 0);
 1368              		.loc 1 538 5 view .LVU385
 1369 0024 0022     		movs	r2, #0
 1370 0026 1146     		mov	r1, r2
 1371 0028 3220     		movs	r0, #50
 1372              	.LVL59:
 1373              		.loc 1 538 5 is_stmt 0 view .LVU386
 1374 002a FFF7FEFF 		bl	HAL_NVIC_SetPriority
 1375              	.LVL60:
 539:Src/stm32f7xx_hal_msp.c ****     HAL_NVIC_EnableIRQ(TIM5_IRQn);
 1376              		.loc 1 539 5 is_stmt 1 view .LVU387
 1377 002e 3220     		movs	r0, #50
 1378 0030 FFF7FEFF 		bl	HAL_NVIC_EnableIRQ
 1379              	.LVL61:
ARM GAS  /tmp/cczsEcHh.s 			page 39


 540:Src/stm32f7xx_hal_msp.c ****   /* USER CODE BEGIN TIM5_MspInit 1 */
 541:Src/stm32f7xx_hal_msp.c **** 
 542:Src/stm32f7xx_hal_msp.c ****   /* USER CODE END TIM5_MspInit 1 */
 543:Src/stm32f7xx_hal_msp.c ****   }
 544:Src/stm32f7xx_hal_msp.c **** 
 545:Src/stm32f7xx_hal_msp.c **** }
 1380              		.loc 1 545 1 is_stmt 0 view .LVU388
 1381 0034 03B0     		add	sp, sp, #12
 1382              	.LCFI27:
 1383              		.cfi_def_cfa_offset 4
 1384              		@ sp needed
 1385 0036 5DF804FB 		ldr	pc, [sp], #4
 1386              	.L86:
 1387 003a 00BF     		.align	2
 1388              	.L85:
 1389 003c 000C0040 		.word	1073744896
 1390              		.cfi_endproc
 1391              	.LFE151:
 1393              		.section	.text.HAL_TIM_MspPostInit,"ax",%progbits
 1394              		.align	1
 1395              		.global	HAL_TIM_MspPostInit
 1396              		.syntax unified
 1397              		.thumb
 1398              		.thumb_func
 1399              		.fpu fpv5-d16
 1401              	HAL_TIM_MspPostInit:
 1402              	.LVL62:
 1403              	.LFB152:
 546:Src/stm32f7xx_hal_msp.c **** 
 547:Src/stm32f7xx_hal_msp.c **** void HAL_TIM_MspPostInit(TIM_HandleTypeDef* htim)
 548:Src/stm32f7xx_hal_msp.c **** {
 1404              		.loc 1 548 1 is_stmt 1 view -0
 1405              		.cfi_startproc
 1406              		@ args = 0, pretend = 0, frame = 48
 1407              		@ frame_needed = 0, uses_anonymous_args = 0
 1408              		.loc 1 548 1 is_stmt 0 view .LVU390
 1409 0000 70B5     		push	{r4, r5, r6, lr}
 1410              	.LCFI28:
 1411              		.cfi_def_cfa_offset 16
 1412              		.cfi_offset 4, -16
 1413              		.cfi_offset 5, -12
 1414              		.cfi_offset 6, -8
 1415              		.cfi_offset 14, -4
 1416 0002 8CB0     		sub	sp, sp, #48
 1417              	.LCFI29:
 1418              		.cfi_def_cfa_offset 64
 549:Src/stm32f7xx_hal_msp.c ****   GPIO_InitTypeDef GPIO_InitStruct = {0};
 1419              		.loc 1 549 3 is_stmt 1 view .LVU391
 1420              		.loc 1 549 20 is_stmt 0 view .LVU392
 1421 0004 0023     		movs	r3, #0
 1422 0006 0793     		str	r3, [sp, #28]
 1423 0008 0893     		str	r3, [sp, #32]
 1424 000a 0993     		str	r3, [sp, #36]
 1425 000c 0A93     		str	r3, [sp, #40]
 1426 000e 0B93     		str	r3, [sp, #44]
 550:Src/stm32f7xx_hal_msp.c ****   if(htim->Instance==TIM2)
 1427              		.loc 1 550 3 is_stmt 1 view .LVU393
ARM GAS  /tmp/cczsEcHh.s 			page 40


 1428              		.loc 1 550 10 is_stmt 0 view .LVU394
 1429 0010 0368     		ldr	r3, [r0]
 1430              		.loc 1 550 5 view .LVU395
 1431 0012 B3F1804F 		cmp	r3, #1073741824
 1432 0016 0BD0     		beq	.L93
 551:Src/stm32f7xx_hal_msp.c ****   {
 552:Src/stm32f7xx_hal_msp.c ****   /* USER CODE BEGIN TIM2_MspPostInit 0 */
 553:Src/stm32f7xx_hal_msp.c **** 
 554:Src/stm32f7xx_hal_msp.c ****   /* USER CODE END TIM2_MspPostInit 0 */
 555:Src/stm32f7xx_hal_msp.c ****     __HAL_RCC_GPIOA_CLK_ENABLE();
 556:Src/stm32f7xx_hal_msp.c ****     __HAL_RCC_GPIOB_CLK_ENABLE();
 557:Src/stm32f7xx_hal_msp.c ****     /**TIM2 GPIO Configuration    
 558:Src/stm32f7xx_hal_msp.c ****     PA1     ------> TIM2_CH2
 559:Src/stm32f7xx_hal_msp.c ****     PA5     ------> TIM2_CH1
 560:Src/stm32f7xx_hal_msp.c ****     PB10     ------> TIM2_CH3
 561:Src/stm32f7xx_hal_msp.c ****     PB11     ------> TIM2_CH4 
 562:Src/stm32f7xx_hal_msp.c ****     */
 563:Src/stm32f7xx_hal_msp.c ****     GPIO_InitStruct.Pin = FAN1_HV_Pin|FAN2_HV_Pin;
 564:Src/stm32f7xx_hal_msp.c ****     GPIO_InitStruct.Mode = GPIO_MODE_AF_PP;
 565:Src/stm32f7xx_hal_msp.c ****     GPIO_InitStruct.Pull = GPIO_NOPULL;
 566:Src/stm32f7xx_hal_msp.c ****     GPIO_InitStruct.Speed = GPIO_SPEED_FREQ_LOW;
 567:Src/stm32f7xx_hal_msp.c ****     GPIO_InitStruct.Alternate = GPIO_AF1_TIM2;
 568:Src/stm32f7xx_hal_msp.c ****     HAL_GPIO_Init(GPIOA, &GPIO_InitStruct);
 569:Src/stm32f7xx_hal_msp.c **** 
 570:Src/stm32f7xx_hal_msp.c ****     GPIO_InitStruct.Pin = FAN6_LV_Pin|FAN5_LV_Pin;
 571:Src/stm32f7xx_hal_msp.c ****     GPIO_InitStruct.Mode = GPIO_MODE_AF_PP;
 572:Src/stm32f7xx_hal_msp.c ****     GPIO_InitStruct.Pull = GPIO_NOPULL;
 573:Src/stm32f7xx_hal_msp.c ****     GPIO_InitStruct.Speed = GPIO_SPEED_FREQ_LOW;
 574:Src/stm32f7xx_hal_msp.c ****     GPIO_InitStruct.Alternate = GPIO_AF1_TIM2;
 575:Src/stm32f7xx_hal_msp.c ****     HAL_GPIO_Init(GPIOB, &GPIO_InitStruct);
 576:Src/stm32f7xx_hal_msp.c **** 
 577:Src/stm32f7xx_hal_msp.c ****   /* USER CODE BEGIN TIM2_MspPostInit 1 */
 578:Src/stm32f7xx_hal_msp.c **** 
 579:Src/stm32f7xx_hal_msp.c ****   /* USER CODE END TIM2_MspPostInit 1 */
 580:Src/stm32f7xx_hal_msp.c ****   }
 581:Src/stm32f7xx_hal_msp.c ****   else if(htim->Instance==TIM3)
 1433              		.loc 1 581 8 is_stmt 1 view .LVU396
 1434              		.loc 1 581 10 is_stmt 0 view .LVU397
 1435 0018 534A     		ldr	r2, .L97
 1436 001a 9342     		cmp	r3, r2
 1437 001c 35D0     		beq	.L94
 582:Src/stm32f7xx_hal_msp.c ****   {
 583:Src/stm32f7xx_hal_msp.c ****   /* USER CODE BEGIN TIM3_MspPostInit 0 */
 584:Src/stm32f7xx_hal_msp.c **** 
 585:Src/stm32f7xx_hal_msp.c ****   /* USER CODE END TIM3_MspPostInit 0 */
 586:Src/stm32f7xx_hal_msp.c ****   
 587:Src/stm32f7xx_hal_msp.c ****     __HAL_RCC_GPIOA_CLK_ENABLE();
 588:Src/stm32f7xx_hal_msp.c ****     __HAL_RCC_GPIOC_CLK_ENABLE();
 589:Src/stm32f7xx_hal_msp.c ****     /**TIM3 GPIO Configuration    
 590:Src/stm32f7xx_hal_msp.c ****     PA6     ------> TIM3_CH1
 591:Src/stm32f7xx_hal_msp.c ****     PC7     ------> TIM3_CH2 
 592:Src/stm32f7xx_hal_msp.c ****     */
 593:Src/stm32f7xx_hal_msp.c ****     GPIO_InitStruct.Pin = FAN3_HV_Pin;
 594:Src/stm32f7xx_hal_msp.c ****     GPIO_InitStruct.Mode = GPIO_MODE_AF_PP;
 595:Src/stm32f7xx_hal_msp.c ****     GPIO_InitStruct.Pull = GPIO_NOPULL;
 596:Src/stm32f7xx_hal_msp.c ****     GPIO_InitStruct.Speed = GPIO_SPEED_FREQ_LOW;
 597:Src/stm32f7xx_hal_msp.c ****     GPIO_InitStruct.Alternate = GPIO_AF2_TIM3;
ARM GAS  /tmp/cczsEcHh.s 			page 41


 598:Src/stm32f7xx_hal_msp.c ****     HAL_GPIO_Init(FAN3_HV_GPIO_Port, &GPIO_InitStruct);
 599:Src/stm32f7xx_hal_msp.c **** 
 600:Src/stm32f7xx_hal_msp.c ****     GPIO_InitStruct.Pin = LED_ERR_Pin;
 601:Src/stm32f7xx_hal_msp.c ****     GPIO_InitStruct.Mode = GPIO_MODE_AF_PP;
 602:Src/stm32f7xx_hal_msp.c ****     GPIO_InitStruct.Pull = GPIO_NOPULL;
 603:Src/stm32f7xx_hal_msp.c ****     GPIO_InitStruct.Speed = GPIO_SPEED_FREQ_LOW;
 604:Src/stm32f7xx_hal_msp.c ****     GPIO_InitStruct.Alternate = GPIO_AF2_TIM3;
 605:Src/stm32f7xx_hal_msp.c ****     HAL_GPIO_Init(LED_ERR_GPIO_Port, &GPIO_InitStruct);
 606:Src/stm32f7xx_hal_msp.c **** 
 607:Src/stm32f7xx_hal_msp.c ****   /* USER CODE BEGIN TIM3_MspPostInit 1 */
 608:Src/stm32f7xx_hal_msp.c **** 
 609:Src/stm32f7xx_hal_msp.c ****   /* USER CODE END TIM3_MspPostInit 1 */
 610:Src/stm32f7xx_hal_msp.c ****   }
 611:Src/stm32f7xx_hal_msp.c ****   else if(htim->Instance==TIM4)
 1438              		.loc 1 611 8 is_stmt 1 view .LVU398
 1439              		.loc 1 611 10 is_stmt 0 view .LVU399
 1440 001e 534A     		ldr	r2, .L97+4
 1441 0020 9342     		cmp	r3, r2
 1442 0022 5CD0     		beq	.L95
 612:Src/stm32f7xx_hal_msp.c ****   {
 613:Src/stm32f7xx_hal_msp.c ****   /* USER CODE BEGIN TIM4_MspPostInit 0 */
 614:Src/stm32f7xx_hal_msp.c **** 
 615:Src/stm32f7xx_hal_msp.c ****   /* USER CODE END TIM4_MspPostInit 0 */
 616:Src/stm32f7xx_hal_msp.c ****   
 617:Src/stm32f7xx_hal_msp.c ****     __HAL_RCC_GPIOD_CLK_ENABLE();
 618:Src/stm32f7xx_hal_msp.c ****     __HAL_RCC_GPIOB_CLK_ENABLE();
 619:Src/stm32f7xx_hal_msp.c ****     /**TIM4 GPIO Configuration    
 620:Src/stm32f7xx_hal_msp.c ****     PD12     ------> TIM4_CH1
 621:Src/stm32f7xx_hal_msp.c ****     PD13     ------> TIM4_CH2
 622:Src/stm32f7xx_hal_msp.c ****     PB8     ------> TIM4_CH3
 623:Src/stm32f7xx_hal_msp.c ****     PB9     ------> TIM4_CH4 
 624:Src/stm32f7xx_hal_msp.c ****     */
 625:Src/stm32f7xx_hal_msp.c ****     GPIO_InitStruct.Pin = PUMP_2_Pin|PUMP_1_Pin;
 626:Src/stm32f7xx_hal_msp.c ****     GPIO_InitStruct.Mode = GPIO_MODE_AF_PP;
 627:Src/stm32f7xx_hal_msp.c ****     GPIO_InitStruct.Pull = GPIO_NOPULL;
 628:Src/stm32f7xx_hal_msp.c ****     GPIO_InitStruct.Speed = GPIO_SPEED_FREQ_LOW;
 629:Src/stm32f7xx_hal_msp.c ****     GPIO_InitStruct.Alternate = GPIO_AF2_TIM4;
 630:Src/stm32f7xx_hal_msp.c ****     HAL_GPIO_Init(GPIOD, &GPIO_InitStruct);
 631:Src/stm32f7xx_hal_msp.c **** 
 632:Src/stm32f7xx_hal_msp.c ****     GPIO_InitStruct.Pin = RADIATOR_1_Pin|RADIATOR_2_Pin;
 633:Src/stm32f7xx_hal_msp.c ****     GPIO_InitStruct.Mode = GPIO_MODE_AF_PP;
 634:Src/stm32f7xx_hal_msp.c ****     GPIO_InitStruct.Pull = GPIO_NOPULL;
 635:Src/stm32f7xx_hal_msp.c ****     GPIO_InitStruct.Speed = GPIO_SPEED_FREQ_LOW;
 636:Src/stm32f7xx_hal_msp.c ****     GPIO_InitStruct.Alternate = GPIO_AF2_TIM4;
 637:Src/stm32f7xx_hal_msp.c ****     HAL_GPIO_Init(GPIOB, &GPIO_InitStruct);
 638:Src/stm32f7xx_hal_msp.c **** 
 639:Src/stm32f7xx_hal_msp.c ****   /* USER CODE BEGIN TIM4_MspPostInit 1 */
 640:Src/stm32f7xx_hal_msp.c **** 
 641:Src/stm32f7xx_hal_msp.c ****   /* USER CODE END TIM4_MspPostInit 1 */
 642:Src/stm32f7xx_hal_msp.c ****   }
 643:Src/stm32f7xx_hal_msp.c ****   else if(htim->Instance==TIM8)
 1443              		.loc 1 643 8 is_stmt 1 view .LVU400
 1444              		.loc 1 643 10 is_stmt 0 view .LVU401
 1445 0024 524A     		ldr	r2, .L97+8
 1446 0026 9342     		cmp	r3, r2
 1447 0028 00F08580 		beq	.L96
 1448              	.LVL63:
ARM GAS  /tmp/cczsEcHh.s 			page 42


 1449              	.L87:
 644:Src/stm32f7xx_hal_msp.c ****   {
 645:Src/stm32f7xx_hal_msp.c ****   /* USER CODE BEGIN TIM8_MspPostInit 0 */
 646:Src/stm32f7xx_hal_msp.c **** 
 647:Src/stm32f7xx_hal_msp.c ****   /* USER CODE END TIM8_MspPostInit 0 */
 648:Src/stm32f7xx_hal_msp.c ****   
 649:Src/stm32f7xx_hal_msp.c ****     __HAL_RCC_GPIOC_CLK_ENABLE();
 650:Src/stm32f7xx_hal_msp.c ****     /**TIM8 GPIO Configuration    
 651:Src/stm32f7xx_hal_msp.c ****     PC6     ------> TIM8_CH1 
 652:Src/stm32f7xx_hal_msp.c ****     */
 653:Src/stm32f7xx_hal_msp.c ****     GPIO_InitStruct.Pin = BUZZER_Pin;
 654:Src/stm32f7xx_hal_msp.c ****     GPIO_InitStruct.Mode = GPIO_MODE_AF_PP;
 655:Src/stm32f7xx_hal_msp.c ****     GPIO_InitStruct.Pull = GPIO_NOPULL;
 656:Src/stm32f7xx_hal_msp.c ****     GPIO_InitStruct.Speed = GPIO_SPEED_FREQ_LOW;
 657:Src/stm32f7xx_hal_msp.c ****     GPIO_InitStruct.Alternate = GPIO_AF3_TIM8;
 658:Src/stm32f7xx_hal_msp.c ****     HAL_GPIO_Init(BUZZER_GPIO_Port, &GPIO_InitStruct);
 659:Src/stm32f7xx_hal_msp.c **** 
 660:Src/stm32f7xx_hal_msp.c ****   /* USER CODE BEGIN TIM8_MspPostInit 1 */
 661:Src/stm32f7xx_hal_msp.c **** 
 662:Src/stm32f7xx_hal_msp.c ****   /* USER CODE END TIM8_MspPostInit 1 */
 663:Src/stm32f7xx_hal_msp.c ****   }
 664:Src/stm32f7xx_hal_msp.c **** 
 665:Src/stm32f7xx_hal_msp.c **** }
 1450              		.loc 1 665 1 view .LVU402
 1451 002c 0CB0     		add	sp, sp, #48
 1452              	.LCFI30:
 1453              		.cfi_remember_state
 1454              		.cfi_def_cfa_offset 16
 1455              		@ sp needed
 1456 002e 70BD     		pop	{r4, r5, r6, pc}
 1457              	.LVL64:
 1458              	.L93:
 1459              	.LCFI31:
 1460              		.cfi_restore_state
 555:Src/stm32f7xx_hal_msp.c ****     __HAL_RCC_GPIOB_CLK_ENABLE();
 1461              		.loc 1 555 5 is_stmt 1 view .LVU403
 1462              	.LBB25:
 555:Src/stm32f7xx_hal_msp.c ****     __HAL_RCC_GPIOB_CLK_ENABLE();
 1463              		.loc 1 555 5 view .LVU404
 555:Src/stm32f7xx_hal_msp.c ****     __HAL_RCC_GPIOB_CLK_ENABLE();
 1464              		.loc 1 555 5 view .LVU405
 1465 0030 03F50E33 		add	r3, r3, #145408
 1466 0034 1A6B     		ldr	r2, [r3, #48]
 1467 0036 42F00102 		orr	r2, r2, #1
 1468 003a 1A63     		str	r2, [r3, #48]
 555:Src/stm32f7xx_hal_msp.c ****     __HAL_RCC_GPIOB_CLK_ENABLE();
 1469              		.loc 1 555 5 view .LVU406
 1470 003c 1A6B     		ldr	r2, [r3, #48]
 1471 003e 02F00102 		and	r2, r2, #1
 1472 0042 0092     		str	r2, [sp]
 555:Src/stm32f7xx_hal_msp.c ****     __HAL_RCC_GPIOB_CLK_ENABLE();
 1473              		.loc 1 555 5 view .LVU407
 1474 0044 009A     		ldr	r2, [sp]
 1475              	.LBE25:
 555:Src/stm32f7xx_hal_msp.c ****     __HAL_RCC_GPIOB_CLK_ENABLE();
 1476              		.loc 1 555 5 view .LVU408
 556:Src/stm32f7xx_hal_msp.c ****     /**TIM2 GPIO Configuration    
ARM GAS  /tmp/cczsEcHh.s 			page 43


 1477              		.loc 1 556 5 view .LVU409
 1478              	.LBB26:
 556:Src/stm32f7xx_hal_msp.c ****     /**TIM2 GPIO Configuration    
 1479              		.loc 1 556 5 view .LVU410
 556:Src/stm32f7xx_hal_msp.c ****     /**TIM2 GPIO Configuration    
 1480              		.loc 1 556 5 view .LVU411
 1481 0046 1A6B     		ldr	r2, [r3, #48]
 1482 0048 42F00202 		orr	r2, r2, #2
 1483 004c 1A63     		str	r2, [r3, #48]
 556:Src/stm32f7xx_hal_msp.c ****     /**TIM2 GPIO Configuration    
 1484              		.loc 1 556 5 view .LVU412
 1485 004e 1B6B     		ldr	r3, [r3, #48]
 1486 0050 03F00203 		and	r3, r3, #2
 1487 0054 0193     		str	r3, [sp, #4]
 556:Src/stm32f7xx_hal_msp.c ****     /**TIM2 GPIO Configuration    
 1488              		.loc 1 556 5 view .LVU413
 1489 0056 019B     		ldr	r3, [sp, #4]
 1490              	.LBE26:
 556:Src/stm32f7xx_hal_msp.c ****     /**TIM2 GPIO Configuration    
 1491              		.loc 1 556 5 view .LVU414
 563:Src/stm32f7xx_hal_msp.c ****     GPIO_InitStruct.Mode = GPIO_MODE_AF_PP;
 1492              		.loc 1 563 5 view .LVU415
 563:Src/stm32f7xx_hal_msp.c ****     GPIO_InitStruct.Mode = GPIO_MODE_AF_PP;
 1493              		.loc 1 563 25 is_stmt 0 view .LVU416
 1494 0058 2223     		movs	r3, #34
 1495 005a 0793     		str	r3, [sp, #28]
 564:Src/stm32f7xx_hal_msp.c ****     GPIO_InitStruct.Pull = GPIO_NOPULL;
 1496              		.loc 1 564 5 is_stmt 1 view .LVU417
 564:Src/stm32f7xx_hal_msp.c ****     GPIO_InitStruct.Pull = GPIO_NOPULL;
 1497              		.loc 1 564 26 is_stmt 0 view .LVU418
 1498 005c 0226     		movs	r6, #2
 1499 005e 0896     		str	r6, [sp, #32]
 565:Src/stm32f7xx_hal_msp.c ****     GPIO_InitStruct.Speed = GPIO_SPEED_FREQ_LOW;
 1500              		.loc 1 565 5 is_stmt 1 view .LVU419
 565:Src/stm32f7xx_hal_msp.c ****     GPIO_InitStruct.Speed = GPIO_SPEED_FREQ_LOW;
 1501              		.loc 1 565 26 is_stmt 0 view .LVU420
 1502 0060 0024     		movs	r4, #0
 1503 0062 0994     		str	r4, [sp, #36]
 566:Src/stm32f7xx_hal_msp.c ****     GPIO_InitStruct.Alternate = GPIO_AF1_TIM2;
 1504              		.loc 1 566 5 is_stmt 1 view .LVU421
 566:Src/stm32f7xx_hal_msp.c ****     GPIO_InitStruct.Alternate = GPIO_AF1_TIM2;
 1505              		.loc 1 566 27 is_stmt 0 view .LVU422
 1506 0064 0A94     		str	r4, [sp, #40]
 567:Src/stm32f7xx_hal_msp.c ****     HAL_GPIO_Init(GPIOA, &GPIO_InitStruct);
 1507              		.loc 1 567 5 is_stmt 1 view .LVU423
 567:Src/stm32f7xx_hal_msp.c ****     HAL_GPIO_Init(GPIOA, &GPIO_InitStruct);
 1508              		.loc 1 567 31 is_stmt 0 view .LVU424
 1509 0066 0125     		movs	r5, #1
 1510 0068 0B95     		str	r5, [sp, #44]
 568:Src/stm32f7xx_hal_msp.c **** 
 1511              		.loc 1 568 5 is_stmt 1 view .LVU425
 1512 006a 07A9     		add	r1, sp, #28
 1513 006c 4148     		ldr	r0, .L97+12
 1514              	.LVL65:
 568:Src/stm32f7xx_hal_msp.c **** 
 1515              		.loc 1 568 5 is_stmt 0 view .LVU426
 1516 006e FFF7FEFF 		bl	HAL_GPIO_Init
ARM GAS  /tmp/cczsEcHh.s 			page 44


 1517              	.LVL66:
 570:Src/stm32f7xx_hal_msp.c ****     GPIO_InitStruct.Mode = GPIO_MODE_AF_PP;
 1518              		.loc 1 570 5 is_stmt 1 view .LVU427
 570:Src/stm32f7xx_hal_msp.c ****     GPIO_InitStruct.Mode = GPIO_MODE_AF_PP;
 1519              		.loc 1 570 25 is_stmt 0 view .LVU428
 1520 0072 4FF44063 		mov	r3, #3072
 1521 0076 0793     		str	r3, [sp, #28]
 571:Src/stm32f7xx_hal_msp.c ****     GPIO_InitStruct.Pull = GPIO_NOPULL;
 1522              		.loc 1 571 5 is_stmt 1 view .LVU429
 571:Src/stm32f7xx_hal_msp.c ****     GPIO_InitStruct.Pull = GPIO_NOPULL;
 1523              		.loc 1 571 26 is_stmt 0 view .LVU430
 1524 0078 0896     		str	r6, [sp, #32]
 572:Src/stm32f7xx_hal_msp.c ****     GPIO_InitStruct.Speed = GPIO_SPEED_FREQ_LOW;
 1525              		.loc 1 572 5 is_stmt 1 view .LVU431
 572:Src/stm32f7xx_hal_msp.c ****     GPIO_InitStruct.Speed = GPIO_SPEED_FREQ_LOW;
 1526              		.loc 1 572 26 is_stmt 0 view .LVU432
 1527 007a 0994     		str	r4, [sp, #36]
 573:Src/stm32f7xx_hal_msp.c ****     GPIO_InitStruct.Alternate = GPIO_AF1_TIM2;
 1528              		.loc 1 573 5 is_stmt 1 view .LVU433
 573:Src/stm32f7xx_hal_msp.c ****     GPIO_InitStruct.Alternate = GPIO_AF1_TIM2;
 1529              		.loc 1 573 27 is_stmt 0 view .LVU434
 1530 007c 0A94     		str	r4, [sp, #40]
 574:Src/stm32f7xx_hal_msp.c ****     HAL_GPIO_Init(GPIOB, &GPIO_InitStruct);
 1531              		.loc 1 574 5 is_stmt 1 view .LVU435
 574:Src/stm32f7xx_hal_msp.c ****     HAL_GPIO_Init(GPIOB, &GPIO_InitStruct);
 1532              		.loc 1 574 31 is_stmt 0 view .LVU436
 1533 007e 0B95     		str	r5, [sp, #44]
 575:Src/stm32f7xx_hal_msp.c **** 
 1534              		.loc 1 575 5 is_stmt 1 view .LVU437
 1535 0080 07A9     		add	r1, sp, #28
 1536 0082 3D48     		ldr	r0, .L97+16
 1537 0084 FFF7FEFF 		bl	HAL_GPIO_Init
 1538              	.LVL67:
 1539 0088 D0E7     		b	.L87
 1540              	.LVL68:
 1541              	.L94:
 587:Src/stm32f7xx_hal_msp.c ****     __HAL_RCC_GPIOC_CLK_ENABLE();
 1542              		.loc 1 587 5 view .LVU438
 1543              	.LBB27:
 587:Src/stm32f7xx_hal_msp.c ****     __HAL_RCC_GPIOC_CLK_ENABLE();
 1544              		.loc 1 587 5 view .LVU439
 587:Src/stm32f7xx_hal_msp.c ****     __HAL_RCC_GPIOC_CLK_ENABLE();
 1545              		.loc 1 587 5 view .LVU440
 1546 008a 3C4B     		ldr	r3, .L97+20
 1547 008c 1A6B     		ldr	r2, [r3, #48]
 1548 008e 42F00102 		orr	r2, r2, #1
 1549 0092 1A63     		str	r2, [r3, #48]
 587:Src/stm32f7xx_hal_msp.c ****     __HAL_RCC_GPIOC_CLK_ENABLE();
 1550              		.loc 1 587 5 view .LVU441
 1551 0094 1A6B     		ldr	r2, [r3, #48]
 1552 0096 02F00102 		and	r2, r2, #1
 1553 009a 0292     		str	r2, [sp, #8]
 587:Src/stm32f7xx_hal_msp.c ****     __HAL_RCC_GPIOC_CLK_ENABLE();
 1554              		.loc 1 587 5 view .LVU442
 1555 009c 029A     		ldr	r2, [sp, #8]
 1556              	.LBE27:
 587:Src/stm32f7xx_hal_msp.c ****     __HAL_RCC_GPIOC_CLK_ENABLE();
ARM GAS  /tmp/cczsEcHh.s 			page 45


 1557              		.loc 1 587 5 view .LVU443
 588:Src/stm32f7xx_hal_msp.c ****     /**TIM3 GPIO Configuration    
 1558              		.loc 1 588 5 view .LVU444
 1559              	.LBB28:
 588:Src/stm32f7xx_hal_msp.c ****     /**TIM3 GPIO Configuration    
 1560              		.loc 1 588 5 view .LVU445
 588:Src/stm32f7xx_hal_msp.c ****     /**TIM3 GPIO Configuration    
 1561              		.loc 1 588 5 view .LVU446
 1562 009e 1A6B     		ldr	r2, [r3, #48]
 1563 00a0 42F00402 		orr	r2, r2, #4
 1564 00a4 1A63     		str	r2, [r3, #48]
 588:Src/stm32f7xx_hal_msp.c ****     /**TIM3 GPIO Configuration    
 1565              		.loc 1 588 5 view .LVU447
 1566 00a6 1B6B     		ldr	r3, [r3, #48]
 1567 00a8 03F00403 		and	r3, r3, #4
 1568 00ac 0393     		str	r3, [sp, #12]
 588:Src/stm32f7xx_hal_msp.c ****     /**TIM3 GPIO Configuration    
 1569              		.loc 1 588 5 view .LVU448
 1570 00ae 039B     		ldr	r3, [sp, #12]
 1571              	.LBE28:
 588:Src/stm32f7xx_hal_msp.c ****     /**TIM3 GPIO Configuration    
 1572              		.loc 1 588 5 view .LVU449
 593:Src/stm32f7xx_hal_msp.c ****     GPIO_InitStruct.Mode = GPIO_MODE_AF_PP;
 1573              		.loc 1 593 5 view .LVU450
 593:Src/stm32f7xx_hal_msp.c ****     GPIO_InitStruct.Mode = GPIO_MODE_AF_PP;
 1574              		.loc 1 593 25 is_stmt 0 view .LVU451
 1575 00b0 4023     		movs	r3, #64
 1576 00b2 0793     		str	r3, [sp, #28]
 594:Src/stm32f7xx_hal_msp.c ****     GPIO_InitStruct.Pull = GPIO_NOPULL;
 1577              		.loc 1 594 5 is_stmt 1 view .LVU452
 594:Src/stm32f7xx_hal_msp.c ****     GPIO_InitStruct.Pull = GPIO_NOPULL;
 1578              		.loc 1 594 26 is_stmt 0 view .LVU453
 1579 00b4 0224     		movs	r4, #2
 1580 00b6 0894     		str	r4, [sp, #32]
 595:Src/stm32f7xx_hal_msp.c ****     GPIO_InitStruct.Speed = GPIO_SPEED_FREQ_LOW;
 1581              		.loc 1 595 5 is_stmt 1 view .LVU454
 595:Src/stm32f7xx_hal_msp.c ****     GPIO_InitStruct.Speed = GPIO_SPEED_FREQ_LOW;
 1582              		.loc 1 595 26 is_stmt 0 view .LVU455
 1583 00b8 0025     		movs	r5, #0
 1584 00ba 0995     		str	r5, [sp, #36]
 596:Src/stm32f7xx_hal_msp.c ****     GPIO_InitStruct.Alternate = GPIO_AF2_TIM3;
 1585              		.loc 1 596 5 is_stmt 1 view .LVU456
 596:Src/stm32f7xx_hal_msp.c ****     GPIO_InitStruct.Alternate = GPIO_AF2_TIM3;
 1586              		.loc 1 596 27 is_stmt 0 view .LVU457
 1587 00bc 0A95     		str	r5, [sp, #40]
 597:Src/stm32f7xx_hal_msp.c ****     HAL_GPIO_Init(FAN3_HV_GPIO_Port, &GPIO_InitStruct);
 1588              		.loc 1 597 5 is_stmt 1 view .LVU458
 597:Src/stm32f7xx_hal_msp.c ****     HAL_GPIO_Init(FAN3_HV_GPIO_Port, &GPIO_InitStruct);
 1589              		.loc 1 597 31 is_stmt 0 view .LVU459
 1590 00be 0B94     		str	r4, [sp, #44]
 598:Src/stm32f7xx_hal_msp.c **** 
 1591              		.loc 1 598 5 is_stmt 1 view .LVU460
 1592 00c0 07A9     		add	r1, sp, #28
 1593 00c2 2C48     		ldr	r0, .L97+12
 1594              	.LVL69:
 598:Src/stm32f7xx_hal_msp.c **** 
 1595              		.loc 1 598 5 is_stmt 0 view .LVU461
ARM GAS  /tmp/cczsEcHh.s 			page 46


 1596 00c4 FFF7FEFF 		bl	HAL_GPIO_Init
 1597              	.LVL70:
 600:Src/stm32f7xx_hal_msp.c ****     GPIO_InitStruct.Mode = GPIO_MODE_AF_PP;
 1598              		.loc 1 600 5 is_stmt 1 view .LVU462
 600:Src/stm32f7xx_hal_msp.c ****     GPIO_InitStruct.Mode = GPIO_MODE_AF_PP;
 1599              		.loc 1 600 25 is_stmt 0 view .LVU463
 1600 00c8 8023     		movs	r3, #128
 1601 00ca 0793     		str	r3, [sp, #28]
 601:Src/stm32f7xx_hal_msp.c ****     GPIO_InitStruct.Pull = GPIO_NOPULL;
 1602              		.loc 1 601 5 is_stmt 1 view .LVU464
 601:Src/stm32f7xx_hal_msp.c ****     GPIO_InitStruct.Pull = GPIO_NOPULL;
 1603              		.loc 1 601 26 is_stmt 0 view .LVU465
 1604 00cc 0894     		str	r4, [sp, #32]
 602:Src/stm32f7xx_hal_msp.c ****     GPIO_InitStruct.Speed = GPIO_SPEED_FREQ_LOW;
 1605              		.loc 1 602 5 is_stmt 1 view .LVU466
 602:Src/stm32f7xx_hal_msp.c ****     GPIO_InitStruct.Speed = GPIO_SPEED_FREQ_LOW;
 1606              		.loc 1 602 26 is_stmt 0 view .LVU467
 1607 00ce 0995     		str	r5, [sp, #36]
 603:Src/stm32f7xx_hal_msp.c ****     GPIO_InitStruct.Alternate = GPIO_AF2_TIM3;
 1608              		.loc 1 603 5 is_stmt 1 view .LVU468
 603:Src/stm32f7xx_hal_msp.c ****     GPIO_InitStruct.Alternate = GPIO_AF2_TIM3;
 1609              		.loc 1 603 27 is_stmt 0 view .LVU469
 1610 00d0 0A95     		str	r5, [sp, #40]
 604:Src/stm32f7xx_hal_msp.c ****     HAL_GPIO_Init(LED_ERR_GPIO_Port, &GPIO_InitStruct);
 1611              		.loc 1 604 5 is_stmt 1 view .LVU470
 604:Src/stm32f7xx_hal_msp.c ****     HAL_GPIO_Init(LED_ERR_GPIO_Port, &GPIO_InitStruct);
 1612              		.loc 1 604 31 is_stmt 0 view .LVU471
 1613 00d2 0B94     		str	r4, [sp, #44]
 605:Src/stm32f7xx_hal_msp.c **** 
 1614              		.loc 1 605 5 is_stmt 1 view .LVU472
 1615 00d4 07A9     		add	r1, sp, #28
 1616 00d6 2A48     		ldr	r0, .L97+24
 1617 00d8 FFF7FEFF 		bl	HAL_GPIO_Init
 1618              	.LVL71:
 1619 00dc A6E7     		b	.L87
 1620              	.LVL72:
 1621              	.L95:
 617:Src/stm32f7xx_hal_msp.c ****     __HAL_RCC_GPIOB_CLK_ENABLE();
 1622              		.loc 1 617 5 view .LVU473
 1623              	.LBB29:
 617:Src/stm32f7xx_hal_msp.c ****     __HAL_RCC_GPIOB_CLK_ENABLE();
 1624              		.loc 1 617 5 view .LVU474
 617:Src/stm32f7xx_hal_msp.c ****     __HAL_RCC_GPIOB_CLK_ENABLE();
 1625              		.loc 1 617 5 view .LVU475
 1626 00de 274B     		ldr	r3, .L97+20
 1627 00e0 1A6B     		ldr	r2, [r3, #48]
 1628 00e2 42F00802 		orr	r2, r2, #8
 1629 00e6 1A63     		str	r2, [r3, #48]
 617:Src/stm32f7xx_hal_msp.c ****     __HAL_RCC_GPIOB_CLK_ENABLE();
 1630              		.loc 1 617 5 view .LVU476
 1631 00e8 1A6B     		ldr	r2, [r3, #48]
 1632 00ea 02F00802 		and	r2, r2, #8
 1633 00ee 0492     		str	r2, [sp, #16]
 617:Src/stm32f7xx_hal_msp.c ****     __HAL_RCC_GPIOB_CLK_ENABLE();
 1634              		.loc 1 617 5 view .LVU477
 1635 00f0 049A     		ldr	r2, [sp, #16]
 1636              	.LBE29:
ARM GAS  /tmp/cczsEcHh.s 			page 47


 617:Src/stm32f7xx_hal_msp.c ****     __HAL_RCC_GPIOB_CLK_ENABLE();
 1637              		.loc 1 617 5 view .LVU478
 618:Src/stm32f7xx_hal_msp.c ****     /**TIM4 GPIO Configuration    
 1638              		.loc 1 618 5 view .LVU479
 1639              	.LBB30:
 618:Src/stm32f7xx_hal_msp.c ****     /**TIM4 GPIO Configuration    
 1640              		.loc 1 618 5 view .LVU480
 618:Src/stm32f7xx_hal_msp.c ****     /**TIM4 GPIO Configuration    
 1641              		.loc 1 618 5 view .LVU481
 1642 00f2 1A6B     		ldr	r2, [r3, #48]
 1643 00f4 42F00202 		orr	r2, r2, #2
 1644 00f8 1A63     		str	r2, [r3, #48]
 618:Src/stm32f7xx_hal_msp.c ****     /**TIM4 GPIO Configuration    
 1645              		.loc 1 618 5 view .LVU482
 1646 00fa 1B6B     		ldr	r3, [r3, #48]
 1647 00fc 03F00203 		and	r3, r3, #2
 1648 0100 0593     		str	r3, [sp, #20]
 618:Src/stm32f7xx_hal_msp.c ****     /**TIM4 GPIO Configuration    
 1649              		.loc 1 618 5 view .LVU483
 1650 0102 059B     		ldr	r3, [sp, #20]
 1651              	.LBE30:
 618:Src/stm32f7xx_hal_msp.c ****     /**TIM4 GPIO Configuration    
 1652              		.loc 1 618 5 view .LVU484
 625:Src/stm32f7xx_hal_msp.c ****     GPIO_InitStruct.Mode = GPIO_MODE_AF_PP;
 1653              		.loc 1 625 5 view .LVU485
 625:Src/stm32f7xx_hal_msp.c ****     GPIO_InitStruct.Mode = GPIO_MODE_AF_PP;
 1654              		.loc 1 625 25 is_stmt 0 view .LVU486
 1655 0104 4FF44053 		mov	r3, #12288
 1656 0108 0793     		str	r3, [sp, #28]
 626:Src/stm32f7xx_hal_msp.c ****     GPIO_InitStruct.Pull = GPIO_NOPULL;
 1657              		.loc 1 626 5 is_stmt 1 view .LVU487
 626:Src/stm32f7xx_hal_msp.c ****     GPIO_InitStruct.Pull = GPIO_NOPULL;
 1658              		.loc 1 626 26 is_stmt 0 view .LVU488
 1659 010a 0224     		movs	r4, #2
 1660 010c 0894     		str	r4, [sp, #32]
 627:Src/stm32f7xx_hal_msp.c ****     GPIO_InitStruct.Speed = GPIO_SPEED_FREQ_LOW;
 1661              		.loc 1 627 5 is_stmt 1 view .LVU489
 627:Src/stm32f7xx_hal_msp.c ****     GPIO_InitStruct.Speed = GPIO_SPEED_FREQ_LOW;
 1662              		.loc 1 627 26 is_stmt 0 view .LVU490
 1663 010e 0025     		movs	r5, #0
 1664 0110 0995     		str	r5, [sp, #36]
 628:Src/stm32f7xx_hal_msp.c ****     GPIO_InitStruct.Alternate = GPIO_AF2_TIM4;
 1665              		.loc 1 628 5 is_stmt 1 view .LVU491
 628:Src/stm32f7xx_hal_msp.c ****     GPIO_InitStruct.Alternate = GPIO_AF2_TIM4;
 1666              		.loc 1 628 27 is_stmt 0 view .LVU492
 1667 0112 0A95     		str	r5, [sp, #40]
 629:Src/stm32f7xx_hal_msp.c ****     HAL_GPIO_Init(GPIOD, &GPIO_InitStruct);
 1668              		.loc 1 629 5 is_stmt 1 view .LVU493
 629:Src/stm32f7xx_hal_msp.c ****     HAL_GPIO_Init(GPIOD, &GPIO_InitStruct);
 1669              		.loc 1 629 31 is_stmt 0 view .LVU494
 1670 0114 0B94     		str	r4, [sp, #44]
 630:Src/stm32f7xx_hal_msp.c **** 
 1671              		.loc 1 630 5 is_stmt 1 view .LVU495
 1672 0116 07A9     		add	r1, sp, #28
 1673 0118 1A48     		ldr	r0, .L97+28
 1674              	.LVL73:
 630:Src/stm32f7xx_hal_msp.c **** 
ARM GAS  /tmp/cczsEcHh.s 			page 48


 1675              		.loc 1 630 5 is_stmt 0 view .LVU496
 1676 011a FFF7FEFF 		bl	HAL_GPIO_Init
 1677              	.LVL74:
 632:Src/stm32f7xx_hal_msp.c ****     GPIO_InitStruct.Mode = GPIO_MODE_AF_PP;
 1678              		.loc 1 632 5 is_stmt 1 view .LVU497
 632:Src/stm32f7xx_hal_msp.c ****     GPIO_InitStruct.Mode = GPIO_MODE_AF_PP;
 1679              		.loc 1 632 25 is_stmt 0 view .LVU498
 1680 011e 4FF44073 		mov	r3, #768
 1681 0122 0793     		str	r3, [sp, #28]
 633:Src/stm32f7xx_hal_msp.c ****     GPIO_InitStruct.Pull = GPIO_NOPULL;
 1682              		.loc 1 633 5 is_stmt 1 view .LVU499
 633:Src/stm32f7xx_hal_msp.c ****     GPIO_InitStruct.Pull = GPIO_NOPULL;
 1683              		.loc 1 633 26 is_stmt 0 view .LVU500
 1684 0124 0894     		str	r4, [sp, #32]
 634:Src/stm32f7xx_hal_msp.c ****     GPIO_InitStruct.Speed = GPIO_SPEED_FREQ_LOW;
 1685              		.loc 1 634 5 is_stmt 1 view .LVU501
 634:Src/stm32f7xx_hal_msp.c ****     GPIO_InitStruct.Speed = GPIO_SPEED_FREQ_LOW;
 1686              		.loc 1 634 26 is_stmt 0 view .LVU502
 1687 0126 0995     		str	r5, [sp, #36]
 635:Src/stm32f7xx_hal_msp.c ****     GPIO_InitStruct.Alternate = GPIO_AF2_TIM4;
 1688              		.loc 1 635 5 is_stmt 1 view .LVU503
 635:Src/stm32f7xx_hal_msp.c ****     GPIO_InitStruct.Alternate = GPIO_AF2_TIM4;
 1689              		.loc 1 635 27 is_stmt 0 view .LVU504
 1690 0128 0A95     		str	r5, [sp, #40]
 636:Src/stm32f7xx_hal_msp.c ****     HAL_GPIO_Init(GPIOB, &GPIO_InitStruct);
 1691              		.loc 1 636 5 is_stmt 1 view .LVU505
 636:Src/stm32f7xx_hal_msp.c ****     HAL_GPIO_Init(GPIOB, &GPIO_InitStruct);
 1692              		.loc 1 636 31 is_stmt 0 view .LVU506
 1693 012a 0B94     		str	r4, [sp, #44]
 637:Src/stm32f7xx_hal_msp.c **** 
 1694              		.loc 1 637 5 is_stmt 1 view .LVU507
 1695 012c 07A9     		add	r1, sp, #28
 1696 012e 1248     		ldr	r0, .L97+16
 1697 0130 FFF7FEFF 		bl	HAL_GPIO_Init
 1698              	.LVL75:
 1699 0134 7AE7     		b	.L87
 1700              	.LVL76:
 1701              	.L96:
 649:Src/stm32f7xx_hal_msp.c ****     /**TIM8 GPIO Configuration    
 1702              		.loc 1 649 5 view .LVU508
 1703              	.LBB31:
 649:Src/stm32f7xx_hal_msp.c ****     /**TIM8 GPIO Configuration    
 1704              		.loc 1 649 5 view .LVU509
 649:Src/stm32f7xx_hal_msp.c ****     /**TIM8 GPIO Configuration    
 1705              		.loc 1 649 5 view .LVU510
 1706 0136 114B     		ldr	r3, .L97+20
 1707 0138 1A6B     		ldr	r2, [r3, #48]
 1708 013a 42F00402 		orr	r2, r2, #4
 1709 013e 1A63     		str	r2, [r3, #48]
 649:Src/stm32f7xx_hal_msp.c ****     /**TIM8 GPIO Configuration    
 1710              		.loc 1 649 5 view .LVU511
 1711 0140 1B6B     		ldr	r3, [r3, #48]
 1712 0142 03F00403 		and	r3, r3, #4
 1713 0146 0693     		str	r3, [sp, #24]
 649:Src/stm32f7xx_hal_msp.c ****     /**TIM8 GPIO Configuration    
 1714              		.loc 1 649 5 view .LVU512
 1715 0148 069B     		ldr	r3, [sp, #24]
ARM GAS  /tmp/cczsEcHh.s 			page 49


 1716              	.LBE31:
 649:Src/stm32f7xx_hal_msp.c ****     /**TIM8 GPIO Configuration    
 1717              		.loc 1 649 5 view .LVU513
 653:Src/stm32f7xx_hal_msp.c ****     GPIO_InitStruct.Mode = GPIO_MODE_AF_PP;
 1718              		.loc 1 653 5 view .LVU514
 653:Src/stm32f7xx_hal_msp.c ****     GPIO_InitStruct.Mode = GPIO_MODE_AF_PP;
 1719              		.loc 1 653 25 is_stmt 0 view .LVU515
 1720 014a 4023     		movs	r3, #64
 1721 014c 0793     		str	r3, [sp, #28]
 654:Src/stm32f7xx_hal_msp.c ****     GPIO_InitStruct.Pull = GPIO_NOPULL;
 1722              		.loc 1 654 5 is_stmt 1 view .LVU516
 654:Src/stm32f7xx_hal_msp.c ****     GPIO_InitStruct.Pull = GPIO_NOPULL;
 1723              		.loc 1 654 26 is_stmt 0 view .LVU517
 1724 014e 0223     		movs	r3, #2
 1725 0150 0893     		str	r3, [sp, #32]
 655:Src/stm32f7xx_hal_msp.c ****     GPIO_InitStruct.Speed = GPIO_SPEED_FREQ_LOW;
 1726              		.loc 1 655 5 is_stmt 1 view .LVU518
 655:Src/stm32f7xx_hal_msp.c ****     GPIO_InitStruct.Speed = GPIO_SPEED_FREQ_LOW;
 1727              		.loc 1 655 26 is_stmt 0 view .LVU519
 1728 0152 0023     		movs	r3, #0
 1729 0154 0993     		str	r3, [sp, #36]
 656:Src/stm32f7xx_hal_msp.c ****     GPIO_InitStruct.Alternate = GPIO_AF3_TIM8;
 1730              		.loc 1 656 5 is_stmt 1 view .LVU520
 656:Src/stm32f7xx_hal_msp.c ****     GPIO_InitStruct.Alternate = GPIO_AF3_TIM8;
 1731              		.loc 1 656 27 is_stmt 0 view .LVU521
 1732 0156 0A93     		str	r3, [sp, #40]
 657:Src/stm32f7xx_hal_msp.c ****     HAL_GPIO_Init(BUZZER_GPIO_Port, &GPIO_InitStruct);
 1733              		.loc 1 657 5 is_stmt 1 view .LVU522
 657:Src/stm32f7xx_hal_msp.c ****     HAL_GPIO_Init(BUZZER_GPIO_Port, &GPIO_InitStruct);
 1734              		.loc 1 657 31 is_stmt 0 view .LVU523
 1735 0158 0323     		movs	r3, #3
 1736 015a 0B93     		str	r3, [sp, #44]
 658:Src/stm32f7xx_hal_msp.c **** 
 1737              		.loc 1 658 5 is_stmt 1 view .LVU524
 1738 015c 07A9     		add	r1, sp, #28
 1739 015e 0848     		ldr	r0, .L97+24
 1740              	.LVL77:
 658:Src/stm32f7xx_hal_msp.c **** 
 1741              		.loc 1 658 5 is_stmt 0 view .LVU525
 1742 0160 FFF7FEFF 		bl	HAL_GPIO_Init
 1743              	.LVL78:
 1744              		.loc 1 665 1 view .LVU526
 1745 0164 62E7     		b	.L87
 1746              	.L98:
 1747 0166 00BF     		.align	2
 1748              	.L97:
 1749 0168 00040040 		.word	1073742848
 1750 016c 00080040 		.word	1073743872
 1751 0170 00040140 		.word	1073808384
 1752 0174 00000240 		.word	1073872896
 1753 0178 00040240 		.word	1073873920
 1754 017c 00380240 		.word	1073887232
 1755 0180 00080240 		.word	1073874944
 1756 0184 000C0240 		.word	1073875968
 1757              		.cfi_endproc
 1758              	.LFE152:
 1760              		.section	.text.HAL_TIM_PWM_MspDeInit,"ax",%progbits
ARM GAS  /tmp/cczsEcHh.s 			page 50


 1761              		.align	1
 1762              		.global	HAL_TIM_PWM_MspDeInit
 1763              		.syntax unified
 1764              		.thumb
 1765              		.thumb_func
 1766              		.fpu fpv5-d16
 1768              	HAL_TIM_PWM_MspDeInit:
 1769              	.LVL79:
 1770              	.LFB153:
 666:Src/stm32f7xx_hal_msp.c **** /**
 667:Src/stm32f7xx_hal_msp.c **** * @brief TIM_PWM MSP De-Initialization
 668:Src/stm32f7xx_hal_msp.c **** * This function freeze the hardware resources used in this example
 669:Src/stm32f7xx_hal_msp.c **** * @param htim_pwm: TIM_PWM handle pointer
 670:Src/stm32f7xx_hal_msp.c **** * @retval None
 671:Src/stm32f7xx_hal_msp.c **** */
 672:Src/stm32f7xx_hal_msp.c **** void HAL_TIM_PWM_MspDeInit(TIM_HandleTypeDef* htim_pwm)
 673:Src/stm32f7xx_hal_msp.c **** {
 1771              		.loc 1 673 1 is_stmt 1 view -0
 1772              		.cfi_startproc
 1773              		@ args = 0, pretend = 0, frame = 0
 1774              		@ frame_needed = 0, uses_anonymous_args = 0
 1775              		@ link register save eliminated.
 674:Src/stm32f7xx_hal_msp.c ****   if(htim_pwm->Instance==TIM2)
 1776              		.loc 1 674 3 view .LVU528
 1777              		.loc 1 674 14 is_stmt 0 view .LVU529
 1778 0000 0368     		ldr	r3, [r0]
 1779              		.loc 1 674 5 view .LVU530
 1780 0002 B3F1804F 		cmp	r3, #1073741824
 1781 0006 09D0     		beq	.L104
 675:Src/stm32f7xx_hal_msp.c ****   {
 676:Src/stm32f7xx_hal_msp.c ****   /* USER CODE BEGIN TIM2_MspDeInit 0 */
 677:Src/stm32f7xx_hal_msp.c **** 
 678:Src/stm32f7xx_hal_msp.c ****   /* USER CODE END TIM2_MspDeInit 0 */
 679:Src/stm32f7xx_hal_msp.c ****     /* Peripheral clock disable */
 680:Src/stm32f7xx_hal_msp.c ****     __HAL_RCC_TIM2_CLK_DISABLE();
 681:Src/stm32f7xx_hal_msp.c ****   /* USER CODE BEGIN TIM2_MspDeInit 1 */
 682:Src/stm32f7xx_hal_msp.c **** 
 683:Src/stm32f7xx_hal_msp.c ****   /* USER CODE END TIM2_MspDeInit 1 */
 684:Src/stm32f7xx_hal_msp.c ****   }
 685:Src/stm32f7xx_hal_msp.c ****   else if(htim_pwm->Instance==TIM3)
 1782              		.loc 1 685 8 is_stmt 1 view .LVU531
 1783              		.loc 1 685 10 is_stmt 0 view .LVU532
 1784 0008 124A     		ldr	r2, .L108
 1785 000a 9342     		cmp	r3, r2
 1786 000c 0CD0     		beq	.L105
 686:Src/stm32f7xx_hal_msp.c ****   {
 687:Src/stm32f7xx_hal_msp.c ****   /* USER CODE BEGIN TIM3_MspDeInit 0 */
 688:Src/stm32f7xx_hal_msp.c **** 
 689:Src/stm32f7xx_hal_msp.c ****   /* USER CODE END TIM3_MspDeInit 0 */
 690:Src/stm32f7xx_hal_msp.c ****     /* Peripheral clock disable */
 691:Src/stm32f7xx_hal_msp.c ****     __HAL_RCC_TIM3_CLK_DISABLE();
 692:Src/stm32f7xx_hal_msp.c ****   /* USER CODE BEGIN TIM3_MspDeInit 1 */
 693:Src/stm32f7xx_hal_msp.c **** 
 694:Src/stm32f7xx_hal_msp.c ****   /* USER CODE END TIM3_MspDeInit 1 */
 695:Src/stm32f7xx_hal_msp.c ****   }
 696:Src/stm32f7xx_hal_msp.c ****   else if(htim_pwm->Instance==TIM4)
 1787              		.loc 1 696 8 is_stmt 1 view .LVU533
ARM GAS  /tmp/cczsEcHh.s 			page 51


 1788              		.loc 1 696 10 is_stmt 0 view .LVU534
 1789 000e 124A     		ldr	r2, .L108+4
 1790 0010 9342     		cmp	r3, r2
 1791 0012 10D0     		beq	.L106
 697:Src/stm32f7xx_hal_msp.c ****   {
 698:Src/stm32f7xx_hal_msp.c ****   /* USER CODE BEGIN TIM4_MspDeInit 0 */
 699:Src/stm32f7xx_hal_msp.c **** 
 700:Src/stm32f7xx_hal_msp.c ****   /* USER CODE END TIM4_MspDeInit 0 */
 701:Src/stm32f7xx_hal_msp.c ****     /* Peripheral clock disable */
 702:Src/stm32f7xx_hal_msp.c ****     __HAL_RCC_TIM4_CLK_DISABLE();
 703:Src/stm32f7xx_hal_msp.c ****   /* USER CODE BEGIN TIM4_MspDeInit 1 */
 704:Src/stm32f7xx_hal_msp.c **** 
 705:Src/stm32f7xx_hal_msp.c ****   /* USER CODE END TIM4_MspDeInit 1 */
 706:Src/stm32f7xx_hal_msp.c ****   }
 707:Src/stm32f7xx_hal_msp.c ****   else if(htim_pwm->Instance==TIM8)
 1792              		.loc 1 707 8 is_stmt 1 view .LVU535
 1793              		.loc 1 707 10 is_stmt 0 view .LVU536
 1794 0014 114A     		ldr	r2, .L108+8
 1795 0016 9342     		cmp	r3, r2
 1796 0018 14D0     		beq	.L107
 1797              	.L99:
 708:Src/stm32f7xx_hal_msp.c ****   {
 709:Src/stm32f7xx_hal_msp.c ****   /* USER CODE BEGIN TIM8_MspDeInit 0 */
 710:Src/stm32f7xx_hal_msp.c **** 
 711:Src/stm32f7xx_hal_msp.c ****   /* USER CODE END TIM8_MspDeInit 0 */
 712:Src/stm32f7xx_hal_msp.c ****     /* Peripheral clock disable */
 713:Src/stm32f7xx_hal_msp.c ****     __HAL_RCC_TIM8_CLK_DISABLE();
 714:Src/stm32f7xx_hal_msp.c ****   /* USER CODE BEGIN TIM8_MspDeInit 1 */
 715:Src/stm32f7xx_hal_msp.c **** 
 716:Src/stm32f7xx_hal_msp.c ****   /* USER CODE END TIM8_MspDeInit 1 */
 717:Src/stm32f7xx_hal_msp.c ****   }
 718:Src/stm32f7xx_hal_msp.c **** 
 719:Src/stm32f7xx_hal_msp.c **** }
 1798              		.loc 1 719 1 view .LVU537
 1799 001a 7047     		bx	lr
 1800              	.L104:
 680:Src/stm32f7xx_hal_msp.c ****   /* USER CODE BEGIN TIM2_MspDeInit 1 */
 1801              		.loc 1 680 5 is_stmt 1 view .LVU538
 1802 001c 104A     		ldr	r2, .L108+12
 1803 001e 136C     		ldr	r3, [r2, #64]
 1804 0020 23F00103 		bic	r3, r3, #1
 1805 0024 1364     		str	r3, [r2, #64]
 1806 0026 7047     		bx	lr
 1807              	.L105:
 691:Src/stm32f7xx_hal_msp.c ****   /* USER CODE BEGIN TIM3_MspDeInit 1 */
 1808              		.loc 1 691 5 view .LVU539
 1809 0028 02F50D32 		add	r2, r2, #144384
 1810 002c 136C     		ldr	r3, [r2, #64]
 1811 002e 23F00203 		bic	r3, r3, #2
 1812 0032 1364     		str	r3, [r2, #64]
 1813 0034 7047     		bx	lr
 1814              	.L106:
 702:Src/stm32f7xx_hal_msp.c ****   /* USER CODE BEGIN TIM4_MspDeInit 1 */
 1815              		.loc 1 702 5 view .LVU540
 1816 0036 02F50C32 		add	r2, r2, #143360
 1817 003a 136C     		ldr	r3, [r2, #64]
 1818 003c 23F00403 		bic	r3, r3, #4
ARM GAS  /tmp/cczsEcHh.s 			page 52


 1819 0040 1364     		str	r3, [r2, #64]
 1820 0042 7047     		bx	lr
 1821              	.L107:
 713:Src/stm32f7xx_hal_msp.c ****   /* USER CODE BEGIN TIM8_MspDeInit 1 */
 1822              		.loc 1 713 5 view .LVU541
 1823 0044 02F59A32 		add	r2, r2, #78848
 1824 0048 536C     		ldr	r3, [r2, #68]
 1825 004a 23F00203 		bic	r3, r3, #2
 1826 004e 5364     		str	r3, [r2, #68]
 1827              		.loc 1 719 1 is_stmt 0 view .LVU542
 1828 0050 E3E7     		b	.L99
 1829              	.L109:
 1830 0052 00BF     		.align	2
 1831              	.L108:
 1832 0054 00040040 		.word	1073742848
 1833 0058 00080040 		.word	1073743872
 1834 005c 00040140 		.word	1073808384
 1835 0060 00380240 		.word	1073887232
 1836              		.cfi_endproc
 1837              	.LFE153:
 1839              		.section	.text.HAL_TIM_Base_MspDeInit,"ax",%progbits
 1840              		.align	1
 1841              		.global	HAL_TIM_Base_MspDeInit
 1842              		.syntax unified
 1843              		.thumb
 1844              		.thumb_func
 1845              		.fpu fpv5-d16
 1847              	HAL_TIM_Base_MspDeInit:
 1848              	.LVL80:
 1849              	.LFB154:
 720:Src/stm32f7xx_hal_msp.c **** 
 721:Src/stm32f7xx_hal_msp.c **** /**
 722:Src/stm32f7xx_hal_msp.c **** * @brief TIM_Base MSP De-Initialization
 723:Src/stm32f7xx_hal_msp.c **** * This function freeze the hardware resources used in this example
 724:Src/stm32f7xx_hal_msp.c **** * @param htim_base: TIM_Base handle pointer
 725:Src/stm32f7xx_hal_msp.c **** * @retval None
 726:Src/stm32f7xx_hal_msp.c **** */
 727:Src/stm32f7xx_hal_msp.c **** void HAL_TIM_Base_MspDeInit(TIM_HandleTypeDef* htim_base)
 728:Src/stm32f7xx_hal_msp.c **** {
 1850              		.loc 1 728 1 is_stmt 1 view -0
 1851              		.cfi_startproc
 1852              		@ args = 0, pretend = 0, frame = 0
 1853              		@ frame_needed = 0, uses_anonymous_args = 0
 1854              		.loc 1 728 1 is_stmt 0 view .LVU544
 1855 0000 08B5     		push	{r3, lr}
 1856              	.LCFI32:
 1857              		.cfi_def_cfa_offset 8
 1858              		.cfi_offset 3, -8
 1859              		.cfi_offset 14, -4
 729:Src/stm32f7xx_hal_msp.c ****   if(htim_base->Instance==TIM5)
 1860              		.loc 1 729 3 is_stmt 1 view .LVU545
 1861              		.loc 1 729 15 is_stmt 0 view .LVU546
 1862 0002 0268     		ldr	r2, [r0]
 1863              		.loc 1 729 5 view .LVU547
 1864 0004 064B     		ldr	r3, .L114
 1865 0006 9A42     		cmp	r2, r3
 1866 0008 00D0     		beq	.L113
ARM GAS  /tmp/cczsEcHh.s 			page 53


 1867              	.LVL81:
 1868              	.L110:
 730:Src/stm32f7xx_hal_msp.c ****   {
 731:Src/stm32f7xx_hal_msp.c ****   /* USER CODE BEGIN TIM5_MspDeInit 0 */
 732:Src/stm32f7xx_hal_msp.c **** 
 733:Src/stm32f7xx_hal_msp.c ****   /* USER CODE END TIM5_MspDeInit 0 */
 734:Src/stm32f7xx_hal_msp.c ****     /* Peripheral clock disable */
 735:Src/stm32f7xx_hal_msp.c ****     __HAL_RCC_TIM5_CLK_DISABLE();
 736:Src/stm32f7xx_hal_msp.c **** 
 737:Src/stm32f7xx_hal_msp.c ****     /* TIM5 interrupt DeInit */
 738:Src/stm32f7xx_hal_msp.c ****     HAL_NVIC_DisableIRQ(TIM5_IRQn);
 739:Src/stm32f7xx_hal_msp.c ****   /* USER CODE BEGIN TIM5_MspDeInit 1 */
 740:Src/stm32f7xx_hal_msp.c **** 
 741:Src/stm32f7xx_hal_msp.c ****   /* USER CODE END TIM5_MspDeInit 1 */
 742:Src/stm32f7xx_hal_msp.c ****   }
 743:Src/stm32f7xx_hal_msp.c **** 
 744:Src/stm32f7xx_hal_msp.c **** }
 1869              		.loc 1 744 1 view .LVU548
 1870 000a 08BD     		pop	{r3, pc}
 1871              	.LVL82:
 1872              	.L113:
 735:Src/stm32f7xx_hal_msp.c **** 
 1873              		.loc 1 735 5 is_stmt 1 view .LVU549
 1874 000c 054A     		ldr	r2, .L114+4
 1875 000e 136C     		ldr	r3, [r2, #64]
 1876 0010 23F00803 		bic	r3, r3, #8
 1877 0014 1364     		str	r3, [r2, #64]
 738:Src/stm32f7xx_hal_msp.c ****   /* USER CODE BEGIN TIM5_MspDeInit 1 */
 1878              		.loc 1 738 5 view .LVU550
 1879 0016 3220     		movs	r0, #50
 1880              	.LVL83:
 738:Src/stm32f7xx_hal_msp.c ****   /* USER CODE BEGIN TIM5_MspDeInit 1 */
 1881              		.loc 1 738 5 is_stmt 0 view .LVU551
 1882 0018 FFF7FEFF 		bl	HAL_NVIC_DisableIRQ
 1883              	.LVL84:
 1884              		.loc 1 744 1 view .LVU552
 1885 001c F5E7     		b	.L110
 1886              	.L115:
 1887 001e 00BF     		.align	2
 1888              	.L114:
 1889 0020 000C0040 		.word	1073744896
 1890 0024 00380240 		.word	1073887232
 1891              		.cfi_endproc
 1892              	.LFE154:
 1894              		.section	.text.HAL_UART_MspInit,"ax",%progbits
 1895              		.align	1
 1896              		.global	HAL_UART_MspInit
 1897              		.syntax unified
 1898              		.thumb
 1899              		.thumb_func
 1900              		.fpu fpv5-d16
 1902              	HAL_UART_MspInit:
 1903              	.LVL85:
 1904              	.LFB155:
 745:Src/stm32f7xx_hal_msp.c **** 
 746:Src/stm32f7xx_hal_msp.c **** /**
 747:Src/stm32f7xx_hal_msp.c **** * @brief UART MSP Initialization
ARM GAS  /tmp/cczsEcHh.s 			page 54


 748:Src/stm32f7xx_hal_msp.c **** * This function configures the hardware resources used in this example
 749:Src/stm32f7xx_hal_msp.c **** * @param huart: UART handle pointer
 750:Src/stm32f7xx_hal_msp.c **** * @retval None
 751:Src/stm32f7xx_hal_msp.c **** */
 752:Src/stm32f7xx_hal_msp.c **** void HAL_UART_MspInit(UART_HandleTypeDef* huart)
 753:Src/stm32f7xx_hal_msp.c **** {
 1905              		.loc 1 753 1 is_stmt 1 view -0
 1906              		.cfi_startproc
 1907              		@ args = 0, pretend = 0, frame = 32
 1908              		@ frame_needed = 0, uses_anonymous_args = 0
 1909              		.loc 1 753 1 is_stmt 0 view .LVU554
 1910 0000 00B5     		push	{lr}
 1911              	.LCFI33:
 1912              		.cfi_def_cfa_offset 4
 1913              		.cfi_offset 14, -4
 1914 0002 89B0     		sub	sp, sp, #36
 1915              	.LCFI34:
 1916              		.cfi_def_cfa_offset 40
 754:Src/stm32f7xx_hal_msp.c ****   GPIO_InitTypeDef GPIO_InitStruct = {0};
 1917              		.loc 1 754 3 is_stmt 1 view .LVU555
 1918              		.loc 1 754 20 is_stmt 0 view .LVU556
 1919 0004 0023     		movs	r3, #0
 1920 0006 0393     		str	r3, [sp, #12]
 1921 0008 0493     		str	r3, [sp, #16]
 1922 000a 0593     		str	r3, [sp, #20]
 1923 000c 0693     		str	r3, [sp, #24]
 1924 000e 0793     		str	r3, [sp, #28]
 755:Src/stm32f7xx_hal_msp.c ****   if(huart->Instance==UART4)
 1925              		.loc 1 755 3 is_stmt 1 view .LVU557
 1926              		.loc 1 755 11 is_stmt 0 view .LVU558
 1927 0010 0268     		ldr	r2, [r0]
 1928              		.loc 1 755 5 view .LVU559
 1929 0012 154B     		ldr	r3, .L120
 1930 0014 9A42     		cmp	r2, r3
 1931 0016 02D0     		beq	.L119
 1932              	.LVL86:
 1933              	.L116:
 756:Src/stm32f7xx_hal_msp.c ****   {
 757:Src/stm32f7xx_hal_msp.c ****   /* USER CODE BEGIN UART4_MspInit 0 */
 758:Src/stm32f7xx_hal_msp.c **** 
 759:Src/stm32f7xx_hal_msp.c ****   /* USER CODE END UART4_MspInit 0 */
 760:Src/stm32f7xx_hal_msp.c ****     /* Peripheral clock enable */
 761:Src/stm32f7xx_hal_msp.c ****     __HAL_RCC_UART4_CLK_ENABLE();
 762:Src/stm32f7xx_hal_msp.c ****   
 763:Src/stm32f7xx_hal_msp.c ****     __HAL_RCC_GPIOA_CLK_ENABLE();
 764:Src/stm32f7xx_hal_msp.c ****     /**UART4 GPIO Configuration    
 765:Src/stm32f7xx_hal_msp.c ****     PA11     ------> UART4_RX
 766:Src/stm32f7xx_hal_msp.c ****     PA12     ------> UART4_TX 
 767:Src/stm32f7xx_hal_msp.c ****     */
 768:Src/stm32f7xx_hal_msp.c ****     GPIO_InitStruct.Pin = GPIO_PIN_11|GPIO_PIN_12;
 769:Src/stm32f7xx_hal_msp.c ****     GPIO_InitStruct.Mode = GPIO_MODE_AF_PP;
 770:Src/stm32f7xx_hal_msp.c ****     GPIO_InitStruct.Pull = GPIO_NOPULL;
 771:Src/stm32f7xx_hal_msp.c ****     GPIO_InitStruct.Speed = GPIO_SPEED_FREQ_VERY_HIGH;
 772:Src/stm32f7xx_hal_msp.c ****     GPIO_InitStruct.Alternate = GPIO_AF6_UART4;
 773:Src/stm32f7xx_hal_msp.c ****     HAL_GPIO_Init(GPIOA, &GPIO_InitStruct);
 774:Src/stm32f7xx_hal_msp.c **** 
 775:Src/stm32f7xx_hal_msp.c ****   /* USER CODE BEGIN UART4_MspInit 1 */
ARM GAS  /tmp/cczsEcHh.s 			page 55


 776:Src/stm32f7xx_hal_msp.c **** 
 777:Src/stm32f7xx_hal_msp.c ****   /* USER CODE END UART4_MspInit 1 */
 778:Src/stm32f7xx_hal_msp.c ****   }
 779:Src/stm32f7xx_hal_msp.c **** 
 780:Src/stm32f7xx_hal_msp.c **** }
 1934              		.loc 1 780 1 view .LVU560
 1935 0018 09B0     		add	sp, sp, #36
 1936              	.LCFI35:
 1937              		.cfi_remember_state
 1938              		.cfi_def_cfa_offset 4
 1939              		@ sp needed
 1940 001a 5DF804FB 		ldr	pc, [sp], #4
 1941              	.LVL87:
 1942              	.L119:
 1943              	.LCFI36:
 1944              		.cfi_restore_state
 761:Src/stm32f7xx_hal_msp.c ****   
 1945              		.loc 1 761 5 is_stmt 1 view .LVU561
 1946              	.LBB32:
 761:Src/stm32f7xx_hal_msp.c ****   
 1947              		.loc 1 761 5 view .LVU562
 761:Src/stm32f7xx_hal_msp.c ****   
 1948              		.loc 1 761 5 view .LVU563
 1949 001e 03F5F633 		add	r3, r3, #125952
 1950 0022 1A6C     		ldr	r2, [r3, #64]
 1951 0024 42F40022 		orr	r2, r2, #524288
 1952 0028 1A64     		str	r2, [r3, #64]
 761:Src/stm32f7xx_hal_msp.c ****   
 1953              		.loc 1 761 5 view .LVU564
 1954 002a 1A6C     		ldr	r2, [r3, #64]
 1955 002c 02F40022 		and	r2, r2, #524288
 1956 0030 0192     		str	r2, [sp, #4]
 761:Src/stm32f7xx_hal_msp.c ****   
 1957              		.loc 1 761 5 view .LVU565
 1958 0032 019A     		ldr	r2, [sp, #4]
 1959              	.LBE32:
 761:Src/stm32f7xx_hal_msp.c ****   
 1960              		.loc 1 761 5 view .LVU566
 763:Src/stm32f7xx_hal_msp.c ****     /**UART4 GPIO Configuration    
 1961              		.loc 1 763 5 view .LVU567
 1962              	.LBB33:
 763:Src/stm32f7xx_hal_msp.c ****     /**UART4 GPIO Configuration    
 1963              		.loc 1 763 5 view .LVU568
 763:Src/stm32f7xx_hal_msp.c ****     /**UART4 GPIO Configuration    
 1964              		.loc 1 763 5 view .LVU569
 1965 0034 1A6B     		ldr	r2, [r3, #48]
 1966 0036 42F00102 		orr	r2, r2, #1
 1967 003a 1A63     		str	r2, [r3, #48]
 763:Src/stm32f7xx_hal_msp.c ****     /**UART4 GPIO Configuration    
 1968              		.loc 1 763 5 view .LVU570
 1969 003c 1B6B     		ldr	r3, [r3, #48]
 1970 003e 03F00103 		and	r3, r3, #1
 1971 0042 0293     		str	r3, [sp, #8]
 763:Src/stm32f7xx_hal_msp.c ****     /**UART4 GPIO Configuration    
 1972              		.loc 1 763 5 view .LVU571
 1973 0044 029B     		ldr	r3, [sp, #8]
 1974              	.LBE33:
ARM GAS  /tmp/cczsEcHh.s 			page 56


 763:Src/stm32f7xx_hal_msp.c ****     /**UART4 GPIO Configuration    
 1975              		.loc 1 763 5 view .LVU572
 768:Src/stm32f7xx_hal_msp.c ****     GPIO_InitStruct.Mode = GPIO_MODE_AF_PP;
 1976              		.loc 1 768 5 view .LVU573
 768:Src/stm32f7xx_hal_msp.c ****     GPIO_InitStruct.Mode = GPIO_MODE_AF_PP;
 1977              		.loc 1 768 25 is_stmt 0 view .LVU574
 1978 0046 4FF4C053 		mov	r3, #6144
 1979 004a 0393     		str	r3, [sp, #12]
 769:Src/stm32f7xx_hal_msp.c ****     GPIO_InitStruct.Pull = GPIO_NOPULL;
 1980              		.loc 1 769 5 is_stmt 1 view .LVU575
 769:Src/stm32f7xx_hal_msp.c ****     GPIO_InitStruct.Pull = GPIO_NOPULL;
 1981              		.loc 1 769 26 is_stmt 0 view .LVU576
 1982 004c 0223     		movs	r3, #2
 1983 004e 0493     		str	r3, [sp, #16]
 770:Src/stm32f7xx_hal_msp.c ****     GPIO_InitStruct.Speed = GPIO_SPEED_FREQ_VERY_HIGH;
 1984              		.loc 1 770 5 is_stmt 1 view .LVU577
 770:Src/stm32f7xx_hal_msp.c ****     GPIO_InitStruct.Speed = GPIO_SPEED_FREQ_VERY_HIGH;
 1985              		.loc 1 770 26 is_stmt 0 view .LVU578
 1986 0050 0023     		movs	r3, #0
 1987 0052 0593     		str	r3, [sp, #20]
 771:Src/stm32f7xx_hal_msp.c ****     GPIO_InitStruct.Alternate = GPIO_AF6_UART4;
 1988              		.loc 1 771 5 is_stmt 1 view .LVU579
 771:Src/stm32f7xx_hal_msp.c ****     GPIO_InitStruct.Alternate = GPIO_AF6_UART4;
 1989              		.loc 1 771 27 is_stmt 0 view .LVU580
 1990 0054 0323     		movs	r3, #3
 1991 0056 0693     		str	r3, [sp, #24]
 772:Src/stm32f7xx_hal_msp.c ****     HAL_GPIO_Init(GPIOA, &GPIO_InitStruct);
 1992              		.loc 1 772 5 is_stmt 1 view .LVU581
 772:Src/stm32f7xx_hal_msp.c ****     HAL_GPIO_Init(GPIOA, &GPIO_InitStruct);
 1993              		.loc 1 772 31 is_stmt 0 view .LVU582
 1994 0058 0623     		movs	r3, #6
 1995 005a 0793     		str	r3, [sp, #28]
 773:Src/stm32f7xx_hal_msp.c **** 
 1996              		.loc 1 773 5 is_stmt 1 view .LVU583
 1997 005c 03A9     		add	r1, sp, #12
 1998 005e 0348     		ldr	r0, .L120+4
 1999              	.LVL88:
 773:Src/stm32f7xx_hal_msp.c **** 
 2000              		.loc 1 773 5 is_stmt 0 view .LVU584
 2001 0060 FFF7FEFF 		bl	HAL_GPIO_Init
 2002              	.LVL89:
 2003              		.loc 1 780 1 view .LVU585
 2004 0064 D8E7     		b	.L116
 2005              	.L121:
 2006 0066 00BF     		.align	2
 2007              	.L120:
 2008 0068 004C0040 		.word	1073761280
 2009 006c 00000240 		.word	1073872896
 2010              		.cfi_endproc
 2011              	.LFE155:
 2013              		.section	.text.HAL_UART_MspDeInit,"ax",%progbits
 2014              		.align	1
 2015              		.global	HAL_UART_MspDeInit
 2016              		.syntax unified
 2017              		.thumb
 2018              		.thumb_func
 2019              		.fpu fpv5-d16
ARM GAS  /tmp/cczsEcHh.s 			page 57


 2021              	HAL_UART_MspDeInit:
 2022              	.LVL90:
 2023              	.LFB156:
 781:Src/stm32f7xx_hal_msp.c **** 
 782:Src/stm32f7xx_hal_msp.c **** /**
 783:Src/stm32f7xx_hal_msp.c **** * @brief UART MSP De-Initialization
 784:Src/stm32f7xx_hal_msp.c **** * This function freeze the hardware resources used in this example
 785:Src/stm32f7xx_hal_msp.c **** * @param huart: UART handle pointer
 786:Src/stm32f7xx_hal_msp.c **** * @retval None
 787:Src/stm32f7xx_hal_msp.c **** */
 788:Src/stm32f7xx_hal_msp.c **** void HAL_UART_MspDeInit(UART_HandleTypeDef* huart)
 789:Src/stm32f7xx_hal_msp.c **** {
 2024              		.loc 1 789 1 is_stmt 1 view -0
 2025              		.cfi_startproc
 2026              		@ args = 0, pretend = 0, frame = 0
 2027              		@ frame_needed = 0, uses_anonymous_args = 0
 2028              		.loc 1 789 1 is_stmt 0 view .LVU587
 2029 0000 08B5     		push	{r3, lr}
 2030              	.LCFI37:
 2031              		.cfi_def_cfa_offset 8
 2032              		.cfi_offset 3, -8
 2033              		.cfi_offset 14, -4
 790:Src/stm32f7xx_hal_msp.c ****   if(huart->Instance==UART4)
 2034              		.loc 1 790 3 is_stmt 1 view .LVU588
 2035              		.loc 1 790 11 is_stmt 0 view .LVU589
 2036 0002 0268     		ldr	r2, [r0]
 2037              		.loc 1 790 5 view .LVU590
 2038 0004 074B     		ldr	r3, .L126
 2039 0006 9A42     		cmp	r2, r3
 2040 0008 00D0     		beq	.L125
 2041              	.LVL91:
 2042              	.L122:
 791:Src/stm32f7xx_hal_msp.c ****   {
 792:Src/stm32f7xx_hal_msp.c ****   /* USER CODE BEGIN UART4_MspDeInit 0 */
 793:Src/stm32f7xx_hal_msp.c **** 
 794:Src/stm32f7xx_hal_msp.c ****   /* USER CODE END UART4_MspDeInit 0 */
 795:Src/stm32f7xx_hal_msp.c ****     /* Peripheral clock disable */
 796:Src/stm32f7xx_hal_msp.c ****     __HAL_RCC_UART4_CLK_DISABLE();
 797:Src/stm32f7xx_hal_msp.c ****   
 798:Src/stm32f7xx_hal_msp.c ****     /**UART4 GPIO Configuration    
 799:Src/stm32f7xx_hal_msp.c ****     PA11     ------> UART4_RX
 800:Src/stm32f7xx_hal_msp.c ****     PA12     ------> UART4_TX 
 801:Src/stm32f7xx_hal_msp.c ****     */
 802:Src/stm32f7xx_hal_msp.c ****     HAL_GPIO_DeInit(GPIOA, GPIO_PIN_11|GPIO_PIN_12);
 803:Src/stm32f7xx_hal_msp.c **** 
 804:Src/stm32f7xx_hal_msp.c ****   /* USER CODE BEGIN UART4_MspDeInit 1 */
 805:Src/stm32f7xx_hal_msp.c **** 
 806:Src/stm32f7xx_hal_msp.c ****   /* USER CODE END UART4_MspDeInit 1 */
 807:Src/stm32f7xx_hal_msp.c ****   }
 808:Src/stm32f7xx_hal_msp.c **** 
 809:Src/stm32f7xx_hal_msp.c **** }
 2043              		.loc 1 809 1 view .LVU591
 2044 000a 08BD     		pop	{r3, pc}
 2045              	.LVL92:
 2046              	.L125:
 796:Src/stm32f7xx_hal_msp.c ****   
 2047              		.loc 1 796 5 is_stmt 1 view .LVU592
ARM GAS  /tmp/cczsEcHh.s 			page 58


 2048 000c 064A     		ldr	r2, .L126+4
 2049 000e 136C     		ldr	r3, [r2, #64]
 2050 0010 23F40023 		bic	r3, r3, #524288
 2051 0014 1364     		str	r3, [r2, #64]
 802:Src/stm32f7xx_hal_msp.c **** 
 2052              		.loc 1 802 5 view .LVU593
 2053 0016 4FF4C051 		mov	r1, #6144
 2054 001a 0448     		ldr	r0, .L126+8
 2055              	.LVL93:
 802:Src/stm32f7xx_hal_msp.c **** 
 2056              		.loc 1 802 5 is_stmt 0 view .LVU594
 2057 001c FFF7FEFF 		bl	HAL_GPIO_DeInit
 2058              	.LVL94:
 2059              		.loc 1 809 1 view .LVU595
 2060 0020 F3E7     		b	.L122
 2061              	.L127:
 2062 0022 00BF     		.align	2
 2063              	.L126:
 2064 0024 004C0040 		.word	1073761280
 2065 0028 00380240 		.word	1073887232
 2066 002c 00000240 		.word	1073872896
 2067              		.cfi_endproc
 2068              	.LFE156:
 2070              		.section	.bss.HAL_RCC_CAN1_CLK_ENABLED,"aw",%nobits
 2071              		.align	2
 2072              		.set	.LANCHOR0,. + 0
 2075              	HAL_RCC_CAN1_CLK_ENABLED:
 2076 0000 00000000 		.space	4
 2077              		.text
 2078              	.Letext0:
 2079              		.file 2 "/home/alex/Mass Storage/ARM-GCC/arm-none-eabi/include/machine/_default_types.h"
 2080              		.file 3 "/home/alex/Mass Storage/ARM-GCC/arm-none-eabi/include/sys/_stdint.h"
 2081              		.file 4 "Drivers/CMSIS/Include/core_cm7.h"
 2082              		.file 5 "Drivers/CMSIS/Device/ST/STM32F7xx/Include/system_stm32f7xx.h"
 2083              		.file 6 "Drivers/CMSIS/Device/ST/STM32F7xx/Include/stm32f765xx.h"
 2084              		.file 7 "Drivers/CMSIS/Device/ST/STM32F7xx/Include/stm32f7xx.h"
 2085              		.file 8 "Drivers/STM32F7xx_HAL_Driver/Inc/stm32f7xx_hal_def.h"
 2086              		.file 9 "Drivers/STM32F7xx_HAL_Driver/Inc/stm32f7xx_hal_gpio.h"
 2087              		.file 10 "Drivers/STM32F7xx_HAL_Driver/Inc/stm32f7xx_hal_dma.h"
 2088              		.file 11 "Drivers/STM32F7xx_HAL_Driver/Inc/stm32f7xx_hal_adc.h"
 2089              		.file 12 "Drivers/STM32F7xx_HAL_Driver/Inc/stm32f7xx_hal_can.h"
 2090              		.file 13 "Drivers/STM32F7xx_HAL_Driver/Inc/stm32f7xx_ll_sdmmc.h"
 2091              		.file 14 "Drivers/STM32F7xx_HAL_Driver/Inc/stm32f7xx_hal_sd.h"
 2092              		.file 15 "Drivers/STM32F7xx_HAL_Driver/Inc/stm32f7xx_hal_spi.h"
 2093              		.file 16 "Drivers/STM32F7xx_HAL_Driver/Inc/stm32f7xx_hal_tim.h"
 2094              		.file 17 "Drivers/STM32F7xx_HAL_Driver/Inc/stm32f7xx_hal_uart.h"
 2095              		.file 18 "Drivers/STM32F7xx_HAL_Driver/Inc/stm32f7xx_hal.h"
 2096              		.file 19 "Drivers/STM32F7xx_HAL_Driver/Inc/stm32f7xx_hal_cortex.h"
 2097              		.file 20 "Inc/main.h"
ARM GAS  /tmp/cczsEcHh.s 			page 59

