ARM GAS  /tmp/ccPnSfMB.s 			page 1


   1              		.cpu cortex-m7
   2              		.eabi_attribute 28, 1
   3              		.eabi_attribute 20, 1
   4              		.eabi_attribute 21, 1
   5              		.eabi_attribute 23, 3
   6              		.eabi_attribute 24, 1
   7              		.eabi_attribute 25, 1
   8              		.eabi_attribute 26, 1
   9              		.eabi_attribute 30, 1
  10              		.eabi_attribute 34, 1
  11              		.eabi_attribute 18, 4
  12              		.file	"stm32f7xx_ll_sdmmc.c"
  13              		.text
  14              	.Ltext0:
  15              		.cfi_sections	.debug_frame
  16              		.section	.text.SDMMC_GetCmdError,"ax",%progbits
  17              		.align	1
  18              		.arch armv7e-m
  19              		.syntax unified
  20              		.thumb
  21              		.thumb_func
  22              		.fpu fpv5-d16
  24              	SDMMC_GetCmdError:
  25              	.LVL0:
  26              	.LFB179:
  27              		.file 1 "Drivers/STM32F7xx_HAL_Driver/Src/stm32f7xx_ll_sdmmc.c"
   1:Drivers/STM32F7xx_HAL_Driver/Src/stm32f7xx_ll_sdmmc.c **** /**
   2:Drivers/STM32F7xx_HAL_Driver/Src/stm32f7xx_ll_sdmmc.c ****   ******************************************************************************
   3:Drivers/STM32F7xx_HAL_Driver/Src/stm32f7xx_ll_sdmmc.c ****   * @file    stm32f7xx_ll_sdmmc.c
   4:Drivers/STM32F7xx_HAL_Driver/Src/stm32f7xx_ll_sdmmc.c ****   * @author  MCD Application Team
   5:Drivers/STM32F7xx_HAL_Driver/Src/stm32f7xx_ll_sdmmc.c ****   * @brief   SDMMC Low Layer HAL module driver.
   6:Drivers/STM32F7xx_HAL_Driver/Src/stm32f7xx_ll_sdmmc.c ****   *    
   7:Drivers/STM32F7xx_HAL_Driver/Src/stm32f7xx_ll_sdmmc.c ****   *          This file provides firmware functions to manage the following 
   8:Drivers/STM32F7xx_HAL_Driver/Src/stm32f7xx_ll_sdmmc.c ****   *          functionalities of the SDMMC peripheral:
   9:Drivers/STM32F7xx_HAL_Driver/Src/stm32f7xx_ll_sdmmc.c ****   *           + Initialization/de-initialization functions
  10:Drivers/STM32F7xx_HAL_Driver/Src/stm32f7xx_ll_sdmmc.c ****   *           + I/O operation functions
  11:Drivers/STM32F7xx_HAL_Driver/Src/stm32f7xx_ll_sdmmc.c ****   *           + Peripheral Control functions 
  12:Drivers/STM32F7xx_HAL_Driver/Src/stm32f7xx_ll_sdmmc.c ****   *           + Peripheral State functions
  13:Drivers/STM32F7xx_HAL_Driver/Src/stm32f7xx_ll_sdmmc.c ****   *         
  14:Drivers/STM32F7xx_HAL_Driver/Src/stm32f7xx_ll_sdmmc.c ****   @verbatim
  15:Drivers/STM32F7xx_HAL_Driver/Src/stm32f7xx_ll_sdmmc.c ****   ==============================================================================
  16:Drivers/STM32F7xx_HAL_Driver/Src/stm32f7xx_ll_sdmmc.c ****                        ##### SDMMC peripheral features #####
  17:Drivers/STM32F7xx_HAL_Driver/Src/stm32f7xx_ll_sdmmc.c ****   ==============================================================================        
  18:Drivers/STM32F7xx_HAL_Driver/Src/stm32f7xx_ll_sdmmc.c ****     [..] The SD/SDMMC MMC card host interface (SDMMC) provides an interface between the AHB
  19:Drivers/STM32F7xx_HAL_Driver/Src/stm32f7xx_ll_sdmmc.c ****          peripheral bus and MultiMedia cards (MMCs), SD memory cards, SDMMC cards and CE-ATA
  20:Drivers/STM32F7xx_HAL_Driver/Src/stm32f7xx_ll_sdmmc.c ****          devices.
  21:Drivers/STM32F7xx_HAL_Driver/Src/stm32f7xx_ll_sdmmc.c ****     
  22:Drivers/STM32F7xx_HAL_Driver/Src/stm32f7xx_ll_sdmmc.c ****     [..] The SDMMC features include the following:
  23:Drivers/STM32F7xx_HAL_Driver/Src/stm32f7xx_ll_sdmmc.c ****          (+) Full compliance with MultiMedia Card System Specification Version 4.2. Card support
  24:Drivers/STM32F7xx_HAL_Driver/Src/stm32f7xx_ll_sdmmc.c ****              for three different databus modes: 1-bit (default), 4-bit and 8-bit
  25:Drivers/STM32F7xx_HAL_Driver/Src/stm32f7xx_ll_sdmmc.c ****          (+) Full compatibility with previous versions of MultiMedia Cards (forward compatibility)
  26:Drivers/STM32F7xx_HAL_Driver/Src/stm32f7xx_ll_sdmmc.c ****          (+) Full compliance with SD Memory Card Specifications Version 2.0
  27:Drivers/STM32F7xx_HAL_Driver/Src/stm32f7xx_ll_sdmmc.c ****          (+) Full compliance with SD I/O Card Specification Version 2.0: card support for two
  28:Drivers/STM32F7xx_HAL_Driver/Src/stm32f7xx_ll_sdmmc.c ****              different data bus modes: 1-bit (default) and 4-bit
  29:Drivers/STM32F7xx_HAL_Driver/Src/stm32f7xx_ll_sdmmc.c ****          (+) Full support of the CE-ATA features (full compliance with CE-ATA digital protocol
  30:Drivers/STM32F7xx_HAL_Driver/Src/stm32f7xx_ll_sdmmc.c ****              Rev1.1)
  31:Drivers/STM32F7xx_HAL_Driver/Src/stm32f7xx_ll_sdmmc.c ****          (+) Data transfer up to 48 MHz for the 8 bit mode
ARM GAS  /tmp/ccPnSfMB.s 			page 2


  32:Drivers/STM32F7xx_HAL_Driver/Src/stm32f7xx_ll_sdmmc.c ****          (+) Data and command output enable signals to control external bidirectional drivers
  33:Drivers/STM32F7xx_HAL_Driver/Src/stm32f7xx_ll_sdmmc.c ****    
  34:Drivers/STM32F7xx_HAL_Driver/Src/stm32f7xx_ll_sdmmc.c ****                            ##### How to use this driver #####
  35:Drivers/STM32F7xx_HAL_Driver/Src/stm32f7xx_ll_sdmmc.c ****   ==============================================================================
  36:Drivers/STM32F7xx_HAL_Driver/Src/stm32f7xx_ll_sdmmc.c ****     [..]
  37:Drivers/STM32F7xx_HAL_Driver/Src/stm32f7xx_ll_sdmmc.c ****       This driver is a considered as a driver of service for external devices drivers 
  38:Drivers/STM32F7xx_HAL_Driver/Src/stm32f7xx_ll_sdmmc.c ****       that interfaces with the SDMMC peripheral.
  39:Drivers/STM32F7xx_HAL_Driver/Src/stm32f7xx_ll_sdmmc.c ****       According to the device used (SD card/ MMC card / SDMMC card ...), a set of APIs 
  40:Drivers/STM32F7xx_HAL_Driver/Src/stm32f7xx_ll_sdmmc.c ****       is used in the device's driver to perform SDMMC operations and functionalities.
  41:Drivers/STM32F7xx_HAL_Driver/Src/stm32f7xx_ll_sdmmc.c ****    
  42:Drivers/STM32F7xx_HAL_Driver/Src/stm32f7xx_ll_sdmmc.c ****       This driver is almost transparent for the final user, it is only used to implement other
  43:Drivers/STM32F7xx_HAL_Driver/Src/stm32f7xx_ll_sdmmc.c ****       functionalities of the external device.
  44:Drivers/STM32F7xx_HAL_Driver/Src/stm32f7xx_ll_sdmmc.c ****    
  45:Drivers/STM32F7xx_HAL_Driver/Src/stm32f7xx_ll_sdmmc.c ****     [..]
  46:Drivers/STM32F7xx_HAL_Driver/Src/stm32f7xx_ll_sdmmc.c ****       (+) The SDMMC clock (SDMMCCLK = 48 MHz) is coming from a specific output (MSI, PLLUSB1CLK,
  47:Drivers/STM32F7xx_HAL_Driver/Src/stm32f7xx_ll_sdmmc.c ****           PLLUSB2CLK). Before start working with SDMMC peripheral make sure that the
  48:Drivers/STM32F7xx_HAL_Driver/Src/stm32f7xx_ll_sdmmc.c ****           PLL is well configured.
  49:Drivers/STM32F7xx_HAL_Driver/Src/stm32f7xx_ll_sdmmc.c ****           The SDMMC peripheral uses two clock signals:
  50:Drivers/STM32F7xx_HAL_Driver/Src/stm32f7xx_ll_sdmmc.c ****           (++) SDMMC adapter clock (SDMMCCLK = 48 MHz)
  51:Drivers/STM32F7xx_HAL_Driver/Src/stm32f7xx_ll_sdmmc.c ****           (++) APB2 bus clock (PCLK2)
  52:Drivers/STM32F7xx_HAL_Driver/Src/stm32f7xx_ll_sdmmc.c ****        
  53:Drivers/STM32F7xx_HAL_Driver/Src/stm32f7xx_ll_sdmmc.c ****           -@@- PCLK2 and SDMMC_CK clock frequencies must respect the following condition:
  54:Drivers/STM32F7xx_HAL_Driver/Src/stm32f7xx_ll_sdmmc.c ****                Frequency(PCLK2) >= (3 / 8 x Frequency(SDMMC_CK))
  55:Drivers/STM32F7xx_HAL_Driver/Src/stm32f7xx_ll_sdmmc.c ****   
  56:Drivers/STM32F7xx_HAL_Driver/Src/stm32f7xx_ll_sdmmc.c ****       (+) Enable/Disable peripheral clock using RCC peripheral macros related to SDMMC
  57:Drivers/STM32F7xx_HAL_Driver/Src/stm32f7xx_ll_sdmmc.c ****           peripheral.
  58:Drivers/STM32F7xx_HAL_Driver/Src/stm32f7xx_ll_sdmmc.c **** 
  59:Drivers/STM32F7xx_HAL_Driver/Src/stm32f7xx_ll_sdmmc.c ****       (+) Enable the Power ON State using the SDMMC_PowerState_ON() 
  60:Drivers/STM32F7xx_HAL_Driver/Src/stm32f7xx_ll_sdmmc.c ****           function and disable it using the function SDMMC_PowerState_OFF().
  61:Drivers/STM32F7xx_HAL_Driver/Src/stm32f7xx_ll_sdmmc.c ****                 
  62:Drivers/STM32F7xx_HAL_Driver/Src/stm32f7xx_ll_sdmmc.c ****       (+) Enable/Disable the clock using the __SDMMC_ENABLE()/__SDMMC_DISABLE() macros.
  63:Drivers/STM32F7xx_HAL_Driver/Src/stm32f7xx_ll_sdmmc.c ****   
  64:Drivers/STM32F7xx_HAL_Driver/Src/stm32f7xx_ll_sdmmc.c ****       (+) Enable/Disable the peripheral interrupts using the macros __SDMMC_ENABLE_IT() 
  65:Drivers/STM32F7xx_HAL_Driver/Src/stm32f7xx_ll_sdmmc.c ****           and __SDMMC_DISABLE_IT() if you need to use interrupt mode. 
  66:Drivers/STM32F7xx_HAL_Driver/Src/stm32f7xx_ll_sdmmc.c ****   
  67:Drivers/STM32F7xx_HAL_Driver/Src/stm32f7xx_ll_sdmmc.c ****       (+) When using the DMA mode 
  68:Drivers/STM32F7xx_HAL_Driver/Src/stm32f7xx_ll_sdmmc.c ****           (++) Configure the DMA in the MSP layer of the external device
  69:Drivers/STM32F7xx_HAL_Driver/Src/stm32f7xx_ll_sdmmc.c ****           (++) Active the needed channel Request 
  70:Drivers/STM32F7xx_HAL_Driver/Src/stm32f7xx_ll_sdmmc.c ****           (++) Enable the DMA using __SDMMC_DMA_ENABLE() macro or Disable it using the macro
  71:Drivers/STM32F7xx_HAL_Driver/Src/stm32f7xx_ll_sdmmc.c ****                __SDMMC_DMA_DISABLE().
  72:Drivers/STM32F7xx_HAL_Driver/Src/stm32f7xx_ll_sdmmc.c ****   
  73:Drivers/STM32F7xx_HAL_Driver/Src/stm32f7xx_ll_sdmmc.c ****       (+) To control the CPSM (Command Path State Machine) and send 
  74:Drivers/STM32F7xx_HAL_Driver/Src/stm32f7xx_ll_sdmmc.c ****           commands to the card use the SDMMC_SendCommand(), 
  75:Drivers/STM32F7xx_HAL_Driver/Src/stm32f7xx_ll_sdmmc.c ****           SDMMC_GetCommandResponse() and SDMMC_GetResponse() functions. First, user has
  76:Drivers/STM32F7xx_HAL_Driver/Src/stm32f7xx_ll_sdmmc.c ****           to fill the command structure (pointer to SDMMC_CmdInitTypeDef) according 
  77:Drivers/STM32F7xx_HAL_Driver/Src/stm32f7xx_ll_sdmmc.c ****           to the selected command to be sent.
  78:Drivers/STM32F7xx_HAL_Driver/Src/stm32f7xx_ll_sdmmc.c ****           The parameters that should be filled are:
  79:Drivers/STM32F7xx_HAL_Driver/Src/stm32f7xx_ll_sdmmc.c ****            (++) Command Argument
  80:Drivers/STM32F7xx_HAL_Driver/Src/stm32f7xx_ll_sdmmc.c ****            (++) Command Index
  81:Drivers/STM32F7xx_HAL_Driver/Src/stm32f7xx_ll_sdmmc.c ****            (++) Command Response type
  82:Drivers/STM32F7xx_HAL_Driver/Src/stm32f7xx_ll_sdmmc.c ****            (++) Command Wait
  83:Drivers/STM32F7xx_HAL_Driver/Src/stm32f7xx_ll_sdmmc.c ****            (++) CPSM Status (Enable or Disable).
  84:Drivers/STM32F7xx_HAL_Driver/Src/stm32f7xx_ll_sdmmc.c ****   
  85:Drivers/STM32F7xx_HAL_Driver/Src/stm32f7xx_ll_sdmmc.c ****           -@@- To check if the command is well received, read the SDMMC_CMDRESP
  86:Drivers/STM32F7xx_HAL_Driver/Src/stm32f7xx_ll_sdmmc.c ****               register using the SDMMC_GetCommandResponse().
  87:Drivers/STM32F7xx_HAL_Driver/Src/stm32f7xx_ll_sdmmc.c ****               The SDMMC responses registers (SDMMC_RESP1 to SDMMC_RESP2), use the
  88:Drivers/STM32F7xx_HAL_Driver/Src/stm32f7xx_ll_sdmmc.c ****               SDMMC_GetResponse() function.
ARM GAS  /tmp/ccPnSfMB.s 			page 3


  89:Drivers/STM32F7xx_HAL_Driver/Src/stm32f7xx_ll_sdmmc.c ****   
  90:Drivers/STM32F7xx_HAL_Driver/Src/stm32f7xx_ll_sdmmc.c ****       (+) To control the DPSM (Data Path State Machine) and send/receive 
  91:Drivers/STM32F7xx_HAL_Driver/Src/stm32f7xx_ll_sdmmc.c ****            data to/from the card use the SDMMC_DataConfig(), SDMMC_GetDataCounter(), 
  92:Drivers/STM32F7xx_HAL_Driver/Src/stm32f7xx_ll_sdmmc.c ****           SDMMC_ReadFIFO(), SDMMC_WriteFIFO() and SDMMC_GetFIFOCount() functions.
  93:Drivers/STM32F7xx_HAL_Driver/Src/stm32f7xx_ll_sdmmc.c ****   
  94:Drivers/STM32F7xx_HAL_Driver/Src/stm32f7xx_ll_sdmmc.c ****     *** Read Operations ***
  95:Drivers/STM32F7xx_HAL_Driver/Src/stm32f7xx_ll_sdmmc.c ****     =======================
  96:Drivers/STM32F7xx_HAL_Driver/Src/stm32f7xx_ll_sdmmc.c ****     [..]
  97:Drivers/STM32F7xx_HAL_Driver/Src/stm32f7xx_ll_sdmmc.c ****       (#) First, user has to fill the data structure (pointer to
  98:Drivers/STM32F7xx_HAL_Driver/Src/stm32f7xx_ll_sdmmc.c ****           SDMMC_DataInitTypeDef) according to the selected data type to be received.
  99:Drivers/STM32F7xx_HAL_Driver/Src/stm32f7xx_ll_sdmmc.c ****           The parameters that should be filled are:
 100:Drivers/STM32F7xx_HAL_Driver/Src/stm32f7xx_ll_sdmmc.c ****            (++) Data TimeOut
 101:Drivers/STM32F7xx_HAL_Driver/Src/stm32f7xx_ll_sdmmc.c ****            (++) Data Length
 102:Drivers/STM32F7xx_HAL_Driver/Src/stm32f7xx_ll_sdmmc.c ****            (++) Data Block size
 103:Drivers/STM32F7xx_HAL_Driver/Src/stm32f7xx_ll_sdmmc.c ****            (++) Data Transfer direction: should be from card (To SDMMC)
 104:Drivers/STM32F7xx_HAL_Driver/Src/stm32f7xx_ll_sdmmc.c ****            (++) Data Transfer mode
 105:Drivers/STM32F7xx_HAL_Driver/Src/stm32f7xx_ll_sdmmc.c ****            (++) DPSM Status (Enable or Disable)
 106:Drivers/STM32F7xx_HAL_Driver/Src/stm32f7xx_ll_sdmmc.c ****                                      
 107:Drivers/STM32F7xx_HAL_Driver/Src/stm32f7xx_ll_sdmmc.c ****       (#) Configure the SDMMC resources to receive the data from the card
 108:Drivers/STM32F7xx_HAL_Driver/Src/stm32f7xx_ll_sdmmc.c ****           according to selected transfer mode (Refer to Step 8, 9 and 10).
 109:Drivers/STM32F7xx_HAL_Driver/Src/stm32f7xx_ll_sdmmc.c ****   
 110:Drivers/STM32F7xx_HAL_Driver/Src/stm32f7xx_ll_sdmmc.c ****       (#) Send the selected Read command (refer to step 11).
 111:Drivers/STM32F7xx_HAL_Driver/Src/stm32f7xx_ll_sdmmc.c ****                     
 112:Drivers/STM32F7xx_HAL_Driver/Src/stm32f7xx_ll_sdmmc.c ****       (#) Use the SDMMC flags/interrupts to check the transfer status.
 113:Drivers/STM32F7xx_HAL_Driver/Src/stm32f7xx_ll_sdmmc.c ****   
 114:Drivers/STM32F7xx_HAL_Driver/Src/stm32f7xx_ll_sdmmc.c ****     *** Write Operations ***
 115:Drivers/STM32F7xx_HAL_Driver/Src/stm32f7xx_ll_sdmmc.c ****     ========================
 116:Drivers/STM32F7xx_HAL_Driver/Src/stm32f7xx_ll_sdmmc.c ****     [..]
 117:Drivers/STM32F7xx_HAL_Driver/Src/stm32f7xx_ll_sdmmc.c ****      (#) First, user has to fill the data structure (pointer to
 118:Drivers/STM32F7xx_HAL_Driver/Src/stm32f7xx_ll_sdmmc.c ****          SDMMC_DataInitTypeDef) according to the selected data type to be received.
 119:Drivers/STM32F7xx_HAL_Driver/Src/stm32f7xx_ll_sdmmc.c ****          The parameters that should be filled are:
 120:Drivers/STM32F7xx_HAL_Driver/Src/stm32f7xx_ll_sdmmc.c ****           (++) Data TimeOut
 121:Drivers/STM32F7xx_HAL_Driver/Src/stm32f7xx_ll_sdmmc.c ****           (++) Data Length
 122:Drivers/STM32F7xx_HAL_Driver/Src/stm32f7xx_ll_sdmmc.c ****           (++) Data Block size
 123:Drivers/STM32F7xx_HAL_Driver/Src/stm32f7xx_ll_sdmmc.c ****           (++) Data Transfer direction:  should be to card (To CARD)
 124:Drivers/STM32F7xx_HAL_Driver/Src/stm32f7xx_ll_sdmmc.c ****           (++) Data Transfer mode
 125:Drivers/STM32F7xx_HAL_Driver/Src/stm32f7xx_ll_sdmmc.c ****           (++) DPSM Status (Enable or Disable)
 126:Drivers/STM32F7xx_HAL_Driver/Src/stm32f7xx_ll_sdmmc.c ****   
 127:Drivers/STM32F7xx_HAL_Driver/Src/stm32f7xx_ll_sdmmc.c ****      (#) Configure the SDMMC resources to send the data to the card according to 
 128:Drivers/STM32F7xx_HAL_Driver/Src/stm32f7xx_ll_sdmmc.c ****          selected transfer mode.
 129:Drivers/STM32F7xx_HAL_Driver/Src/stm32f7xx_ll_sdmmc.c ****                      
 130:Drivers/STM32F7xx_HAL_Driver/Src/stm32f7xx_ll_sdmmc.c ****      (#) Send the selected Write command.
 131:Drivers/STM32F7xx_HAL_Driver/Src/stm32f7xx_ll_sdmmc.c ****                     
 132:Drivers/STM32F7xx_HAL_Driver/Src/stm32f7xx_ll_sdmmc.c ****      (#) Use the SDMMC flags/interrupts to check the transfer status.
 133:Drivers/STM32F7xx_HAL_Driver/Src/stm32f7xx_ll_sdmmc.c ****        
 134:Drivers/STM32F7xx_HAL_Driver/Src/stm32f7xx_ll_sdmmc.c ****     *** Command management operations ***
 135:Drivers/STM32F7xx_HAL_Driver/Src/stm32f7xx_ll_sdmmc.c ****     =====================================
 136:Drivers/STM32F7xx_HAL_Driver/Src/stm32f7xx_ll_sdmmc.c ****     [..]
 137:Drivers/STM32F7xx_HAL_Driver/Src/stm32f7xx_ll_sdmmc.c ****      (#) The commands used for Read/Write/Erase operations are managed in 
 138:Drivers/STM32F7xx_HAL_Driver/Src/stm32f7xx_ll_sdmmc.c ****          separate functions. 
 139:Drivers/STM32F7xx_HAL_Driver/Src/stm32f7xx_ll_sdmmc.c ****          Each function allows to send the needed command with the related argument,
 140:Drivers/STM32F7xx_HAL_Driver/Src/stm32f7xx_ll_sdmmc.c ****          then check the response.
 141:Drivers/STM32F7xx_HAL_Driver/Src/stm32f7xx_ll_sdmmc.c ****          By the same approach, you could implement a command and check the response.
 142:Drivers/STM32F7xx_HAL_Driver/Src/stm32f7xx_ll_sdmmc.c ****   
 143:Drivers/STM32F7xx_HAL_Driver/Src/stm32f7xx_ll_sdmmc.c ****   @endverbatim
 144:Drivers/STM32F7xx_HAL_Driver/Src/stm32f7xx_ll_sdmmc.c ****   ******************************************************************************
 145:Drivers/STM32F7xx_HAL_Driver/Src/stm32f7xx_ll_sdmmc.c ****   * @attention
ARM GAS  /tmp/ccPnSfMB.s 			page 4


 146:Drivers/STM32F7xx_HAL_Driver/Src/stm32f7xx_ll_sdmmc.c ****   *
 147:Drivers/STM32F7xx_HAL_Driver/Src/stm32f7xx_ll_sdmmc.c ****   * <h2><center>&copy; Copyright (c) 2017 STMicroelectronics.
 148:Drivers/STM32F7xx_HAL_Driver/Src/stm32f7xx_ll_sdmmc.c ****   * All rights reserved.</center></h2>
 149:Drivers/STM32F7xx_HAL_Driver/Src/stm32f7xx_ll_sdmmc.c ****   *
 150:Drivers/STM32F7xx_HAL_Driver/Src/stm32f7xx_ll_sdmmc.c ****   * This software component is licensed by ST under BSD 3-Clause license,
 151:Drivers/STM32F7xx_HAL_Driver/Src/stm32f7xx_ll_sdmmc.c ****   * the "License"; You may not use this file except in compliance with the
 152:Drivers/STM32F7xx_HAL_Driver/Src/stm32f7xx_ll_sdmmc.c ****   * License. You may obtain a copy of the License at:
 153:Drivers/STM32F7xx_HAL_Driver/Src/stm32f7xx_ll_sdmmc.c ****   *                       opensource.org/licenses/BSD-3-Clause
 154:Drivers/STM32F7xx_HAL_Driver/Src/stm32f7xx_ll_sdmmc.c ****   *
 155:Drivers/STM32F7xx_HAL_Driver/Src/stm32f7xx_ll_sdmmc.c ****   ******************************************************************************
 156:Drivers/STM32F7xx_HAL_Driver/Src/stm32f7xx_ll_sdmmc.c ****   */ 
 157:Drivers/STM32F7xx_HAL_Driver/Src/stm32f7xx_ll_sdmmc.c **** 
 158:Drivers/STM32F7xx_HAL_Driver/Src/stm32f7xx_ll_sdmmc.c **** /* Includes ------------------------------------------------------------------*/
 159:Drivers/STM32F7xx_HAL_Driver/Src/stm32f7xx_ll_sdmmc.c **** #include "stm32f7xx_hal.h"
 160:Drivers/STM32F7xx_HAL_Driver/Src/stm32f7xx_ll_sdmmc.c **** 
 161:Drivers/STM32F7xx_HAL_Driver/Src/stm32f7xx_ll_sdmmc.c **** #if defined(SDMMC1)
 162:Drivers/STM32F7xx_HAL_Driver/Src/stm32f7xx_ll_sdmmc.c **** 
 163:Drivers/STM32F7xx_HAL_Driver/Src/stm32f7xx_ll_sdmmc.c **** /** @addtogroup STM32F7xx_HAL_Driver
 164:Drivers/STM32F7xx_HAL_Driver/Src/stm32f7xx_ll_sdmmc.c ****   * @{
 165:Drivers/STM32F7xx_HAL_Driver/Src/stm32f7xx_ll_sdmmc.c ****   */
 166:Drivers/STM32F7xx_HAL_Driver/Src/stm32f7xx_ll_sdmmc.c **** 
 167:Drivers/STM32F7xx_HAL_Driver/Src/stm32f7xx_ll_sdmmc.c **** /** @defgroup SDMMC_LL SDMMC Low Layer
 168:Drivers/STM32F7xx_HAL_Driver/Src/stm32f7xx_ll_sdmmc.c ****   * @brief Low layer module for SD
 169:Drivers/STM32F7xx_HAL_Driver/Src/stm32f7xx_ll_sdmmc.c ****   * @{
 170:Drivers/STM32F7xx_HAL_Driver/Src/stm32f7xx_ll_sdmmc.c ****   */
 171:Drivers/STM32F7xx_HAL_Driver/Src/stm32f7xx_ll_sdmmc.c **** 
 172:Drivers/STM32F7xx_HAL_Driver/Src/stm32f7xx_ll_sdmmc.c **** #if defined(HAL_SD_MODULE_ENABLED) || defined(HAL_MMC_MODULE_ENABLED)
 173:Drivers/STM32F7xx_HAL_Driver/Src/stm32f7xx_ll_sdmmc.c **** 
 174:Drivers/STM32F7xx_HAL_Driver/Src/stm32f7xx_ll_sdmmc.c **** /* Private typedef -----------------------------------------------------------*/
 175:Drivers/STM32F7xx_HAL_Driver/Src/stm32f7xx_ll_sdmmc.c **** /* Private define ------------------------------------------------------------*/
 176:Drivers/STM32F7xx_HAL_Driver/Src/stm32f7xx_ll_sdmmc.c **** /* Private macro -------------------------------------------------------------*/
 177:Drivers/STM32F7xx_HAL_Driver/Src/stm32f7xx_ll_sdmmc.c **** /* Private variables ---------------------------------------------------------*/
 178:Drivers/STM32F7xx_HAL_Driver/Src/stm32f7xx_ll_sdmmc.c **** /* Private function prototypes -----------------------------------------------*/
 179:Drivers/STM32F7xx_HAL_Driver/Src/stm32f7xx_ll_sdmmc.c **** static uint32_t SDMMC_GetCmdError(SDMMC_TypeDef *SDMMCx);
 180:Drivers/STM32F7xx_HAL_Driver/Src/stm32f7xx_ll_sdmmc.c **** static uint32_t SDMMC_GetCmdResp1(SDMMC_TypeDef *SDMMCx, uint8_t SD_CMD, uint32_t Timeout);
 181:Drivers/STM32F7xx_HAL_Driver/Src/stm32f7xx_ll_sdmmc.c **** static uint32_t SDMMC_GetCmdResp2(SDMMC_TypeDef *SDMMCx);
 182:Drivers/STM32F7xx_HAL_Driver/Src/stm32f7xx_ll_sdmmc.c **** static uint32_t SDMMC_GetCmdResp3(SDMMC_TypeDef *SDMMCx);
 183:Drivers/STM32F7xx_HAL_Driver/Src/stm32f7xx_ll_sdmmc.c **** static uint32_t SDMMC_GetCmdResp7(SDMMC_TypeDef *SDMMCx);
 184:Drivers/STM32F7xx_HAL_Driver/Src/stm32f7xx_ll_sdmmc.c **** static uint32_t SDMMC_GetCmdResp6(SDMMC_TypeDef *SDMMCx, uint8_t SD_CMD, uint16_t *pRCA);
 185:Drivers/STM32F7xx_HAL_Driver/Src/stm32f7xx_ll_sdmmc.c **** 
 186:Drivers/STM32F7xx_HAL_Driver/Src/stm32f7xx_ll_sdmmc.c **** /* Exported functions --------------------------------------------------------*/
 187:Drivers/STM32F7xx_HAL_Driver/Src/stm32f7xx_ll_sdmmc.c **** 
 188:Drivers/STM32F7xx_HAL_Driver/Src/stm32f7xx_ll_sdmmc.c **** /** @defgroup SDMMC_LL_Exported_Functions SDMMC Low Layer Exported Functions
 189:Drivers/STM32F7xx_HAL_Driver/Src/stm32f7xx_ll_sdmmc.c ****   * @{
 190:Drivers/STM32F7xx_HAL_Driver/Src/stm32f7xx_ll_sdmmc.c ****   */
 191:Drivers/STM32F7xx_HAL_Driver/Src/stm32f7xx_ll_sdmmc.c **** 
 192:Drivers/STM32F7xx_HAL_Driver/Src/stm32f7xx_ll_sdmmc.c **** /** @defgroup HAL_SDMMC_LL_Group1 Initialization de-initialization functions 
 193:Drivers/STM32F7xx_HAL_Driver/Src/stm32f7xx_ll_sdmmc.c ****  *  @brief    Initialization and Configuration functions 
 194:Drivers/STM32F7xx_HAL_Driver/Src/stm32f7xx_ll_sdmmc.c ****  *
 195:Drivers/STM32F7xx_HAL_Driver/Src/stm32f7xx_ll_sdmmc.c **** @verbatim    
 196:Drivers/STM32F7xx_HAL_Driver/Src/stm32f7xx_ll_sdmmc.c ****  ===============================================================================
 197:Drivers/STM32F7xx_HAL_Driver/Src/stm32f7xx_ll_sdmmc.c ****               ##### Initialization/de-initialization functions #####
 198:Drivers/STM32F7xx_HAL_Driver/Src/stm32f7xx_ll_sdmmc.c ****  ===============================================================================
 199:Drivers/STM32F7xx_HAL_Driver/Src/stm32f7xx_ll_sdmmc.c ****     [..]  This section provides functions allowing to:
 200:Drivers/STM32F7xx_HAL_Driver/Src/stm32f7xx_ll_sdmmc.c ****  
 201:Drivers/STM32F7xx_HAL_Driver/Src/stm32f7xx_ll_sdmmc.c **** @endverbatim
 202:Drivers/STM32F7xx_HAL_Driver/Src/stm32f7xx_ll_sdmmc.c ****   * @{
ARM GAS  /tmp/ccPnSfMB.s 			page 5


 203:Drivers/STM32F7xx_HAL_Driver/Src/stm32f7xx_ll_sdmmc.c ****   */
 204:Drivers/STM32F7xx_HAL_Driver/Src/stm32f7xx_ll_sdmmc.c **** 
 205:Drivers/STM32F7xx_HAL_Driver/Src/stm32f7xx_ll_sdmmc.c **** /**
 206:Drivers/STM32F7xx_HAL_Driver/Src/stm32f7xx_ll_sdmmc.c ****   * @brief  Initializes the SDMMC according to the specified
 207:Drivers/STM32F7xx_HAL_Driver/Src/stm32f7xx_ll_sdmmc.c ****   *         parameters in the SDMMC_InitTypeDef and create the associated handle.
 208:Drivers/STM32F7xx_HAL_Driver/Src/stm32f7xx_ll_sdmmc.c ****   * @param  SDMMCx: Pointer to SDMMC register base
 209:Drivers/STM32F7xx_HAL_Driver/Src/stm32f7xx_ll_sdmmc.c ****   * @param  Init: SDMMC initialization structure   
 210:Drivers/STM32F7xx_HAL_Driver/Src/stm32f7xx_ll_sdmmc.c ****   * @retval HAL status
 211:Drivers/STM32F7xx_HAL_Driver/Src/stm32f7xx_ll_sdmmc.c ****   */
 212:Drivers/STM32F7xx_HAL_Driver/Src/stm32f7xx_ll_sdmmc.c **** HAL_StatusTypeDef SDMMC_Init(SDMMC_TypeDef *SDMMCx, SDMMC_InitTypeDef Init)
 213:Drivers/STM32F7xx_HAL_Driver/Src/stm32f7xx_ll_sdmmc.c **** {
 214:Drivers/STM32F7xx_HAL_Driver/Src/stm32f7xx_ll_sdmmc.c ****   uint32_t tmpreg = 0;
 215:Drivers/STM32F7xx_HAL_Driver/Src/stm32f7xx_ll_sdmmc.c **** 
 216:Drivers/STM32F7xx_HAL_Driver/Src/stm32f7xx_ll_sdmmc.c ****   /* Check the parameters */
 217:Drivers/STM32F7xx_HAL_Driver/Src/stm32f7xx_ll_sdmmc.c ****   assert_param(IS_SDMMC_ALL_INSTANCE(SDMMCx));
 218:Drivers/STM32F7xx_HAL_Driver/Src/stm32f7xx_ll_sdmmc.c ****   assert_param(IS_SDMMC_CLOCK_EDGE(Init.ClockEdge)); 
 219:Drivers/STM32F7xx_HAL_Driver/Src/stm32f7xx_ll_sdmmc.c ****   assert_param(IS_SDMMC_CLOCK_BYPASS(Init.ClockBypass));
 220:Drivers/STM32F7xx_HAL_Driver/Src/stm32f7xx_ll_sdmmc.c ****   assert_param(IS_SDMMC_CLOCK_POWER_SAVE(Init.ClockPowerSave));
 221:Drivers/STM32F7xx_HAL_Driver/Src/stm32f7xx_ll_sdmmc.c ****   assert_param(IS_SDMMC_BUS_WIDE(Init.BusWide));
 222:Drivers/STM32F7xx_HAL_Driver/Src/stm32f7xx_ll_sdmmc.c ****   assert_param(IS_SDMMC_HARDWARE_FLOW_CONTROL(Init.HardwareFlowControl));
 223:Drivers/STM32F7xx_HAL_Driver/Src/stm32f7xx_ll_sdmmc.c ****   assert_param(IS_SDMMC_CLKDIV(Init.ClockDiv));
 224:Drivers/STM32F7xx_HAL_Driver/Src/stm32f7xx_ll_sdmmc.c ****   
 225:Drivers/STM32F7xx_HAL_Driver/Src/stm32f7xx_ll_sdmmc.c ****   /* Set SDMMC configuration parameters */
 226:Drivers/STM32F7xx_HAL_Driver/Src/stm32f7xx_ll_sdmmc.c ****   tmpreg |= (Init.ClockEdge           |\
 227:Drivers/STM32F7xx_HAL_Driver/Src/stm32f7xx_ll_sdmmc.c ****              Init.ClockBypass         |\
 228:Drivers/STM32F7xx_HAL_Driver/Src/stm32f7xx_ll_sdmmc.c ****              Init.ClockPowerSave      |\
 229:Drivers/STM32F7xx_HAL_Driver/Src/stm32f7xx_ll_sdmmc.c ****              Init.BusWide             |\
 230:Drivers/STM32F7xx_HAL_Driver/Src/stm32f7xx_ll_sdmmc.c ****              Init.HardwareFlowControl |\
 231:Drivers/STM32F7xx_HAL_Driver/Src/stm32f7xx_ll_sdmmc.c ****              Init.ClockDiv
 232:Drivers/STM32F7xx_HAL_Driver/Src/stm32f7xx_ll_sdmmc.c ****              ); 
 233:Drivers/STM32F7xx_HAL_Driver/Src/stm32f7xx_ll_sdmmc.c ****   
 234:Drivers/STM32F7xx_HAL_Driver/Src/stm32f7xx_ll_sdmmc.c ****   /* Write to SDMMC CLKCR */
 235:Drivers/STM32F7xx_HAL_Driver/Src/stm32f7xx_ll_sdmmc.c ****   MODIFY_REG(SDMMCx->CLKCR, CLKCR_CLEAR_MASK, tmpreg);  
 236:Drivers/STM32F7xx_HAL_Driver/Src/stm32f7xx_ll_sdmmc.c **** 
 237:Drivers/STM32F7xx_HAL_Driver/Src/stm32f7xx_ll_sdmmc.c ****   return HAL_OK;
 238:Drivers/STM32F7xx_HAL_Driver/Src/stm32f7xx_ll_sdmmc.c **** }
 239:Drivers/STM32F7xx_HAL_Driver/Src/stm32f7xx_ll_sdmmc.c **** 
 240:Drivers/STM32F7xx_HAL_Driver/Src/stm32f7xx_ll_sdmmc.c **** 
 241:Drivers/STM32F7xx_HAL_Driver/Src/stm32f7xx_ll_sdmmc.c **** /**
 242:Drivers/STM32F7xx_HAL_Driver/Src/stm32f7xx_ll_sdmmc.c ****   * @}
 243:Drivers/STM32F7xx_HAL_Driver/Src/stm32f7xx_ll_sdmmc.c ****   */
 244:Drivers/STM32F7xx_HAL_Driver/Src/stm32f7xx_ll_sdmmc.c **** 
 245:Drivers/STM32F7xx_HAL_Driver/Src/stm32f7xx_ll_sdmmc.c **** /** @defgroup HAL_SDMMC_LL_Group2 IO operation functions 
 246:Drivers/STM32F7xx_HAL_Driver/Src/stm32f7xx_ll_sdmmc.c ****  *  @brief   Data transfers functions 
 247:Drivers/STM32F7xx_HAL_Driver/Src/stm32f7xx_ll_sdmmc.c ****  *
 248:Drivers/STM32F7xx_HAL_Driver/Src/stm32f7xx_ll_sdmmc.c **** @verbatim   
 249:Drivers/STM32F7xx_HAL_Driver/Src/stm32f7xx_ll_sdmmc.c ****  ===============================================================================
 250:Drivers/STM32F7xx_HAL_Driver/Src/stm32f7xx_ll_sdmmc.c ****                       ##### I/O operation functions #####
 251:Drivers/STM32F7xx_HAL_Driver/Src/stm32f7xx_ll_sdmmc.c ****  ===============================================================================  
 252:Drivers/STM32F7xx_HAL_Driver/Src/stm32f7xx_ll_sdmmc.c ****     [..]
 253:Drivers/STM32F7xx_HAL_Driver/Src/stm32f7xx_ll_sdmmc.c ****     This subsection provides a set of functions allowing to manage the SDMMC data 
 254:Drivers/STM32F7xx_HAL_Driver/Src/stm32f7xx_ll_sdmmc.c ****     transfers.
 255:Drivers/STM32F7xx_HAL_Driver/Src/stm32f7xx_ll_sdmmc.c **** 
 256:Drivers/STM32F7xx_HAL_Driver/Src/stm32f7xx_ll_sdmmc.c **** @endverbatim
 257:Drivers/STM32F7xx_HAL_Driver/Src/stm32f7xx_ll_sdmmc.c ****   * @{
 258:Drivers/STM32F7xx_HAL_Driver/Src/stm32f7xx_ll_sdmmc.c ****   */
 259:Drivers/STM32F7xx_HAL_Driver/Src/stm32f7xx_ll_sdmmc.c **** 
ARM GAS  /tmp/ccPnSfMB.s 			page 6


 260:Drivers/STM32F7xx_HAL_Driver/Src/stm32f7xx_ll_sdmmc.c **** /**
 261:Drivers/STM32F7xx_HAL_Driver/Src/stm32f7xx_ll_sdmmc.c ****   * @brief  Read data (word) from Rx FIFO in blocking mode (polling) 
 262:Drivers/STM32F7xx_HAL_Driver/Src/stm32f7xx_ll_sdmmc.c ****   * @param  SDMMCx: Pointer to SDMMC register base
 263:Drivers/STM32F7xx_HAL_Driver/Src/stm32f7xx_ll_sdmmc.c ****   * @retval HAL status
 264:Drivers/STM32F7xx_HAL_Driver/Src/stm32f7xx_ll_sdmmc.c ****   */
 265:Drivers/STM32F7xx_HAL_Driver/Src/stm32f7xx_ll_sdmmc.c **** uint32_t SDMMC_ReadFIFO(SDMMC_TypeDef *SDMMCx)
 266:Drivers/STM32F7xx_HAL_Driver/Src/stm32f7xx_ll_sdmmc.c **** {
 267:Drivers/STM32F7xx_HAL_Driver/Src/stm32f7xx_ll_sdmmc.c ****   /* Read data from Rx FIFO */ 
 268:Drivers/STM32F7xx_HAL_Driver/Src/stm32f7xx_ll_sdmmc.c ****   return (SDMMCx->FIFO);
 269:Drivers/STM32F7xx_HAL_Driver/Src/stm32f7xx_ll_sdmmc.c **** }
 270:Drivers/STM32F7xx_HAL_Driver/Src/stm32f7xx_ll_sdmmc.c **** 
 271:Drivers/STM32F7xx_HAL_Driver/Src/stm32f7xx_ll_sdmmc.c **** /**
 272:Drivers/STM32F7xx_HAL_Driver/Src/stm32f7xx_ll_sdmmc.c ****   * @brief  Write data (word) to Tx FIFO in blocking mode (polling) 
 273:Drivers/STM32F7xx_HAL_Driver/Src/stm32f7xx_ll_sdmmc.c ****   * @param  SDMMCx: Pointer to SDMMC register base
 274:Drivers/STM32F7xx_HAL_Driver/Src/stm32f7xx_ll_sdmmc.c ****   * @param  pWriteData: pointer to data to write
 275:Drivers/STM32F7xx_HAL_Driver/Src/stm32f7xx_ll_sdmmc.c ****   * @retval HAL status
 276:Drivers/STM32F7xx_HAL_Driver/Src/stm32f7xx_ll_sdmmc.c ****   */
 277:Drivers/STM32F7xx_HAL_Driver/Src/stm32f7xx_ll_sdmmc.c **** HAL_StatusTypeDef SDMMC_WriteFIFO(SDMMC_TypeDef *SDMMCx, uint32_t *pWriteData)
 278:Drivers/STM32F7xx_HAL_Driver/Src/stm32f7xx_ll_sdmmc.c **** { 
 279:Drivers/STM32F7xx_HAL_Driver/Src/stm32f7xx_ll_sdmmc.c ****   /* Write data to FIFO */ 
 280:Drivers/STM32F7xx_HAL_Driver/Src/stm32f7xx_ll_sdmmc.c ****   SDMMCx->FIFO = *pWriteData;
 281:Drivers/STM32F7xx_HAL_Driver/Src/stm32f7xx_ll_sdmmc.c **** 
 282:Drivers/STM32F7xx_HAL_Driver/Src/stm32f7xx_ll_sdmmc.c ****   return HAL_OK;
 283:Drivers/STM32F7xx_HAL_Driver/Src/stm32f7xx_ll_sdmmc.c **** }
 284:Drivers/STM32F7xx_HAL_Driver/Src/stm32f7xx_ll_sdmmc.c **** 
 285:Drivers/STM32F7xx_HAL_Driver/Src/stm32f7xx_ll_sdmmc.c **** /**
 286:Drivers/STM32F7xx_HAL_Driver/Src/stm32f7xx_ll_sdmmc.c ****   * @}
 287:Drivers/STM32F7xx_HAL_Driver/Src/stm32f7xx_ll_sdmmc.c ****   */
 288:Drivers/STM32F7xx_HAL_Driver/Src/stm32f7xx_ll_sdmmc.c **** 
 289:Drivers/STM32F7xx_HAL_Driver/Src/stm32f7xx_ll_sdmmc.c **** /** @defgroup HAL_SDMMC_LL_Group3 Peripheral Control functions 
 290:Drivers/STM32F7xx_HAL_Driver/Src/stm32f7xx_ll_sdmmc.c ****  *  @brief   management functions 
 291:Drivers/STM32F7xx_HAL_Driver/Src/stm32f7xx_ll_sdmmc.c ****  *
 292:Drivers/STM32F7xx_HAL_Driver/Src/stm32f7xx_ll_sdmmc.c **** @verbatim   
 293:Drivers/STM32F7xx_HAL_Driver/Src/stm32f7xx_ll_sdmmc.c ****  ===============================================================================
 294:Drivers/STM32F7xx_HAL_Driver/Src/stm32f7xx_ll_sdmmc.c ****                       ##### Peripheral Control functions #####
 295:Drivers/STM32F7xx_HAL_Driver/Src/stm32f7xx_ll_sdmmc.c ****  ===============================================================================  
 296:Drivers/STM32F7xx_HAL_Driver/Src/stm32f7xx_ll_sdmmc.c ****     [..]
 297:Drivers/STM32F7xx_HAL_Driver/Src/stm32f7xx_ll_sdmmc.c ****     This subsection provides a set of functions allowing to control the SDMMC data 
 298:Drivers/STM32F7xx_HAL_Driver/Src/stm32f7xx_ll_sdmmc.c ****     transfers.
 299:Drivers/STM32F7xx_HAL_Driver/Src/stm32f7xx_ll_sdmmc.c **** 
 300:Drivers/STM32F7xx_HAL_Driver/Src/stm32f7xx_ll_sdmmc.c **** @endverbatim
 301:Drivers/STM32F7xx_HAL_Driver/Src/stm32f7xx_ll_sdmmc.c ****   * @{
 302:Drivers/STM32F7xx_HAL_Driver/Src/stm32f7xx_ll_sdmmc.c ****   */
 303:Drivers/STM32F7xx_HAL_Driver/Src/stm32f7xx_ll_sdmmc.c **** 
 304:Drivers/STM32F7xx_HAL_Driver/Src/stm32f7xx_ll_sdmmc.c **** /**
 305:Drivers/STM32F7xx_HAL_Driver/Src/stm32f7xx_ll_sdmmc.c ****   * @brief  Set SDMMC Power state to ON. 
 306:Drivers/STM32F7xx_HAL_Driver/Src/stm32f7xx_ll_sdmmc.c ****   * @param  SDMMCx: Pointer to SDMMC register base
 307:Drivers/STM32F7xx_HAL_Driver/Src/stm32f7xx_ll_sdmmc.c ****   * @retval HAL status
 308:Drivers/STM32F7xx_HAL_Driver/Src/stm32f7xx_ll_sdmmc.c ****   */
 309:Drivers/STM32F7xx_HAL_Driver/Src/stm32f7xx_ll_sdmmc.c **** HAL_StatusTypeDef SDMMC_PowerState_ON(SDMMC_TypeDef *SDMMCx)
 310:Drivers/STM32F7xx_HAL_Driver/Src/stm32f7xx_ll_sdmmc.c **** {  
 311:Drivers/STM32F7xx_HAL_Driver/Src/stm32f7xx_ll_sdmmc.c ****   /* Set power state to ON */ 
 312:Drivers/STM32F7xx_HAL_Driver/Src/stm32f7xx_ll_sdmmc.c ****   SDMMCx->POWER = SDMMC_POWER_PWRCTRL;
 313:Drivers/STM32F7xx_HAL_Driver/Src/stm32f7xx_ll_sdmmc.c **** 
 314:Drivers/STM32F7xx_HAL_Driver/Src/stm32f7xx_ll_sdmmc.c ****   /* 1ms: required power up waiting time before starting the SD initialization
 315:Drivers/STM32F7xx_HAL_Driver/Src/stm32f7xx_ll_sdmmc.c ****   sequence */
 316:Drivers/STM32F7xx_HAL_Driver/Src/stm32f7xx_ll_sdmmc.c ****   HAL_Delay(2);
ARM GAS  /tmp/ccPnSfMB.s 			page 7


 317:Drivers/STM32F7xx_HAL_Driver/Src/stm32f7xx_ll_sdmmc.c ****   
 318:Drivers/STM32F7xx_HAL_Driver/Src/stm32f7xx_ll_sdmmc.c ****   return HAL_OK;
 319:Drivers/STM32F7xx_HAL_Driver/Src/stm32f7xx_ll_sdmmc.c **** }
 320:Drivers/STM32F7xx_HAL_Driver/Src/stm32f7xx_ll_sdmmc.c **** 
 321:Drivers/STM32F7xx_HAL_Driver/Src/stm32f7xx_ll_sdmmc.c **** /**
 322:Drivers/STM32F7xx_HAL_Driver/Src/stm32f7xx_ll_sdmmc.c ****   * @brief  Set SDMMC Power state to OFF. 
 323:Drivers/STM32F7xx_HAL_Driver/Src/stm32f7xx_ll_sdmmc.c ****   * @param  SDMMCx: Pointer to SDMMC register base
 324:Drivers/STM32F7xx_HAL_Driver/Src/stm32f7xx_ll_sdmmc.c ****   * @retval HAL status
 325:Drivers/STM32F7xx_HAL_Driver/Src/stm32f7xx_ll_sdmmc.c ****   */
 326:Drivers/STM32F7xx_HAL_Driver/Src/stm32f7xx_ll_sdmmc.c **** HAL_StatusTypeDef SDMMC_PowerState_OFF(SDMMC_TypeDef *SDMMCx)
 327:Drivers/STM32F7xx_HAL_Driver/Src/stm32f7xx_ll_sdmmc.c **** {
 328:Drivers/STM32F7xx_HAL_Driver/Src/stm32f7xx_ll_sdmmc.c ****   /* Set power state to OFF */
 329:Drivers/STM32F7xx_HAL_Driver/Src/stm32f7xx_ll_sdmmc.c ****   SDMMCx->POWER = (uint32_t)0x00000000;
 330:Drivers/STM32F7xx_HAL_Driver/Src/stm32f7xx_ll_sdmmc.c ****   
 331:Drivers/STM32F7xx_HAL_Driver/Src/stm32f7xx_ll_sdmmc.c ****   return HAL_OK;
 332:Drivers/STM32F7xx_HAL_Driver/Src/stm32f7xx_ll_sdmmc.c **** }
 333:Drivers/STM32F7xx_HAL_Driver/Src/stm32f7xx_ll_sdmmc.c **** 
 334:Drivers/STM32F7xx_HAL_Driver/Src/stm32f7xx_ll_sdmmc.c **** /**
 335:Drivers/STM32F7xx_HAL_Driver/Src/stm32f7xx_ll_sdmmc.c ****   * @brief  Get SDMMC Power state. 
 336:Drivers/STM32F7xx_HAL_Driver/Src/stm32f7xx_ll_sdmmc.c ****   * @param  SDMMCx: Pointer to SDMMC register base
 337:Drivers/STM32F7xx_HAL_Driver/Src/stm32f7xx_ll_sdmmc.c ****   * @retval Power status of the controller. The returned value can be one of the 
 338:Drivers/STM32F7xx_HAL_Driver/Src/stm32f7xx_ll_sdmmc.c ****   *         following values:
 339:Drivers/STM32F7xx_HAL_Driver/Src/stm32f7xx_ll_sdmmc.c ****   *            - 0x00: Power OFF
 340:Drivers/STM32F7xx_HAL_Driver/Src/stm32f7xx_ll_sdmmc.c ****   *            - 0x02: Power UP
 341:Drivers/STM32F7xx_HAL_Driver/Src/stm32f7xx_ll_sdmmc.c ****   *            - 0x03: Power ON 
 342:Drivers/STM32F7xx_HAL_Driver/Src/stm32f7xx_ll_sdmmc.c ****   */
 343:Drivers/STM32F7xx_HAL_Driver/Src/stm32f7xx_ll_sdmmc.c **** uint32_t SDMMC_GetPowerState(SDMMC_TypeDef *SDMMCx)  
 344:Drivers/STM32F7xx_HAL_Driver/Src/stm32f7xx_ll_sdmmc.c **** {
 345:Drivers/STM32F7xx_HAL_Driver/Src/stm32f7xx_ll_sdmmc.c ****   return (SDMMCx->POWER & SDMMC_POWER_PWRCTRL);
 346:Drivers/STM32F7xx_HAL_Driver/Src/stm32f7xx_ll_sdmmc.c **** }
 347:Drivers/STM32F7xx_HAL_Driver/Src/stm32f7xx_ll_sdmmc.c **** 
 348:Drivers/STM32F7xx_HAL_Driver/Src/stm32f7xx_ll_sdmmc.c **** /**
 349:Drivers/STM32F7xx_HAL_Driver/Src/stm32f7xx_ll_sdmmc.c ****   * @brief  Configure the SDMMC command path according to the specified parameters in
 350:Drivers/STM32F7xx_HAL_Driver/Src/stm32f7xx_ll_sdmmc.c ****   *         SDMMC_CmdInitTypeDef structure and send the command 
 351:Drivers/STM32F7xx_HAL_Driver/Src/stm32f7xx_ll_sdmmc.c ****   * @param  SDMMCx: Pointer to SDMMC register base
 352:Drivers/STM32F7xx_HAL_Driver/Src/stm32f7xx_ll_sdmmc.c ****   * @param  Command: pointer to a SDMMC_CmdInitTypeDef structure that contains 
 353:Drivers/STM32F7xx_HAL_Driver/Src/stm32f7xx_ll_sdmmc.c ****   *         the configuration information for the SDMMC command
 354:Drivers/STM32F7xx_HAL_Driver/Src/stm32f7xx_ll_sdmmc.c ****   * @retval HAL status
 355:Drivers/STM32F7xx_HAL_Driver/Src/stm32f7xx_ll_sdmmc.c ****   */
 356:Drivers/STM32F7xx_HAL_Driver/Src/stm32f7xx_ll_sdmmc.c **** HAL_StatusTypeDef SDMMC_SendCommand(SDMMC_TypeDef *SDMMCx, SDMMC_CmdInitTypeDef *Command)
 357:Drivers/STM32F7xx_HAL_Driver/Src/stm32f7xx_ll_sdmmc.c **** {
 358:Drivers/STM32F7xx_HAL_Driver/Src/stm32f7xx_ll_sdmmc.c ****   uint32_t tmpreg = 0;
 359:Drivers/STM32F7xx_HAL_Driver/Src/stm32f7xx_ll_sdmmc.c ****   
 360:Drivers/STM32F7xx_HAL_Driver/Src/stm32f7xx_ll_sdmmc.c ****   /* Check the parameters */
 361:Drivers/STM32F7xx_HAL_Driver/Src/stm32f7xx_ll_sdmmc.c ****   assert_param(IS_SDMMC_CMD_INDEX(Command->CmdIndex));
 362:Drivers/STM32F7xx_HAL_Driver/Src/stm32f7xx_ll_sdmmc.c ****   assert_param(IS_SDMMC_RESPONSE(Command->Response));
 363:Drivers/STM32F7xx_HAL_Driver/Src/stm32f7xx_ll_sdmmc.c ****   assert_param(IS_SDMMC_WAIT(Command->WaitForInterrupt));
 364:Drivers/STM32F7xx_HAL_Driver/Src/stm32f7xx_ll_sdmmc.c ****   assert_param(IS_SDMMC_CPSM(Command->CPSM));
 365:Drivers/STM32F7xx_HAL_Driver/Src/stm32f7xx_ll_sdmmc.c **** 
 366:Drivers/STM32F7xx_HAL_Driver/Src/stm32f7xx_ll_sdmmc.c ****   /* Set the SDMMC Argument value */
 367:Drivers/STM32F7xx_HAL_Driver/Src/stm32f7xx_ll_sdmmc.c ****   SDMMCx->ARG = Command->Argument;
 368:Drivers/STM32F7xx_HAL_Driver/Src/stm32f7xx_ll_sdmmc.c **** 
 369:Drivers/STM32F7xx_HAL_Driver/Src/stm32f7xx_ll_sdmmc.c ****   /* Set SDMMC command parameters */
 370:Drivers/STM32F7xx_HAL_Driver/Src/stm32f7xx_ll_sdmmc.c ****   tmpreg |= (uint32_t)(Command->CmdIndex         |\
 371:Drivers/STM32F7xx_HAL_Driver/Src/stm32f7xx_ll_sdmmc.c ****                        Command->Response         |\
 372:Drivers/STM32F7xx_HAL_Driver/Src/stm32f7xx_ll_sdmmc.c ****                        Command->WaitForInterrupt |\
 373:Drivers/STM32F7xx_HAL_Driver/Src/stm32f7xx_ll_sdmmc.c ****                        Command->CPSM);
ARM GAS  /tmp/ccPnSfMB.s 			page 8


 374:Drivers/STM32F7xx_HAL_Driver/Src/stm32f7xx_ll_sdmmc.c ****   
 375:Drivers/STM32F7xx_HAL_Driver/Src/stm32f7xx_ll_sdmmc.c ****   /* Write to SDMMC CMD register */
 376:Drivers/STM32F7xx_HAL_Driver/Src/stm32f7xx_ll_sdmmc.c ****   MODIFY_REG(SDMMCx->CMD, CMD_CLEAR_MASK, tmpreg); 
 377:Drivers/STM32F7xx_HAL_Driver/Src/stm32f7xx_ll_sdmmc.c ****   
 378:Drivers/STM32F7xx_HAL_Driver/Src/stm32f7xx_ll_sdmmc.c ****   return HAL_OK;  
 379:Drivers/STM32F7xx_HAL_Driver/Src/stm32f7xx_ll_sdmmc.c **** }
 380:Drivers/STM32F7xx_HAL_Driver/Src/stm32f7xx_ll_sdmmc.c **** 
 381:Drivers/STM32F7xx_HAL_Driver/Src/stm32f7xx_ll_sdmmc.c **** /**
 382:Drivers/STM32F7xx_HAL_Driver/Src/stm32f7xx_ll_sdmmc.c ****   * @brief  Return the command index of last command for which response received
 383:Drivers/STM32F7xx_HAL_Driver/Src/stm32f7xx_ll_sdmmc.c ****   * @param  SDMMCx: Pointer to SDMMC register base
 384:Drivers/STM32F7xx_HAL_Driver/Src/stm32f7xx_ll_sdmmc.c ****   * @retval Command index of the last command response received
 385:Drivers/STM32F7xx_HAL_Driver/Src/stm32f7xx_ll_sdmmc.c ****   */
 386:Drivers/STM32F7xx_HAL_Driver/Src/stm32f7xx_ll_sdmmc.c **** uint8_t SDMMC_GetCommandResponse(SDMMC_TypeDef *SDMMCx)
 387:Drivers/STM32F7xx_HAL_Driver/Src/stm32f7xx_ll_sdmmc.c **** {
 388:Drivers/STM32F7xx_HAL_Driver/Src/stm32f7xx_ll_sdmmc.c ****   return (uint8_t)(SDMMCx->RESPCMD);
 389:Drivers/STM32F7xx_HAL_Driver/Src/stm32f7xx_ll_sdmmc.c **** }
 390:Drivers/STM32F7xx_HAL_Driver/Src/stm32f7xx_ll_sdmmc.c **** 
 391:Drivers/STM32F7xx_HAL_Driver/Src/stm32f7xx_ll_sdmmc.c **** 
 392:Drivers/STM32F7xx_HAL_Driver/Src/stm32f7xx_ll_sdmmc.c **** /**
 393:Drivers/STM32F7xx_HAL_Driver/Src/stm32f7xx_ll_sdmmc.c ****   * @brief  Return the response received from the card for the last command
 394:Drivers/STM32F7xx_HAL_Driver/Src/stm32f7xx_ll_sdmmc.c ****   * @param  SDMMCx: Pointer to SDMMC register base    
 395:Drivers/STM32F7xx_HAL_Driver/Src/stm32f7xx_ll_sdmmc.c ****   * @param  Response: Specifies the SDMMC response register. 
 396:Drivers/STM32F7xx_HAL_Driver/Src/stm32f7xx_ll_sdmmc.c ****   *          This parameter can be one of the following values:
 397:Drivers/STM32F7xx_HAL_Driver/Src/stm32f7xx_ll_sdmmc.c ****   *            @arg SDMMC_RESP1: Response Register 1
 398:Drivers/STM32F7xx_HAL_Driver/Src/stm32f7xx_ll_sdmmc.c ****   *            @arg SDMMC_RESP2: Response Register 2
 399:Drivers/STM32F7xx_HAL_Driver/Src/stm32f7xx_ll_sdmmc.c ****   *            @arg SDMMC_RESP3: Response Register 3
 400:Drivers/STM32F7xx_HAL_Driver/Src/stm32f7xx_ll_sdmmc.c ****   *            @arg SDMMC_RESP4: Response Register 4  
 401:Drivers/STM32F7xx_HAL_Driver/Src/stm32f7xx_ll_sdmmc.c ****   * @retval The Corresponding response register value
 402:Drivers/STM32F7xx_HAL_Driver/Src/stm32f7xx_ll_sdmmc.c ****   */
 403:Drivers/STM32F7xx_HAL_Driver/Src/stm32f7xx_ll_sdmmc.c **** uint32_t SDMMC_GetResponse(SDMMC_TypeDef *SDMMCx, uint32_t Response)
 404:Drivers/STM32F7xx_HAL_Driver/Src/stm32f7xx_ll_sdmmc.c **** {
 405:Drivers/STM32F7xx_HAL_Driver/Src/stm32f7xx_ll_sdmmc.c ****   uint32_t tmp;
 406:Drivers/STM32F7xx_HAL_Driver/Src/stm32f7xx_ll_sdmmc.c **** 
 407:Drivers/STM32F7xx_HAL_Driver/Src/stm32f7xx_ll_sdmmc.c ****   /* Check the parameters */
 408:Drivers/STM32F7xx_HAL_Driver/Src/stm32f7xx_ll_sdmmc.c ****   assert_param(IS_SDMMC_RESP(Response));
 409:Drivers/STM32F7xx_HAL_Driver/Src/stm32f7xx_ll_sdmmc.c ****   
 410:Drivers/STM32F7xx_HAL_Driver/Src/stm32f7xx_ll_sdmmc.c ****   /* Get the response */
 411:Drivers/STM32F7xx_HAL_Driver/Src/stm32f7xx_ll_sdmmc.c ****   tmp = (uint32_t)(&(SDMMCx->RESP1)) + Response;
 412:Drivers/STM32F7xx_HAL_Driver/Src/stm32f7xx_ll_sdmmc.c ****   
 413:Drivers/STM32F7xx_HAL_Driver/Src/stm32f7xx_ll_sdmmc.c ****   return (*(__IO uint32_t *) tmp);
 414:Drivers/STM32F7xx_HAL_Driver/Src/stm32f7xx_ll_sdmmc.c **** }  
 415:Drivers/STM32F7xx_HAL_Driver/Src/stm32f7xx_ll_sdmmc.c **** 
 416:Drivers/STM32F7xx_HAL_Driver/Src/stm32f7xx_ll_sdmmc.c **** /**
 417:Drivers/STM32F7xx_HAL_Driver/Src/stm32f7xx_ll_sdmmc.c ****   * @brief  Configure the SDMMC data path according to the specified 
 418:Drivers/STM32F7xx_HAL_Driver/Src/stm32f7xx_ll_sdmmc.c ****   *         parameters in the SDMMC_DataInitTypeDef.
 419:Drivers/STM32F7xx_HAL_Driver/Src/stm32f7xx_ll_sdmmc.c ****   * @param  SDMMCx: Pointer to SDMMC register base  
 420:Drivers/STM32F7xx_HAL_Driver/Src/stm32f7xx_ll_sdmmc.c ****   * @param  Data : pointer to a SDMMC_DataInitTypeDef structure 
 421:Drivers/STM32F7xx_HAL_Driver/Src/stm32f7xx_ll_sdmmc.c ****   *         that contains the configuration information for the SDMMC data.
 422:Drivers/STM32F7xx_HAL_Driver/Src/stm32f7xx_ll_sdmmc.c ****   * @retval HAL status
 423:Drivers/STM32F7xx_HAL_Driver/Src/stm32f7xx_ll_sdmmc.c ****   */
 424:Drivers/STM32F7xx_HAL_Driver/Src/stm32f7xx_ll_sdmmc.c **** HAL_StatusTypeDef SDMMC_ConfigData(SDMMC_TypeDef *SDMMCx, SDMMC_DataInitTypeDef* Data)
 425:Drivers/STM32F7xx_HAL_Driver/Src/stm32f7xx_ll_sdmmc.c **** {
 426:Drivers/STM32F7xx_HAL_Driver/Src/stm32f7xx_ll_sdmmc.c ****   uint32_t tmpreg = 0;
 427:Drivers/STM32F7xx_HAL_Driver/Src/stm32f7xx_ll_sdmmc.c ****   
 428:Drivers/STM32F7xx_HAL_Driver/Src/stm32f7xx_ll_sdmmc.c ****   /* Check the parameters */
 429:Drivers/STM32F7xx_HAL_Driver/Src/stm32f7xx_ll_sdmmc.c ****   assert_param(IS_SDMMC_DATA_LENGTH(Data->DataLength));
 430:Drivers/STM32F7xx_HAL_Driver/Src/stm32f7xx_ll_sdmmc.c ****   assert_param(IS_SDMMC_BLOCK_SIZE(Data->DataBlockSize));
ARM GAS  /tmp/ccPnSfMB.s 			page 9


 431:Drivers/STM32F7xx_HAL_Driver/Src/stm32f7xx_ll_sdmmc.c ****   assert_param(IS_SDMMC_TRANSFER_DIR(Data->TransferDir));
 432:Drivers/STM32F7xx_HAL_Driver/Src/stm32f7xx_ll_sdmmc.c ****   assert_param(IS_SDMMC_TRANSFER_MODE(Data->TransferMode));
 433:Drivers/STM32F7xx_HAL_Driver/Src/stm32f7xx_ll_sdmmc.c ****   assert_param(IS_SDMMC_DPSM(Data->DPSM));
 434:Drivers/STM32F7xx_HAL_Driver/Src/stm32f7xx_ll_sdmmc.c **** 
 435:Drivers/STM32F7xx_HAL_Driver/Src/stm32f7xx_ll_sdmmc.c ****   /* Set the SDMMC Data TimeOut value */
 436:Drivers/STM32F7xx_HAL_Driver/Src/stm32f7xx_ll_sdmmc.c ****   SDMMCx->DTIMER = Data->DataTimeOut;
 437:Drivers/STM32F7xx_HAL_Driver/Src/stm32f7xx_ll_sdmmc.c **** 
 438:Drivers/STM32F7xx_HAL_Driver/Src/stm32f7xx_ll_sdmmc.c ****   /* Set the SDMMC DataLength value */
 439:Drivers/STM32F7xx_HAL_Driver/Src/stm32f7xx_ll_sdmmc.c ****   SDMMCx->DLEN = Data->DataLength;
 440:Drivers/STM32F7xx_HAL_Driver/Src/stm32f7xx_ll_sdmmc.c **** 
 441:Drivers/STM32F7xx_HAL_Driver/Src/stm32f7xx_ll_sdmmc.c ****   /* Set the SDMMC data configuration parameters */
 442:Drivers/STM32F7xx_HAL_Driver/Src/stm32f7xx_ll_sdmmc.c ****   tmpreg |= (uint32_t)(Data->DataBlockSize |\
 443:Drivers/STM32F7xx_HAL_Driver/Src/stm32f7xx_ll_sdmmc.c ****                        Data->TransferDir   |\
 444:Drivers/STM32F7xx_HAL_Driver/Src/stm32f7xx_ll_sdmmc.c ****                        Data->TransferMode  |\
 445:Drivers/STM32F7xx_HAL_Driver/Src/stm32f7xx_ll_sdmmc.c ****                        Data->DPSM);
 446:Drivers/STM32F7xx_HAL_Driver/Src/stm32f7xx_ll_sdmmc.c ****   
 447:Drivers/STM32F7xx_HAL_Driver/Src/stm32f7xx_ll_sdmmc.c ****   /* Write to SDMMC DCTRL */
 448:Drivers/STM32F7xx_HAL_Driver/Src/stm32f7xx_ll_sdmmc.c ****   MODIFY_REG(SDMMCx->DCTRL, DCTRL_CLEAR_MASK, tmpreg);
 449:Drivers/STM32F7xx_HAL_Driver/Src/stm32f7xx_ll_sdmmc.c **** 
 450:Drivers/STM32F7xx_HAL_Driver/Src/stm32f7xx_ll_sdmmc.c ****   return HAL_OK;
 451:Drivers/STM32F7xx_HAL_Driver/Src/stm32f7xx_ll_sdmmc.c **** 
 452:Drivers/STM32F7xx_HAL_Driver/Src/stm32f7xx_ll_sdmmc.c **** }
 453:Drivers/STM32F7xx_HAL_Driver/Src/stm32f7xx_ll_sdmmc.c **** 
 454:Drivers/STM32F7xx_HAL_Driver/Src/stm32f7xx_ll_sdmmc.c **** /**
 455:Drivers/STM32F7xx_HAL_Driver/Src/stm32f7xx_ll_sdmmc.c ****   * @brief  Returns number of remaining data bytes to be transferred.
 456:Drivers/STM32F7xx_HAL_Driver/Src/stm32f7xx_ll_sdmmc.c ****   * @param  SDMMCx: Pointer to SDMMC register base
 457:Drivers/STM32F7xx_HAL_Driver/Src/stm32f7xx_ll_sdmmc.c ****   * @retval Number of remaining data bytes to be transferred
 458:Drivers/STM32F7xx_HAL_Driver/Src/stm32f7xx_ll_sdmmc.c ****   */
 459:Drivers/STM32F7xx_HAL_Driver/Src/stm32f7xx_ll_sdmmc.c **** uint32_t SDMMC_GetDataCounter(SDMMC_TypeDef *SDMMCx)
 460:Drivers/STM32F7xx_HAL_Driver/Src/stm32f7xx_ll_sdmmc.c **** {
 461:Drivers/STM32F7xx_HAL_Driver/Src/stm32f7xx_ll_sdmmc.c ****   return (SDMMCx->DCOUNT);
 462:Drivers/STM32F7xx_HAL_Driver/Src/stm32f7xx_ll_sdmmc.c **** }
 463:Drivers/STM32F7xx_HAL_Driver/Src/stm32f7xx_ll_sdmmc.c **** 
 464:Drivers/STM32F7xx_HAL_Driver/Src/stm32f7xx_ll_sdmmc.c **** /**
 465:Drivers/STM32F7xx_HAL_Driver/Src/stm32f7xx_ll_sdmmc.c ****   * @brief  Get the FIFO data
 466:Drivers/STM32F7xx_HAL_Driver/Src/stm32f7xx_ll_sdmmc.c ****   * @param  SDMMCx: Pointer to SDMMC register base 
 467:Drivers/STM32F7xx_HAL_Driver/Src/stm32f7xx_ll_sdmmc.c ****   * @retval Data received
 468:Drivers/STM32F7xx_HAL_Driver/Src/stm32f7xx_ll_sdmmc.c ****   */
 469:Drivers/STM32F7xx_HAL_Driver/Src/stm32f7xx_ll_sdmmc.c **** uint32_t SDMMC_GetFIFOCount(SDMMC_TypeDef *SDMMCx)
 470:Drivers/STM32F7xx_HAL_Driver/Src/stm32f7xx_ll_sdmmc.c **** {
 471:Drivers/STM32F7xx_HAL_Driver/Src/stm32f7xx_ll_sdmmc.c ****   return (SDMMCx->FIFO);
 472:Drivers/STM32F7xx_HAL_Driver/Src/stm32f7xx_ll_sdmmc.c **** }
 473:Drivers/STM32F7xx_HAL_Driver/Src/stm32f7xx_ll_sdmmc.c **** 
 474:Drivers/STM32F7xx_HAL_Driver/Src/stm32f7xx_ll_sdmmc.c **** /**
 475:Drivers/STM32F7xx_HAL_Driver/Src/stm32f7xx_ll_sdmmc.c ****   * @brief  Sets one of the two options of inserting read wait interval.
 476:Drivers/STM32F7xx_HAL_Driver/Src/stm32f7xx_ll_sdmmc.c ****   * @param  SDMMCx: Pointer to SDMMC register base   
 477:Drivers/STM32F7xx_HAL_Driver/Src/stm32f7xx_ll_sdmmc.c ****   * @param  SDMMC_ReadWaitMode: SDMMC Read Wait operation mode.
 478:Drivers/STM32F7xx_HAL_Driver/Src/stm32f7xx_ll_sdmmc.c ****   *          This parameter can be:
 479:Drivers/STM32F7xx_HAL_Driver/Src/stm32f7xx_ll_sdmmc.c ****   *            @arg SDMMC_READ_WAIT_MODE_CLK: Read Wait control by stopping SDMMCCLK
 480:Drivers/STM32F7xx_HAL_Driver/Src/stm32f7xx_ll_sdmmc.c ****   *            @arg SDMMC_READ_WAIT_MODE_DATA2: Read Wait control using SDMMC_DATA2
 481:Drivers/STM32F7xx_HAL_Driver/Src/stm32f7xx_ll_sdmmc.c ****   * @retval None
 482:Drivers/STM32F7xx_HAL_Driver/Src/stm32f7xx_ll_sdmmc.c ****   */
 483:Drivers/STM32F7xx_HAL_Driver/Src/stm32f7xx_ll_sdmmc.c **** HAL_StatusTypeDef SDMMC_SetSDMMCReadWaitMode(SDMMC_TypeDef *SDMMCx, uint32_t SDMMC_ReadWaitMode)
 484:Drivers/STM32F7xx_HAL_Driver/Src/stm32f7xx_ll_sdmmc.c **** {
 485:Drivers/STM32F7xx_HAL_Driver/Src/stm32f7xx_ll_sdmmc.c ****   /* Check the parameters */
 486:Drivers/STM32F7xx_HAL_Driver/Src/stm32f7xx_ll_sdmmc.c ****   assert_param(IS_SDMMC_READWAIT_MODE(SDMMC_ReadWaitMode));
 487:Drivers/STM32F7xx_HAL_Driver/Src/stm32f7xx_ll_sdmmc.c **** 
ARM GAS  /tmp/ccPnSfMB.s 			page 10


 488:Drivers/STM32F7xx_HAL_Driver/Src/stm32f7xx_ll_sdmmc.c ****   /* Set SDMMC read wait mode */
 489:Drivers/STM32F7xx_HAL_Driver/Src/stm32f7xx_ll_sdmmc.c ****   MODIFY_REG(SDMMCx->DCTRL, SDMMC_DCTRL_RWMOD, SDMMC_ReadWaitMode);
 490:Drivers/STM32F7xx_HAL_Driver/Src/stm32f7xx_ll_sdmmc.c ****   
 491:Drivers/STM32F7xx_HAL_Driver/Src/stm32f7xx_ll_sdmmc.c ****   return HAL_OK;  
 492:Drivers/STM32F7xx_HAL_Driver/Src/stm32f7xx_ll_sdmmc.c **** }
 493:Drivers/STM32F7xx_HAL_Driver/Src/stm32f7xx_ll_sdmmc.c **** 
 494:Drivers/STM32F7xx_HAL_Driver/Src/stm32f7xx_ll_sdmmc.c **** /**
 495:Drivers/STM32F7xx_HAL_Driver/Src/stm32f7xx_ll_sdmmc.c ****   * @}
 496:Drivers/STM32F7xx_HAL_Driver/Src/stm32f7xx_ll_sdmmc.c ****   */
 497:Drivers/STM32F7xx_HAL_Driver/Src/stm32f7xx_ll_sdmmc.c **** 
 498:Drivers/STM32F7xx_HAL_Driver/Src/stm32f7xx_ll_sdmmc.c **** 
 499:Drivers/STM32F7xx_HAL_Driver/Src/stm32f7xx_ll_sdmmc.c **** /** @defgroup HAL_SDMMC_LL_Group4 Command management functions 
 500:Drivers/STM32F7xx_HAL_Driver/Src/stm32f7xx_ll_sdmmc.c ****  *  @brief   Data transfers functions 
 501:Drivers/STM32F7xx_HAL_Driver/Src/stm32f7xx_ll_sdmmc.c ****  *
 502:Drivers/STM32F7xx_HAL_Driver/Src/stm32f7xx_ll_sdmmc.c **** @verbatim   
 503:Drivers/STM32F7xx_HAL_Driver/Src/stm32f7xx_ll_sdmmc.c ****  ===============================================================================
 504:Drivers/STM32F7xx_HAL_Driver/Src/stm32f7xx_ll_sdmmc.c ****                    ##### Commands management functions #####
 505:Drivers/STM32F7xx_HAL_Driver/Src/stm32f7xx_ll_sdmmc.c ****  ===============================================================================  
 506:Drivers/STM32F7xx_HAL_Driver/Src/stm32f7xx_ll_sdmmc.c ****     [..]
 507:Drivers/STM32F7xx_HAL_Driver/Src/stm32f7xx_ll_sdmmc.c ****     This subsection provides a set of functions allowing to manage the needed commands.
 508:Drivers/STM32F7xx_HAL_Driver/Src/stm32f7xx_ll_sdmmc.c **** 
 509:Drivers/STM32F7xx_HAL_Driver/Src/stm32f7xx_ll_sdmmc.c **** @endverbatim
 510:Drivers/STM32F7xx_HAL_Driver/Src/stm32f7xx_ll_sdmmc.c ****   * @{
 511:Drivers/STM32F7xx_HAL_Driver/Src/stm32f7xx_ll_sdmmc.c ****   */
 512:Drivers/STM32F7xx_HAL_Driver/Src/stm32f7xx_ll_sdmmc.c **** 
 513:Drivers/STM32F7xx_HAL_Driver/Src/stm32f7xx_ll_sdmmc.c **** /**
 514:Drivers/STM32F7xx_HAL_Driver/Src/stm32f7xx_ll_sdmmc.c ****   * @brief  Send the Data Block Lenght command and check the response
 515:Drivers/STM32F7xx_HAL_Driver/Src/stm32f7xx_ll_sdmmc.c ****   * @param  SDMMCx: Pointer to SDMMC register base 
 516:Drivers/STM32F7xx_HAL_Driver/Src/stm32f7xx_ll_sdmmc.c ****   * @retval HAL status
 517:Drivers/STM32F7xx_HAL_Driver/Src/stm32f7xx_ll_sdmmc.c ****   */
 518:Drivers/STM32F7xx_HAL_Driver/Src/stm32f7xx_ll_sdmmc.c **** uint32_t SDMMC_CmdBlockLength(SDMMC_TypeDef *SDMMCx, uint32_t BlockSize)
 519:Drivers/STM32F7xx_HAL_Driver/Src/stm32f7xx_ll_sdmmc.c **** {
 520:Drivers/STM32F7xx_HAL_Driver/Src/stm32f7xx_ll_sdmmc.c ****   SDMMC_CmdInitTypeDef  sdmmc_cmdinit;
 521:Drivers/STM32F7xx_HAL_Driver/Src/stm32f7xx_ll_sdmmc.c ****   uint32_t errorstate;
 522:Drivers/STM32F7xx_HAL_Driver/Src/stm32f7xx_ll_sdmmc.c ****   
 523:Drivers/STM32F7xx_HAL_Driver/Src/stm32f7xx_ll_sdmmc.c ****   /* Set Block Size for Card */ 
 524:Drivers/STM32F7xx_HAL_Driver/Src/stm32f7xx_ll_sdmmc.c ****   sdmmc_cmdinit.Argument         = (uint32_t)BlockSize;
 525:Drivers/STM32F7xx_HAL_Driver/Src/stm32f7xx_ll_sdmmc.c ****   sdmmc_cmdinit.CmdIndex         = SDMMC_CMD_SET_BLOCKLEN;
 526:Drivers/STM32F7xx_HAL_Driver/Src/stm32f7xx_ll_sdmmc.c ****   sdmmc_cmdinit.Response         = SDMMC_RESPONSE_SHORT;
 527:Drivers/STM32F7xx_HAL_Driver/Src/stm32f7xx_ll_sdmmc.c ****   sdmmc_cmdinit.WaitForInterrupt = SDMMC_WAIT_NO;
 528:Drivers/STM32F7xx_HAL_Driver/Src/stm32f7xx_ll_sdmmc.c ****   sdmmc_cmdinit.CPSM             = SDMMC_CPSM_ENABLE;
 529:Drivers/STM32F7xx_HAL_Driver/Src/stm32f7xx_ll_sdmmc.c ****   (void)SDMMC_SendCommand(SDMMCx, &sdmmc_cmdinit);
 530:Drivers/STM32F7xx_HAL_Driver/Src/stm32f7xx_ll_sdmmc.c ****   
 531:Drivers/STM32F7xx_HAL_Driver/Src/stm32f7xx_ll_sdmmc.c ****   /* Check for error conditions */
 532:Drivers/STM32F7xx_HAL_Driver/Src/stm32f7xx_ll_sdmmc.c ****   errorstate = SDMMC_GetCmdResp1(SDMMCx, SDMMC_CMD_SET_BLOCKLEN, SDMMC_CMDTIMEOUT);
 533:Drivers/STM32F7xx_HAL_Driver/Src/stm32f7xx_ll_sdmmc.c **** 
 534:Drivers/STM32F7xx_HAL_Driver/Src/stm32f7xx_ll_sdmmc.c ****   return errorstate;
 535:Drivers/STM32F7xx_HAL_Driver/Src/stm32f7xx_ll_sdmmc.c **** }
 536:Drivers/STM32F7xx_HAL_Driver/Src/stm32f7xx_ll_sdmmc.c **** 
 537:Drivers/STM32F7xx_HAL_Driver/Src/stm32f7xx_ll_sdmmc.c **** /**
 538:Drivers/STM32F7xx_HAL_Driver/Src/stm32f7xx_ll_sdmmc.c ****   * @brief  Send the Read Single Block command and check the response
 539:Drivers/STM32F7xx_HAL_Driver/Src/stm32f7xx_ll_sdmmc.c ****   * @param  SDMMCx: Pointer to SDMMC register base 
 540:Drivers/STM32F7xx_HAL_Driver/Src/stm32f7xx_ll_sdmmc.c ****   * @retval HAL status
 541:Drivers/STM32F7xx_HAL_Driver/Src/stm32f7xx_ll_sdmmc.c ****   */
 542:Drivers/STM32F7xx_HAL_Driver/Src/stm32f7xx_ll_sdmmc.c **** uint32_t SDMMC_CmdReadSingleBlock(SDMMC_TypeDef *SDMMCx, uint32_t ReadAdd)
 543:Drivers/STM32F7xx_HAL_Driver/Src/stm32f7xx_ll_sdmmc.c **** {
 544:Drivers/STM32F7xx_HAL_Driver/Src/stm32f7xx_ll_sdmmc.c ****   SDMMC_CmdInitTypeDef  sdmmc_cmdinit;
ARM GAS  /tmp/ccPnSfMB.s 			page 11


 545:Drivers/STM32F7xx_HAL_Driver/Src/stm32f7xx_ll_sdmmc.c ****   uint32_t errorstate;
 546:Drivers/STM32F7xx_HAL_Driver/Src/stm32f7xx_ll_sdmmc.c ****   
 547:Drivers/STM32F7xx_HAL_Driver/Src/stm32f7xx_ll_sdmmc.c ****   /* Set Block Size for Card */ 
 548:Drivers/STM32F7xx_HAL_Driver/Src/stm32f7xx_ll_sdmmc.c ****   sdmmc_cmdinit.Argument         = (uint32_t)ReadAdd;
 549:Drivers/STM32F7xx_HAL_Driver/Src/stm32f7xx_ll_sdmmc.c ****   sdmmc_cmdinit.CmdIndex         = SDMMC_CMD_READ_SINGLE_BLOCK;
 550:Drivers/STM32F7xx_HAL_Driver/Src/stm32f7xx_ll_sdmmc.c ****   sdmmc_cmdinit.Response         = SDMMC_RESPONSE_SHORT;
 551:Drivers/STM32F7xx_HAL_Driver/Src/stm32f7xx_ll_sdmmc.c ****   sdmmc_cmdinit.WaitForInterrupt = SDMMC_WAIT_NO;
 552:Drivers/STM32F7xx_HAL_Driver/Src/stm32f7xx_ll_sdmmc.c ****   sdmmc_cmdinit.CPSM             = SDMMC_CPSM_ENABLE;
 553:Drivers/STM32F7xx_HAL_Driver/Src/stm32f7xx_ll_sdmmc.c ****   (void)SDMMC_SendCommand(SDMMCx, &sdmmc_cmdinit);
 554:Drivers/STM32F7xx_HAL_Driver/Src/stm32f7xx_ll_sdmmc.c ****   
 555:Drivers/STM32F7xx_HAL_Driver/Src/stm32f7xx_ll_sdmmc.c ****   /* Check for error conditions */
 556:Drivers/STM32F7xx_HAL_Driver/Src/stm32f7xx_ll_sdmmc.c ****   errorstate = SDMMC_GetCmdResp1(SDMMCx, SDMMC_CMD_READ_SINGLE_BLOCK, SDMMC_CMDTIMEOUT);
 557:Drivers/STM32F7xx_HAL_Driver/Src/stm32f7xx_ll_sdmmc.c **** 
 558:Drivers/STM32F7xx_HAL_Driver/Src/stm32f7xx_ll_sdmmc.c ****   return errorstate;
 559:Drivers/STM32F7xx_HAL_Driver/Src/stm32f7xx_ll_sdmmc.c **** }
 560:Drivers/STM32F7xx_HAL_Driver/Src/stm32f7xx_ll_sdmmc.c **** 
 561:Drivers/STM32F7xx_HAL_Driver/Src/stm32f7xx_ll_sdmmc.c **** /**
 562:Drivers/STM32F7xx_HAL_Driver/Src/stm32f7xx_ll_sdmmc.c ****   * @brief  Send the Read Multi Block command and check the response
 563:Drivers/STM32F7xx_HAL_Driver/Src/stm32f7xx_ll_sdmmc.c ****   * @param  SDMMCx: Pointer to SDMMC register base 
 564:Drivers/STM32F7xx_HAL_Driver/Src/stm32f7xx_ll_sdmmc.c ****   * @retval HAL status
 565:Drivers/STM32F7xx_HAL_Driver/Src/stm32f7xx_ll_sdmmc.c ****   */
 566:Drivers/STM32F7xx_HAL_Driver/Src/stm32f7xx_ll_sdmmc.c **** uint32_t SDMMC_CmdReadMultiBlock(SDMMC_TypeDef *SDMMCx, uint32_t ReadAdd)
 567:Drivers/STM32F7xx_HAL_Driver/Src/stm32f7xx_ll_sdmmc.c **** {
 568:Drivers/STM32F7xx_HAL_Driver/Src/stm32f7xx_ll_sdmmc.c ****   SDMMC_CmdInitTypeDef  sdmmc_cmdinit;
 569:Drivers/STM32F7xx_HAL_Driver/Src/stm32f7xx_ll_sdmmc.c ****   uint32_t errorstate;
 570:Drivers/STM32F7xx_HAL_Driver/Src/stm32f7xx_ll_sdmmc.c ****   
 571:Drivers/STM32F7xx_HAL_Driver/Src/stm32f7xx_ll_sdmmc.c ****   /* Set Block Size for Card */ 
 572:Drivers/STM32F7xx_HAL_Driver/Src/stm32f7xx_ll_sdmmc.c ****   sdmmc_cmdinit.Argument         = (uint32_t)ReadAdd;
 573:Drivers/STM32F7xx_HAL_Driver/Src/stm32f7xx_ll_sdmmc.c ****   sdmmc_cmdinit.CmdIndex         = SDMMC_CMD_READ_MULT_BLOCK;
 574:Drivers/STM32F7xx_HAL_Driver/Src/stm32f7xx_ll_sdmmc.c ****   sdmmc_cmdinit.Response         = SDMMC_RESPONSE_SHORT;
 575:Drivers/STM32F7xx_HAL_Driver/Src/stm32f7xx_ll_sdmmc.c ****   sdmmc_cmdinit.WaitForInterrupt = SDMMC_WAIT_NO;
 576:Drivers/STM32F7xx_HAL_Driver/Src/stm32f7xx_ll_sdmmc.c ****   sdmmc_cmdinit.CPSM             = SDMMC_CPSM_ENABLE;
 577:Drivers/STM32F7xx_HAL_Driver/Src/stm32f7xx_ll_sdmmc.c ****   (void)SDMMC_SendCommand(SDMMCx, &sdmmc_cmdinit);
 578:Drivers/STM32F7xx_HAL_Driver/Src/stm32f7xx_ll_sdmmc.c ****   
 579:Drivers/STM32F7xx_HAL_Driver/Src/stm32f7xx_ll_sdmmc.c ****   /* Check for error conditions */
 580:Drivers/STM32F7xx_HAL_Driver/Src/stm32f7xx_ll_sdmmc.c ****   errorstate = SDMMC_GetCmdResp1(SDMMCx, SDMMC_CMD_READ_MULT_BLOCK, SDMMC_CMDTIMEOUT);
 581:Drivers/STM32F7xx_HAL_Driver/Src/stm32f7xx_ll_sdmmc.c **** 
 582:Drivers/STM32F7xx_HAL_Driver/Src/stm32f7xx_ll_sdmmc.c ****   return errorstate;
 583:Drivers/STM32F7xx_HAL_Driver/Src/stm32f7xx_ll_sdmmc.c **** }
 584:Drivers/STM32F7xx_HAL_Driver/Src/stm32f7xx_ll_sdmmc.c **** 
 585:Drivers/STM32F7xx_HAL_Driver/Src/stm32f7xx_ll_sdmmc.c **** /**
 586:Drivers/STM32F7xx_HAL_Driver/Src/stm32f7xx_ll_sdmmc.c ****   * @brief  Send the Write Single Block command and check the response
 587:Drivers/STM32F7xx_HAL_Driver/Src/stm32f7xx_ll_sdmmc.c ****   * @param  SDMMCx: Pointer to SDMMC register base 
 588:Drivers/STM32F7xx_HAL_Driver/Src/stm32f7xx_ll_sdmmc.c ****   * @retval HAL status
 589:Drivers/STM32F7xx_HAL_Driver/Src/stm32f7xx_ll_sdmmc.c ****   */
 590:Drivers/STM32F7xx_HAL_Driver/Src/stm32f7xx_ll_sdmmc.c **** uint32_t SDMMC_CmdWriteSingleBlock(SDMMC_TypeDef *SDMMCx, uint32_t WriteAdd)
 591:Drivers/STM32F7xx_HAL_Driver/Src/stm32f7xx_ll_sdmmc.c **** {
 592:Drivers/STM32F7xx_HAL_Driver/Src/stm32f7xx_ll_sdmmc.c ****   SDMMC_CmdInitTypeDef  sdmmc_cmdinit;
 593:Drivers/STM32F7xx_HAL_Driver/Src/stm32f7xx_ll_sdmmc.c ****   uint32_t errorstate;
 594:Drivers/STM32F7xx_HAL_Driver/Src/stm32f7xx_ll_sdmmc.c ****   
 595:Drivers/STM32F7xx_HAL_Driver/Src/stm32f7xx_ll_sdmmc.c ****   /* Set Block Size for Card */ 
 596:Drivers/STM32F7xx_HAL_Driver/Src/stm32f7xx_ll_sdmmc.c ****   sdmmc_cmdinit.Argument         = (uint32_t)WriteAdd;
 597:Drivers/STM32F7xx_HAL_Driver/Src/stm32f7xx_ll_sdmmc.c ****   sdmmc_cmdinit.CmdIndex         = SDMMC_CMD_WRITE_SINGLE_BLOCK;
 598:Drivers/STM32F7xx_HAL_Driver/Src/stm32f7xx_ll_sdmmc.c ****   sdmmc_cmdinit.Response         = SDMMC_RESPONSE_SHORT;
 599:Drivers/STM32F7xx_HAL_Driver/Src/stm32f7xx_ll_sdmmc.c ****   sdmmc_cmdinit.WaitForInterrupt = SDMMC_WAIT_NO;
 600:Drivers/STM32F7xx_HAL_Driver/Src/stm32f7xx_ll_sdmmc.c ****   sdmmc_cmdinit.CPSM             = SDMMC_CPSM_ENABLE;
 601:Drivers/STM32F7xx_HAL_Driver/Src/stm32f7xx_ll_sdmmc.c ****   (void)SDMMC_SendCommand(SDMMCx, &sdmmc_cmdinit);
ARM GAS  /tmp/ccPnSfMB.s 			page 12


 602:Drivers/STM32F7xx_HAL_Driver/Src/stm32f7xx_ll_sdmmc.c ****   
 603:Drivers/STM32F7xx_HAL_Driver/Src/stm32f7xx_ll_sdmmc.c ****   /* Check for error conditions */
 604:Drivers/STM32F7xx_HAL_Driver/Src/stm32f7xx_ll_sdmmc.c ****   errorstate = SDMMC_GetCmdResp1(SDMMCx, SDMMC_CMD_WRITE_SINGLE_BLOCK, SDMMC_CMDTIMEOUT);
 605:Drivers/STM32F7xx_HAL_Driver/Src/stm32f7xx_ll_sdmmc.c **** 
 606:Drivers/STM32F7xx_HAL_Driver/Src/stm32f7xx_ll_sdmmc.c ****   return errorstate;
 607:Drivers/STM32F7xx_HAL_Driver/Src/stm32f7xx_ll_sdmmc.c **** }
 608:Drivers/STM32F7xx_HAL_Driver/Src/stm32f7xx_ll_sdmmc.c **** 
 609:Drivers/STM32F7xx_HAL_Driver/Src/stm32f7xx_ll_sdmmc.c **** /**
 610:Drivers/STM32F7xx_HAL_Driver/Src/stm32f7xx_ll_sdmmc.c ****   * @brief  Send the Write Multi Block command and check the response
 611:Drivers/STM32F7xx_HAL_Driver/Src/stm32f7xx_ll_sdmmc.c ****   * @param  SDMMCx: Pointer to SDMMC register base 
 612:Drivers/STM32F7xx_HAL_Driver/Src/stm32f7xx_ll_sdmmc.c ****   * @retval HAL status
 613:Drivers/STM32F7xx_HAL_Driver/Src/stm32f7xx_ll_sdmmc.c ****   */
 614:Drivers/STM32F7xx_HAL_Driver/Src/stm32f7xx_ll_sdmmc.c **** uint32_t SDMMC_CmdWriteMultiBlock(SDMMC_TypeDef *SDMMCx, uint32_t WriteAdd)
 615:Drivers/STM32F7xx_HAL_Driver/Src/stm32f7xx_ll_sdmmc.c **** {
 616:Drivers/STM32F7xx_HAL_Driver/Src/stm32f7xx_ll_sdmmc.c ****   SDMMC_CmdInitTypeDef  sdmmc_cmdinit;
 617:Drivers/STM32F7xx_HAL_Driver/Src/stm32f7xx_ll_sdmmc.c ****   uint32_t errorstate;
 618:Drivers/STM32F7xx_HAL_Driver/Src/stm32f7xx_ll_sdmmc.c ****   
 619:Drivers/STM32F7xx_HAL_Driver/Src/stm32f7xx_ll_sdmmc.c ****   /* Set Block Size for Card */ 
 620:Drivers/STM32F7xx_HAL_Driver/Src/stm32f7xx_ll_sdmmc.c ****   sdmmc_cmdinit.Argument         = (uint32_t)WriteAdd;
 621:Drivers/STM32F7xx_HAL_Driver/Src/stm32f7xx_ll_sdmmc.c ****   sdmmc_cmdinit.CmdIndex         = SDMMC_CMD_WRITE_MULT_BLOCK;
 622:Drivers/STM32F7xx_HAL_Driver/Src/stm32f7xx_ll_sdmmc.c ****   sdmmc_cmdinit.Response         = SDMMC_RESPONSE_SHORT;
 623:Drivers/STM32F7xx_HAL_Driver/Src/stm32f7xx_ll_sdmmc.c ****   sdmmc_cmdinit.WaitForInterrupt = SDMMC_WAIT_NO;
 624:Drivers/STM32F7xx_HAL_Driver/Src/stm32f7xx_ll_sdmmc.c ****   sdmmc_cmdinit.CPSM             = SDMMC_CPSM_ENABLE;
 625:Drivers/STM32F7xx_HAL_Driver/Src/stm32f7xx_ll_sdmmc.c ****   (void)SDMMC_SendCommand(SDMMCx, &sdmmc_cmdinit);
 626:Drivers/STM32F7xx_HAL_Driver/Src/stm32f7xx_ll_sdmmc.c ****   
 627:Drivers/STM32F7xx_HAL_Driver/Src/stm32f7xx_ll_sdmmc.c ****   /* Check for error conditions */
 628:Drivers/STM32F7xx_HAL_Driver/Src/stm32f7xx_ll_sdmmc.c ****   errorstate = SDMMC_GetCmdResp1(SDMMCx, SDMMC_CMD_WRITE_MULT_BLOCK, SDMMC_CMDTIMEOUT);
 629:Drivers/STM32F7xx_HAL_Driver/Src/stm32f7xx_ll_sdmmc.c **** 
 630:Drivers/STM32F7xx_HAL_Driver/Src/stm32f7xx_ll_sdmmc.c ****   return errorstate;
 631:Drivers/STM32F7xx_HAL_Driver/Src/stm32f7xx_ll_sdmmc.c **** }
 632:Drivers/STM32F7xx_HAL_Driver/Src/stm32f7xx_ll_sdmmc.c **** 
 633:Drivers/STM32F7xx_HAL_Driver/Src/stm32f7xx_ll_sdmmc.c **** /**
 634:Drivers/STM32F7xx_HAL_Driver/Src/stm32f7xx_ll_sdmmc.c ****   * @brief  Send the Start Address Erase command for SD and check the response
 635:Drivers/STM32F7xx_HAL_Driver/Src/stm32f7xx_ll_sdmmc.c ****   * @param  SDMMCx: Pointer to SDMMC register base 
 636:Drivers/STM32F7xx_HAL_Driver/Src/stm32f7xx_ll_sdmmc.c ****   * @retval HAL status
 637:Drivers/STM32F7xx_HAL_Driver/Src/stm32f7xx_ll_sdmmc.c ****   */
 638:Drivers/STM32F7xx_HAL_Driver/Src/stm32f7xx_ll_sdmmc.c **** uint32_t SDMMC_CmdSDEraseStartAdd(SDMMC_TypeDef *SDMMCx, uint32_t StartAdd)
 639:Drivers/STM32F7xx_HAL_Driver/Src/stm32f7xx_ll_sdmmc.c **** {
 640:Drivers/STM32F7xx_HAL_Driver/Src/stm32f7xx_ll_sdmmc.c ****   SDMMC_CmdInitTypeDef  sdmmc_cmdinit;
 641:Drivers/STM32F7xx_HAL_Driver/Src/stm32f7xx_ll_sdmmc.c ****   uint32_t errorstate;
 642:Drivers/STM32F7xx_HAL_Driver/Src/stm32f7xx_ll_sdmmc.c ****   
 643:Drivers/STM32F7xx_HAL_Driver/Src/stm32f7xx_ll_sdmmc.c ****   /* Set Block Size for Card */ 
 644:Drivers/STM32F7xx_HAL_Driver/Src/stm32f7xx_ll_sdmmc.c ****   sdmmc_cmdinit.Argument         = (uint32_t)StartAdd;
 645:Drivers/STM32F7xx_HAL_Driver/Src/stm32f7xx_ll_sdmmc.c ****   sdmmc_cmdinit.CmdIndex         = SDMMC_CMD_SD_ERASE_GRP_START;
 646:Drivers/STM32F7xx_HAL_Driver/Src/stm32f7xx_ll_sdmmc.c ****   sdmmc_cmdinit.Response         = SDMMC_RESPONSE_SHORT;
 647:Drivers/STM32F7xx_HAL_Driver/Src/stm32f7xx_ll_sdmmc.c ****   sdmmc_cmdinit.WaitForInterrupt = SDMMC_WAIT_NO;
 648:Drivers/STM32F7xx_HAL_Driver/Src/stm32f7xx_ll_sdmmc.c ****   sdmmc_cmdinit.CPSM             = SDMMC_CPSM_ENABLE;
 649:Drivers/STM32F7xx_HAL_Driver/Src/stm32f7xx_ll_sdmmc.c ****   (void)SDMMC_SendCommand(SDMMCx, &sdmmc_cmdinit);
 650:Drivers/STM32F7xx_HAL_Driver/Src/stm32f7xx_ll_sdmmc.c ****   
 651:Drivers/STM32F7xx_HAL_Driver/Src/stm32f7xx_ll_sdmmc.c ****   /* Check for error conditions */
 652:Drivers/STM32F7xx_HAL_Driver/Src/stm32f7xx_ll_sdmmc.c ****   errorstate = SDMMC_GetCmdResp1(SDMMCx, SDMMC_CMD_SD_ERASE_GRP_START, SDMMC_CMDTIMEOUT);
 653:Drivers/STM32F7xx_HAL_Driver/Src/stm32f7xx_ll_sdmmc.c **** 
 654:Drivers/STM32F7xx_HAL_Driver/Src/stm32f7xx_ll_sdmmc.c ****   return errorstate;
 655:Drivers/STM32F7xx_HAL_Driver/Src/stm32f7xx_ll_sdmmc.c **** }
 656:Drivers/STM32F7xx_HAL_Driver/Src/stm32f7xx_ll_sdmmc.c **** 
 657:Drivers/STM32F7xx_HAL_Driver/Src/stm32f7xx_ll_sdmmc.c **** /**
 658:Drivers/STM32F7xx_HAL_Driver/Src/stm32f7xx_ll_sdmmc.c ****   * @brief  Send the End Address Erase command for SD and check the response
ARM GAS  /tmp/ccPnSfMB.s 			page 13


 659:Drivers/STM32F7xx_HAL_Driver/Src/stm32f7xx_ll_sdmmc.c ****   * @param  SDMMCx: Pointer to SDMMC register base 
 660:Drivers/STM32F7xx_HAL_Driver/Src/stm32f7xx_ll_sdmmc.c ****   * @retval HAL status
 661:Drivers/STM32F7xx_HAL_Driver/Src/stm32f7xx_ll_sdmmc.c ****   */
 662:Drivers/STM32F7xx_HAL_Driver/Src/stm32f7xx_ll_sdmmc.c **** uint32_t SDMMC_CmdSDEraseEndAdd(SDMMC_TypeDef *SDMMCx, uint32_t EndAdd)
 663:Drivers/STM32F7xx_HAL_Driver/Src/stm32f7xx_ll_sdmmc.c **** {
 664:Drivers/STM32F7xx_HAL_Driver/Src/stm32f7xx_ll_sdmmc.c ****   SDMMC_CmdInitTypeDef  sdmmc_cmdinit;
 665:Drivers/STM32F7xx_HAL_Driver/Src/stm32f7xx_ll_sdmmc.c ****   uint32_t errorstate;
 666:Drivers/STM32F7xx_HAL_Driver/Src/stm32f7xx_ll_sdmmc.c ****   
 667:Drivers/STM32F7xx_HAL_Driver/Src/stm32f7xx_ll_sdmmc.c ****   /* Set Block Size for Card */ 
 668:Drivers/STM32F7xx_HAL_Driver/Src/stm32f7xx_ll_sdmmc.c ****   sdmmc_cmdinit.Argument         = (uint32_t)EndAdd;
 669:Drivers/STM32F7xx_HAL_Driver/Src/stm32f7xx_ll_sdmmc.c ****   sdmmc_cmdinit.CmdIndex         = SDMMC_CMD_SD_ERASE_GRP_END;
 670:Drivers/STM32F7xx_HAL_Driver/Src/stm32f7xx_ll_sdmmc.c ****   sdmmc_cmdinit.Response         = SDMMC_RESPONSE_SHORT;
 671:Drivers/STM32F7xx_HAL_Driver/Src/stm32f7xx_ll_sdmmc.c ****   sdmmc_cmdinit.WaitForInterrupt = SDMMC_WAIT_NO;
 672:Drivers/STM32F7xx_HAL_Driver/Src/stm32f7xx_ll_sdmmc.c ****   sdmmc_cmdinit.CPSM             = SDMMC_CPSM_ENABLE;
 673:Drivers/STM32F7xx_HAL_Driver/Src/stm32f7xx_ll_sdmmc.c ****   (void)SDMMC_SendCommand(SDMMCx, &sdmmc_cmdinit);
 674:Drivers/STM32F7xx_HAL_Driver/Src/stm32f7xx_ll_sdmmc.c ****   
 675:Drivers/STM32F7xx_HAL_Driver/Src/stm32f7xx_ll_sdmmc.c ****   /* Check for error conditions */
 676:Drivers/STM32F7xx_HAL_Driver/Src/stm32f7xx_ll_sdmmc.c ****   errorstate = SDMMC_GetCmdResp1(SDMMCx, SDMMC_CMD_SD_ERASE_GRP_END, SDMMC_CMDTIMEOUT);
 677:Drivers/STM32F7xx_HAL_Driver/Src/stm32f7xx_ll_sdmmc.c **** 
 678:Drivers/STM32F7xx_HAL_Driver/Src/stm32f7xx_ll_sdmmc.c ****   return errorstate;
 679:Drivers/STM32F7xx_HAL_Driver/Src/stm32f7xx_ll_sdmmc.c **** }
 680:Drivers/STM32F7xx_HAL_Driver/Src/stm32f7xx_ll_sdmmc.c **** 
 681:Drivers/STM32F7xx_HAL_Driver/Src/stm32f7xx_ll_sdmmc.c **** /**
 682:Drivers/STM32F7xx_HAL_Driver/Src/stm32f7xx_ll_sdmmc.c ****   * @brief  Send the Start Address Erase command and check the response
 683:Drivers/STM32F7xx_HAL_Driver/Src/stm32f7xx_ll_sdmmc.c ****   * @param  SDMMCx: Pointer to SDMMC register base 
 684:Drivers/STM32F7xx_HAL_Driver/Src/stm32f7xx_ll_sdmmc.c ****   * @retval HAL status
 685:Drivers/STM32F7xx_HAL_Driver/Src/stm32f7xx_ll_sdmmc.c ****   */
 686:Drivers/STM32F7xx_HAL_Driver/Src/stm32f7xx_ll_sdmmc.c **** uint32_t SDMMC_CmdEraseStartAdd(SDMMC_TypeDef *SDMMCx, uint32_t StartAdd)
 687:Drivers/STM32F7xx_HAL_Driver/Src/stm32f7xx_ll_sdmmc.c **** {
 688:Drivers/STM32F7xx_HAL_Driver/Src/stm32f7xx_ll_sdmmc.c ****   SDMMC_CmdInitTypeDef  sdmmc_cmdinit;
 689:Drivers/STM32F7xx_HAL_Driver/Src/stm32f7xx_ll_sdmmc.c ****   uint32_t errorstate;
 690:Drivers/STM32F7xx_HAL_Driver/Src/stm32f7xx_ll_sdmmc.c ****   
 691:Drivers/STM32F7xx_HAL_Driver/Src/stm32f7xx_ll_sdmmc.c ****   /* Set Block Size for Card */ 
 692:Drivers/STM32F7xx_HAL_Driver/Src/stm32f7xx_ll_sdmmc.c ****   sdmmc_cmdinit.Argument         = (uint32_t)StartAdd;
 693:Drivers/STM32F7xx_HAL_Driver/Src/stm32f7xx_ll_sdmmc.c ****   sdmmc_cmdinit.CmdIndex         = SDMMC_CMD_ERASE_GRP_START;
 694:Drivers/STM32F7xx_HAL_Driver/Src/stm32f7xx_ll_sdmmc.c ****   sdmmc_cmdinit.Response         = SDMMC_RESPONSE_SHORT;
 695:Drivers/STM32F7xx_HAL_Driver/Src/stm32f7xx_ll_sdmmc.c ****   sdmmc_cmdinit.WaitForInterrupt = SDMMC_WAIT_NO;
 696:Drivers/STM32F7xx_HAL_Driver/Src/stm32f7xx_ll_sdmmc.c ****   sdmmc_cmdinit.CPSM             = SDMMC_CPSM_ENABLE;
 697:Drivers/STM32F7xx_HAL_Driver/Src/stm32f7xx_ll_sdmmc.c ****   (void)SDMMC_SendCommand(SDMMCx, &sdmmc_cmdinit);
 698:Drivers/STM32F7xx_HAL_Driver/Src/stm32f7xx_ll_sdmmc.c ****   
 699:Drivers/STM32F7xx_HAL_Driver/Src/stm32f7xx_ll_sdmmc.c ****   /* Check for error conditions */
 700:Drivers/STM32F7xx_HAL_Driver/Src/stm32f7xx_ll_sdmmc.c ****   errorstate = SDMMC_GetCmdResp1(SDMMCx, SDMMC_CMD_ERASE_GRP_START, SDMMC_CMDTIMEOUT);
 701:Drivers/STM32F7xx_HAL_Driver/Src/stm32f7xx_ll_sdmmc.c **** 
 702:Drivers/STM32F7xx_HAL_Driver/Src/stm32f7xx_ll_sdmmc.c ****   return errorstate;
 703:Drivers/STM32F7xx_HAL_Driver/Src/stm32f7xx_ll_sdmmc.c **** }
 704:Drivers/STM32F7xx_HAL_Driver/Src/stm32f7xx_ll_sdmmc.c **** 
 705:Drivers/STM32F7xx_HAL_Driver/Src/stm32f7xx_ll_sdmmc.c **** /**
 706:Drivers/STM32F7xx_HAL_Driver/Src/stm32f7xx_ll_sdmmc.c ****   * @brief  Send the End Address Erase command and check the response
 707:Drivers/STM32F7xx_HAL_Driver/Src/stm32f7xx_ll_sdmmc.c ****   * @param  SDMMCx: Pointer to SDMMC register base 
 708:Drivers/STM32F7xx_HAL_Driver/Src/stm32f7xx_ll_sdmmc.c ****   * @retval HAL status
 709:Drivers/STM32F7xx_HAL_Driver/Src/stm32f7xx_ll_sdmmc.c ****   */
 710:Drivers/STM32F7xx_HAL_Driver/Src/stm32f7xx_ll_sdmmc.c **** uint32_t SDMMC_CmdEraseEndAdd(SDMMC_TypeDef *SDMMCx, uint32_t EndAdd)
 711:Drivers/STM32F7xx_HAL_Driver/Src/stm32f7xx_ll_sdmmc.c **** {
 712:Drivers/STM32F7xx_HAL_Driver/Src/stm32f7xx_ll_sdmmc.c ****   SDMMC_CmdInitTypeDef  sdmmc_cmdinit;
 713:Drivers/STM32F7xx_HAL_Driver/Src/stm32f7xx_ll_sdmmc.c ****   uint32_t errorstate;
 714:Drivers/STM32F7xx_HAL_Driver/Src/stm32f7xx_ll_sdmmc.c ****   
 715:Drivers/STM32F7xx_HAL_Driver/Src/stm32f7xx_ll_sdmmc.c ****   /* Set Block Size for Card */ 
ARM GAS  /tmp/ccPnSfMB.s 			page 14


 716:Drivers/STM32F7xx_HAL_Driver/Src/stm32f7xx_ll_sdmmc.c ****   sdmmc_cmdinit.Argument         = (uint32_t)EndAdd;
 717:Drivers/STM32F7xx_HAL_Driver/Src/stm32f7xx_ll_sdmmc.c ****   sdmmc_cmdinit.CmdIndex         = SDMMC_CMD_ERASE_GRP_END;
 718:Drivers/STM32F7xx_HAL_Driver/Src/stm32f7xx_ll_sdmmc.c ****   sdmmc_cmdinit.Response         = SDMMC_RESPONSE_SHORT;
 719:Drivers/STM32F7xx_HAL_Driver/Src/stm32f7xx_ll_sdmmc.c ****   sdmmc_cmdinit.WaitForInterrupt = SDMMC_WAIT_NO;
 720:Drivers/STM32F7xx_HAL_Driver/Src/stm32f7xx_ll_sdmmc.c ****   sdmmc_cmdinit.CPSM             = SDMMC_CPSM_ENABLE;
 721:Drivers/STM32F7xx_HAL_Driver/Src/stm32f7xx_ll_sdmmc.c ****   (void)SDMMC_SendCommand(SDMMCx, &sdmmc_cmdinit);
 722:Drivers/STM32F7xx_HAL_Driver/Src/stm32f7xx_ll_sdmmc.c ****   
 723:Drivers/STM32F7xx_HAL_Driver/Src/stm32f7xx_ll_sdmmc.c ****   /* Check for error conditions */
 724:Drivers/STM32F7xx_HAL_Driver/Src/stm32f7xx_ll_sdmmc.c ****   errorstate = SDMMC_GetCmdResp1(SDMMCx, SDMMC_CMD_ERASE_GRP_END, SDMMC_CMDTIMEOUT);
 725:Drivers/STM32F7xx_HAL_Driver/Src/stm32f7xx_ll_sdmmc.c **** 
 726:Drivers/STM32F7xx_HAL_Driver/Src/stm32f7xx_ll_sdmmc.c ****   return errorstate;
 727:Drivers/STM32F7xx_HAL_Driver/Src/stm32f7xx_ll_sdmmc.c **** }
 728:Drivers/STM32F7xx_HAL_Driver/Src/stm32f7xx_ll_sdmmc.c **** 
 729:Drivers/STM32F7xx_HAL_Driver/Src/stm32f7xx_ll_sdmmc.c **** /**
 730:Drivers/STM32F7xx_HAL_Driver/Src/stm32f7xx_ll_sdmmc.c ****   * @brief  Send the Erase command and check the response
 731:Drivers/STM32F7xx_HAL_Driver/Src/stm32f7xx_ll_sdmmc.c ****   * @param  SDMMCx: Pointer to SDMMC register base 
 732:Drivers/STM32F7xx_HAL_Driver/Src/stm32f7xx_ll_sdmmc.c ****   * @retval HAL status
 733:Drivers/STM32F7xx_HAL_Driver/Src/stm32f7xx_ll_sdmmc.c ****   */
 734:Drivers/STM32F7xx_HAL_Driver/Src/stm32f7xx_ll_sdmmc.c **** uint32_t SDMMC_CmdErase(SDMMC_TypeDef *SDMMCx)
 735:Drivers/STM32F7xx_HAL_Driver/Src/stm32f7xx_ll_sdmmc.c **** {
 736:Drivers/STM32F7xx_HAL_Driver/Src/stm32f7xx_ll_sdmmc.c ****   SDMMC_CmdInitTypeDef  sdmmc_cmdinit;
 737:Drivers/STM32F7xx_HAL_Driver/Src/stm32f7xx_ll_sdmmc.c ****   uint32_t errorstate;
 738:Drivers/STM32F7xx_HAL_Driver/Src/stm32f7xx_ll_sdmmc.c ****   
 739:Drivers/STM32F7xx_HAL_Driver/Src/stm32f7xx_ll_sdmmc.c ****   /* Set Block Size for Card */ 
 740:Drivers/STM32F7xx_HAL_Driver/Src/stm32f7xx_ll_sdmmc.c ****   sdmmc_cmdinit.Argument         = 0U;
 741:Drivers/STM32F7xx_HAL_Driver/Src/stm32f7xx_ll_sdmmc.c ****   sdmmc_cmdinit.CmdIndex         = SDMMC_CMD_ERASE;
 742:Drivers/STM32F7xx_HAL_Driver/Src/stm32f7xx_ll_sdmmc.c ****   sdmmc_cmdinit.Response         = SDMMC_RESPONSE_SHORT;
 743:Drivers/STM32F7xx_HAL_Driver/Src/stm32f7xx_ll_sdmmc.c ****   sdmmc_cmdinit.WaitForInterrupt = SDMMC_WAIT_NO;
 744:Drivers/STM32F7xx_HAL_Driver/Src/stm32f7xx_ll_sdmmc.c ****   sdmmc_cmdinit.CPSM             = SDMMC_CPSM_ENABLE;
 745:Drivers/STM32F7xx_HAL_Driver/Src/stm32f7xx_ll_sdmmc.c ****   (void)SDMMC_SendCommand(SDMMCx, &sdmmc_cmdinit);
 746:Drivers/STM32F7xx_HAL_Driver/Src/stm32f7xx_ll_sdmmc.c ****   
 747:Drivers/STM32F7xx_HAL_Driver/Src/stm32f7xx_ll_sdmmc.c ****   /* Check for error conditions */
 748:Drivers/STM32F7xx_HAL_Driver/Src/stm32f7xx_ll_sdmmc.c ****   errorstate = SDMMC_GetCmdResp1(SDMMCx, SDMMC_CMD_ERASE, SDMMC_MAXERASETIMEOUT);
 749:Drivers/STM32F7xx_HAL_Driver/Src/stm32f7xx_ll_sdmmc.c **** 
 750:Drivers/STM32F7xx_HAL_Driver/Src/stm32f7xx_ll_sdmmc.c ****   return errorstate;
 751:Drivers/STM32F7xx_HAL_Driver/Src/stm32f7xx_ll_sdmmc.c **** }
 752:Drivers/STM32F7xx_HAL_Driver/Src/stm32f7xx_ll_sdmmc.c **** 
 753:Drivers/STM32F7xx_HAL_Driver/Src/stm32f7xx_ll_sdmmc.c **** /**
 754:Drivers/STM32F7xx_HAL_Driver/Src/stm32f7xx_ll_sdmmc.c ****   * @brief  Send the Stop Transfer command and check the response.
 755:Drivers/STM32F7xx_HAL_Driver/Src/stm32f7xx_ll_sdmmc.c ****   * @param  SDMMCx: Pointer to SDMMC register base 
 756:Drivers/STM32F7xx_HAL_Driver/Src/stm32f7xx_ll_sdmmc.c ****   * @retval HAL status
 757:Drivers/STM32F7xx_HAL_Driver/Src/stm32f7xx_ll_sdmmc.c ****   */
 758:Drivers/STM32F7xx_HAL_Driver/Src/stm32f7xx_ll_sdmmc.c **** uint32_t SDMMC_CmdStopTransfer(SDMMC_TypeDef *SDMMCx)
 759:Drivers/STM32F7xx_HAL_Driver/Src/stm32f7xx_ll_sdmmc.c **** {
 760:Drivers/STM32F7xx_HAL_Driver/Src/stm32f7xx_ll_sdmmc.c ****   SDMMC_CmdInitTypeDef  sdmmc_cmdinit;
 761:Drivers/STM32F7xx_HAL_Driver/Src/stm32f7xx_ll_sdmmc.c ****   uint32_t errorstate;
 762:Drivers/STM32F7xx_HAL_Driver/Src/stm32f7xx_ll_sdmmc.c ****   
 763:Drivers/STM32F7xx_HAL_Driver/Src/stm32f7xx_ll_sdmmc.c ****   /* Send CMD12 STOP_TRANSMISSION  */
 764:Drivers/STM32F7xx_HAL_Driver/Src/stm32f7xx_ll_sdmmc.c ****   sdmmc_cmdinit.Argument         = 0U;
 765:Drivers/STM32F7xx_HAL_Driver/Src/stm32f7xx_ll_sdmmc.c ****   sdmmc_cmdinit.CmdIndex         = SDMMC_CMD_STOP_TRANSMISSION;
 766:Drivers/STM32F7xx_HAL_Driver/Src/stm32f7xx_ll_sdmmc.c ****   sdmmc_cmdinit.Response         = SDMMC_RESPONSE_SHORT;
 767:Drivers/STM32F7xx_HAL_Driver/Src/stm32f7xx_ll_sdmmc.c ****   sdmmc_cmdinit.WaitForInterrupt = SDMMC_WAIT_NO;
 768:Drivers/STM32F7xx_HAL_Driver/Src/stm32f7xx_ll_sdmmc.c ****   sdmmc_cmdinit.CPSM             = SDMMC_CPSM_ENABLE;
 769:Drivers/STM32F7xx_HAL_Driver/Src/stm32f7xx_ll_sdmmc.c ****   (void)SDMMC_SendCommand(SDMMCx, &sdmmc_cmdinit);
 770:Drivers/STM32F7xx_HAL_Driver/Src/stm32f7xx_ll_sdmmc.c ****   
 771:Drivers/STM32F7xx_HAL_Driver/Src/stm32f7xx_ll_sdmmc.c ****   /* Check for error conditions */
 772:Drivers/STM32F7xx_HAL_Driver/Src/stm32f7xx_ll_sdmmc.c ****   errorstate = SDMMC_GetCmdResp1(SDMMCx, SDMMC_CMD_STOP_TRANSMISSION, SDMMC_STOPTRANSFERTIMEOUT);
ARM GAS  /tmp/ccPnSfMB.s 			page 15


 773:Drivers/STM32F7xx_HAL_Driver/Src/stm32f7xx_ll_sdmmc.c **** 
 774:Drivers/STM32F7xx_HAL_Driver/Src/stm32f7xx_ll_sdmmc.c ****   return errorstate;
 775:Drivers/STM32F7xx_HAL_Driver/Src/stm32f7xx_ll_sdmmc.c **** }
 776:Drivers/STM32F7xx_HAL_Driver/Src/stm32f7xx_ll_sdmmc.c **** 
 777:Drivers/STM32F7xx_HAL_Driver/Src/stm32f7xx_ll_sdmmc.c **** /**
 778:Drivers/STM32F7xx_HAL_Driver/Src/stm32f7xx_ll_sdmmc.c ****   * @brief  Send the Select Deselect command and check the response.
 779:Drivers/STM32F7xx_HAL_Driver/Src/stm32f7xx_ll_sdmmc.c ****   * @param  SDMMCx: Pointer to SDMMC register base 
 780:Drivers/STM32F7xx_HAL_Driver/Src/stm32f7xx_ll_sdmmc.c ****   * @param  addr: Address of the card to be selected  
 781:Drivers/STM32F7xx_HAL_Driver/Src/stm32f7xx_ll_sdmmc.c ****   * @retval HAL status
 782:Drivers/STM32F7xx_HAL_Driver/Src/stm32f7xx_ll_sdmmc.c ****   */
 783:Drivers/STM32F7xx_HAL_Driver/Src/stm32f7xx_ll_sdmmc.c **** uint32_t SDMMC_CmdSelDesel(SDMMC_TypeDef *SDMMCx, uint64_t Addr)
 784:Drivers/STM32F7xx_HAL_Driver/Src/stm32f7xx_ll_sdmmc.c **** {
 785:Drivers/STM32F7xx_HAL_Driver/Src/stm32f7xx_ll_sdmmc.c ****   SDMMC_CmdInitTypeDef  sdmmc_cmdinit;
 786:Drivers/STM32F7xx_HAL_Driver/Src/stm32f7xx_ll_sdmmc.c ****   uint32_t errorstate;
 787:Drivers/STM32F7xx_HAL_Driver/Src/stm32f7xx_ll_sdmmc.c ****   
 788:Drivers/STM32F7xx_HAL_Driver/Src/stm32f7xx_ll_sdmmc.c ****   /* Send CMD7 SDMMC_SEL_DESEL_CARD */
 789:Drivers/STM32F7xx_HAL_Driver/Src/stm32f7xx_ll_sdmmc.c ****   sdmmc_cmdinit.Argument         = (uint32_t)Addr;
 790:Drivers/STM32F7xx_HAL_Driver/Src/stm32f7xx_ll_sdmmc.c ****   sdmmc_cmdinit.CmdIndex         = SDMMC_CMD_SEL_DESEL_CARD;
 791:Drivers/STM32F7xx_HAL_Driver/Src/stm32f7xx_ll_sdmmc.c ****   sdmmc_cmdinit.Response         = SDMMC_RESPONSE_SHORT;
 792:Drivers/STM32F7xx_HAL_Driver/Src/stm32f7xx_ll_sdmmc.c ****   sdmmc_cmdinit.WaitForInterrupt = SDMMC_WAIT_NO;
 793:Drivers/STM32F7xx_HAL_Driver/Src/stm32f7xx_ll_sdmmc.c ****   sdmmc_cmdinit.CPSM             = SDMMC_CPSM_ENABLE;
 794:Drivers/STM32F7xx_HAL_Driver/Src/stm32f7xx_ll_sdmmc.c ****   (void)SDMMC_SendCommand(SDMMCx, &sdmmc_cmdinit);
 795:Drivers/STM32F7xx_HAL_Driver/Src/stm32f7xx_ll_sdmmc.c ****   
 796:Drivers/STM32F7xx_HAL_Driver/Src/stm32f7xx_ll_sdmmc.c ****   /* Check for error conditions */
 797:Drivers/STM32F7xx_HAL_Driver/Src/stm32f7xx_ll_sdmmc.c ****   errorstate = SDMMC_GetCmdResp1(SDMMCx, SDMMC_CMD_SEL_DESEL_CARD, SDMMC_CMDTIMEOUT);
 798:Drivers/STM32F7xx_HAL_Driver/Src/stm32f7xx_ll_sdmmc.c **** 
 799:Drivers/STM32F7xx_HAL_Driver/Src/stm32f7xx_ll_sdmmc.c ****   return errorstate;
 800:Drivers/STM32F7xx_HAL_Driver/Src/stm32f7xx_ll_sdmmc.c **** }
 801:Drivers/STM32F7xx_HAL_Driver/Src/stm32f7xx_ll_sdmmc.c **** 
 802:Drivers/STM32F7xx_HAL_Driver/Src/stm32f7xx_ll_sdmmc.c **** /**
 803:Drivers/STM32F7xx_HAL_Driver/Src/stm32f7xx_ll_sdmmc.c ****   * @brief  Send the Go Idle State command and check the response.
 804:Drivers/STM32F7xx_HAL_Driver/Src/stm32f7xx_ll_sdmmc.c ****   * @param  SDMMCx: Pointer to SDMMC register base 
 805:Drivers/STM32F7xx_HAL_Driver/Src/stm32f7xx_ll_sdmmc.c ****   * @retval HAL status
 806:Drivers/STM32F7xx_HAL_Driver/Src/stm32f7xx_ll_sdmmc.c ****   */
 807:Drivers/STM32F7xx_HAL_Driver/Src/stm32f7xx_ll_sdmmc.c **** uint32_t SDMMC_CmdGoIdleState(SDMMC_TypeDef *SDMMCx)
 808:Drivers/STM32F7xx_HAL_Driver/Src/stm32f7xx_ll_sdmmc.c **** {
 809:Drivers/STM32F7xx_HAL_Driver/Src/stm32f7xx_ll_sdmmc.c ****   SDMMC_CmdInitTypeDef  sdmmc_cmdinit;
 810:Drivers/STM32F7xx_HAL_Driver/Src/stm32f7xx_ll_sdmmc.c ****   uint32_t errorstate;
 811:Drivers/STM32F7xx_HAL_Driver/Src/stm32f7xx_ll_sdmmc.c ****   
 812:Drivers/STM32F7xx_HAL_Driver/Src/stm32f7xx_ll_sdmmc.c ****   sdmmc_cmdinit.Argument         = 0U;
 813:Drivers/STM32F7xx_HAL_Driver/Src/stm32f7xx_ll_sdmmc.c ****   sdmmc_cmdinit.CmdIndex         = SDMMC_CMD_GO_IDLE_STATE;
 814:Drivers/STM32F7xx_HAL_Driver/Src/stm32f7xx_ll_sdmmc.c ****   sdmmc_cmdinit.Response         = SDMMC_RESPONSE_NO;
 815:Drivers/STM32F7xx_HAL_Driver/Src/stm32f7xx_ll_sdmmc.c ****   sdmmc_cmdinit.WaitForInterrupt = SDMMC_WAIT_NO;
 816:Drivers/STM32F7xx_HAL_Driver/Src/stm32f7xx_ll_sdmmc.c ****   sdmmc_cmdinit.CPSM             = SDMMC_CPSM_ENABLE;
 817:Drivers/STM32F7xx_HAL_Driver/Src/stm32f7xx_ll_sdmmc.c ****   (void)SDMMC_SendCommand(SDMMCx, &sdmmc_cmdinit);
 818:Drivers/STM32F7xx_HAL_Driver/Src/stm32f7xx_ll_sdmmc.c ****   
 819:Drivers/STM32F7xx_HAL_Driver/Src/stm32f7xx_ll_sdmmc.c ****   /* Check for error conditions */
 820:Drivers/STM32F7xx_HAL_Driver/Src/stm32f7xx_ll_sdmmc.c ****   errorstate = SDMMC_GetCmdError(SDMMCx);
 821:Drivers/STM32F7xx_HAL_Driver/Src/stm32f7xx_ll_sdmmc.c **** 
 822:Drivers/STM32F7xx_HAL_Driver/Src/stm32f7xx_ll_sdmmc.c ****   return errorstate;
 823:Drivers/STM32F7xx_HAL_Driver/Src/stm32f7xx_ll_sdmmc.c **** }
 824:Drivers/STM32F7xx_HAL_Driver/Src/stm32f7xx_ll_sdmmc.c **** 
 825:Drivers/STM32F7xx_HAL_Driver/Src/stm32f7xx_ll_sdmmc.c **** /**
 826:Drivers/STM32F7xx_HAL_Driver/Src/stm32f7xx_ll_sdmmc.c ****   * @brief  Send the Operating Condition command and check the response.
 827:Drivers/STM32F7xx_HAL_Driver/Src/stm32f7xx_ll_sdmmc.c ****   * @param  SDMMCx: Pointer to SDMMC register base 
 828:Drivers/STM32F7xx_HAL_Driver/Src/stm32f7xx_ll_sdmmc.c ****   * @retval HAL status
 829:Drivers/STM32F7xx_HAL_Driver/Src/stm32f7xx_ll_sdmmc.c ****   */
ARM GAS  /tmp/ccPnSfMB.s 			page 16


 830:Drivers/STM32F7xx_HAL_Driver/Src/stm32f7xx_ll_sdmmc.c **** uint32_t SDMMC_CmdOperCond(SDMMC_TypeDef *SDMMCx)
 831:Drivers/STM32F7xx_HAL_Driver/Src/stm32f7xx_ll_sdmmc.c **** {
 832:Drivers/STM32F7xx_HAL_Driver/Src/stm32f7xx_ll_sdmmc.c ****   SDMMC_CmdInitTypeDef  sdmmc_cmdinit;
 833:Drivers/STM32F7xx_HAL_Driver/Src/stm32f7xx_ll_sdmmc.c ****   uint32_t errorstate;
 834:Drivers/STM32F7xx_HAL_Driver/Src/stm32f7xx_ll_sdmmc.c ****   
 835:Drivers/STM32F7xx_HAL_Driver/Src/stm32f7xx_ll_sdmmc.c ****   /* Send CMD8 to verify SD card interface operating condition */
 836:Drivers/STM32F7xx_HAL_Driver/Src/stm32f7xx_ll_sdmmc.c ****   /* Argument: - [31:12]: Reserved (shall be set to '0')
 837:Drivers/STM32F7xx_HAL_Driver/Src/stm32f7xx_ll_sdmmc.c ****   - [11:8]: Supply Voltage (VHS) 0x1 (Range: 2.7-3.6 V)
 838:Drivers/STM32F7xx_HAL_Driver/Src/stm32f7xx_ll_sdmmc.c ****   - [7:0]: Check Pattern (recommended 0xAA) */
 839:Drivers/STM32F7xx_HAL_Driver/Src/stm32f7xx_ll_sdmmc.c ****   /* CMD Response: R7 */
 840:Drivers/STM32F7xx_HAL_Driver/Src/stm32f7xx_ll_sdmmc.c ****   sdmmc_cmdinit.Argument         = SDMMC_CHECK_PATTERN;
 841:Drivers/STM32F7xx_HAL_Driver/Src/stm32f7xx_ll_sdmmc.c ****   sdmmc_cmdinit.CmdIndex         = SDMMC_CMD_HS_SEND_EXT_CSD;
 842:Drivers/STM32F7xx_HAL_Driver/Src/stm32f7xx_ll_sdmmc.c ****   sdmmc_cmdinit.Response         = SDMMC_RESPONSE_SHORT;
 843:Drivers/STM32F7xx_HAL_Driver/Src/stm32f7xx_ll_sdmmc.c ****   sdmmc_cmdinit.WaitForInterrupt = SDMMC_WAIT_NO;
 844:Drivers/STM32F7xx_HAL_Driver/Src/stm32f7xx_ll_sdmmc.c ****   sdmmc_cmdinit.CPSM             = SDMMC_CPSM_ENABLE;
 845:Drivers/STM32F7xx_HAL_Driver/Src/stm32f7xx_ll_sdmmc.c ****   (void)SDMMC_SendCommand(SDMMCx, &sdmmc_cmdinit);
 846:Drivers/STM32F7xx_HAL_Driver/Src/stm32f7xx_ll_sdmmc.c ****   
 847:Drivers/STM32F7xx_HAL_Driver/Src/stm32f7xx_ll_sdmmc.c ****   /* Check for error conditions */
 848:Drivers/STM32F7xx_HAL_Driver/Src/stm32f7xx_ll_sdmmc.c ****   errorstate = SDMMC_GetCmdResp7(SDMMCx);
 849:Drivers/STM32F7xx_HAL_Driver/Src/stm32f7xx_ll_sdmmc.c **** 
 850:Drivers/STM32F7xx_HAL_Driver/Src/stm32f7xx_ll_sdmmc.c ****   return errorstate;
 851:Drivers/STM32F7xx_HAL_Driver/Src/stm32f7xx_ll_sdmmc.c **** }
 852:Drivers/STM32F7xx_HAL_Driver/Src/stm32f7xx_ll_sdmmc.c **** 
 853:Drivers/STM32F7xx_HAL_Driver/Src/stm32f7xx_ll_sdmmc.c **** /**
 854:Drivers/STM32F7xx_HAL_Driver/Src/stm32f7xx_ll_sdmmc.c ****   * @brief  Send the Application command to verify that that the next command 
 855:Drivers/STM32F7xx_HAL_Driver/Src/stm32f7xx_ll_sdmmc.c ****   *         is an application specific com-mand rather than a standard command
 856:Drivers/STM32F7xx_HAL_Driver/Src/stm32f7xx_ll_sdmmc.c ****   *         and check the response.
 857:Drivers/STM32F7xx_HAL_Driver/Src/stm32f7xx_ll_sdmmc.c ****   * @param  SDMMCx: Pointer to SDMMC register base 
 858:Drivers/STM32F7xx_HAL_Driver/Src/stm32f7xx_ll_sdmmc.c ****   * @param  Argument: Command Argument 
 859:Drivers/STM32F7xx_HAL_Driver/Src/stm32f7xx_ll_sdmmc.c ****   * @retval HAL status
 860:Drivers/STM32F7xx_HAL_Driver/Src/stm32f7xx_ll_sdmmc.c ****   */
 861:Drivers/STM32F7xx_HAL_Driver/Src/stm32f7xx_ll_sdmmc.c **** uint32_t SDMMC_CmdAppCommand(SDMMC_TypeDef *SDMMCx, uint32_t Argument)
 862:Drivers/STM32F7xx_HAL_Driver/Src/stm32f7xx_ll_sdmmc.c **** {
 863:Drivers/STM32F7xx_HAL_Driver/Src/stm32f7xx_ll_sdmmc.c ****   SDMMC_CmdInitTypeDef  sdmmc_cmdinit;
 864:Drivers/STM32F7xx_HAL_Driver/Src/stm32f7xx_ll_sdmmc.c ****   uint32_t errorstate;
 865:Drivers/STM32F7xx_HAL_Driver/Src/stm32f7xx_ll_sdmmc.c ****   
 866:Drivers/STM32F7xx_HAL_Driver/Src/stm32f7xx_ll_sdmmc.c ****   sdmmc_cmdinit.Argument         = (uint32_t)Argument;
 867:Drivers/STM32F7xx_HAL_Driver/Src/stm32f7xx_ll_sdmmc.c ****   sdmmc_cmdinit.CmdIndex         = SDMMC_CMD_APP_CMD;
 868:Drivers/STM32F7xx_HAL_Driver/Src/stm32f7xx_ll_sdmmc.c ****   sdmmc_cmdinit.Response         = SDMMC_RESPONSE_SHORT;
 869:Drivers/STM32F7xx_HAL_Driver/Src/stm32f7xx_ll_sdmmc.c ****   sdmmc_cmdinit.WaitForInterrupt = SDMMC_WAIT_NO;
 870:Drivers/STM32F7xx_HAL_Driver/Src/stm32f7xx_ll_sdmmc.c ****   sdmmc_cmdinit.CPSM             = SDMMC_CPSM_ENABLE;
 871:Drivers/STM32F7xx_HAL_Driver/Src/stm32f7xx_ll_sdmmc.c ****   (void)SDMMC_SendCommand(SDMMCx, &sdmmc_cmdinit);
 872:Drivers/STM32F7xx_HAL_Driver/Src/stm32f7xx_ll_sdmmc.c ****   
 873:Drivers/STM32F7xx_HAL_Driver/Src/stm32f7xx_ll_sdmmc.c ****   /* Check for error conditions */
 874:Drivers/STM32F7xx_HAL_Driver/Src/stm32f7xx_ll_sdmmc.c ****   /* If there is a HAL_ERROR, it is a MMC card, else
 875:Drivers/STM32F7xx_HAL_Driver/Src/stm32f7xx_ll_sdmmc.c ****   it is a SD card: SD card 2.0 (voltage range mismatch)
 876:Drivers/STM32F7xx_HAL_Driver/Src/stm32f7xx_ll_sdmmc.c ****      or SD card 1.x */
 877:Drivers/STM32F7xx_HAL_Driver/Src/stm32f7xx_ll_sdmmc.c ****   errorstate = SDMMC_GetCmdResp1(SDMMCx, SDMMC_CMD_APP_CMD, SDMMC_CMDTIMEOUT);
 878:Drivers/STM32F7xx_HAL_Driver/Src/stm32f7xx_ll_sdmmc.c **** 
 879:Drivers/STM32F7xx_HAL_Driver/Src/stm32f7xx_ll_sdmmc.c ****   return errorstate;
 880:Drivers/STM32F7xx_HAL_Driver/Src/stm32f7xx_ll_sdmmc.c **** }
 881:Drivers/STM32F7xx_HAL_Driver/Src/stm32f7xx_ll_sdmmc.c **** 
 882:Drivers/STM32F7xx_HAL_Driver/Src/stm32f7xx_ll_sdmmc.c **** /**
 883:Drivers/STM32F7xx_HAL_Driver/Src/stm32f7xx_ll_sdmmc.c ****   * @brief  Send the command asking the accessed card to send its operating 
 884:Drivers/STM32F7xx_HAL_Driver/Src/stm32f7xx_ll_sdmmc.c ****   *         condition register (OCR)
 885:Drivers/STM32F7xx_HAL_Driver/Src/stm32f7xx_ll_sdmmc.c ****   * @param  SDMMCx: Pointer to SDMMC register base 
 886:Drivers/STM32F7xx_HAL_Driver/Src/stm32f7xx_ll_sdmmc.c ****   * @param  Argument: Command Argument
ARM GAS  /tmp/ccPnSfMB.s 			page 17


 887:Drivers/STM32F7xx_HAL_Driver/Src/stm32f7xx_ll_sdmmc.c ****   * @retval HAL status
 888:Drivers/STM32F7xx_HAL_Driver/Src/stm32f7xx_ll_sdmmc.c ****   */
 889:Drivers/STM32F7xx_HAL_Driver/Src/stm32f7xx_ll_sdmmc.c **** uint32_t SDMMC_CmdAppOperCommand(SDMMC_TypeDef *SDMMCx, uint32_t Argument)
 890:Drivers/STM32F7xx_HAL_Driver/Src/stm32f7xx_ll_sdmmc.c **** {
 891:Drivers/STM32F7xx_HAL_Driver/Src/stm32f7xx_ll_sdmmc.c ****   SDMMC_CmdInitTypeDef  sdmmc_cmdinit;
 892:Drivers/STM32F7xx_HAL_Driver/Src/stm32f7xx_ll_sdmmc.c ****   uint32_t errorstate;
 893:Drivers/STM32F7xx_HAL_Driver/Src/stm32f7xx_ll_sdmmc.c ****   
 894:Drivers/STM32F7xx_HAL_Driver/Src/stm32f7xx_ll_sdmmc.c ****   sdmmc_cmdinit.Argument         = SDMMC_VOLTAGE_WINDOW_SD | Argument;
 895:Drivers/STM32F7xx_HAL_Driver/Src/stm32f7xx_ll_sdmmc.c ****   sdmmc_cmdinit.CmdIndex         = SDMMC_CMD_SD_APP_OP_COND;
 896:Drivers/STM32F7xx_HAL_Driver/Src/stm32f7xx_ll_sdmmc.c ****   sdmmc_cmdinit.Response         = SDMMC_RESPONSE_SHORT;
 897:Drivers/STM32F7xx_HAL_Driver/Src/stm32f7xx_ll_sdmmc.c ****   sdmmc_cmdinit.WaitForInterrupt = SDMMC_WAIT_NO;
 898:Drivers/STM32F7xx_HAL_Driver/Src/stm32f7xx_ll_sdmmc.c ****   sdmmc_cmdinit.CPSM             = SDMMC_CPSM_ENABLE;
 899:Drivers/STM32F7xx_HAL_Driver/Src/stm32f7xx_ll_sdmmc.c ****   (void)SDMMC_SendCommand(SDMMCx, &sdmmc_cmdinit);
 900:Drivers/STM32F7xx_HAL_Driver/Src/stm32f7xx_ll_sdmmc.c ****   
 901:Drivers/STM32F7xx_HAL_Driver/Src/stm32f7xx_ll_sdmmc.c ****   /* Check for error conditions */
 902:Drivers/STM32F7xx_HAL_Driver/Src/stm32f7xx_ll_sdmmc.c ****   errorstate = SDMMC_GetCmdResp3(SDMMCx);
 903:Drivers/STM32F7xx_HAL_Driver/Src/stm32f7xx_ll_sdmmc.c **** 
 904:Drivers/STM32F7xx_HAL_Driver/Src/stm32f7xx_ll_sdmmc.c ****   return errorstate;
 905:Drivers/STM32F7xx_HAL_Driver/Src/stm32f7xx_ll_sdmmc.c **** }
 906:Drivers/STM32F7xx_HAL_Driver/Src/stm32f7xx_ll_sdmmc.c **** 
 907:Drivers/STM32F7xx_HAL_Driver/Src/stm32f7xx_ll_sdmmc.c **** /**
 908:Drivers/STM32F7xx_HAL_Driver/Src/stm32f7xx_ll_sdmmc.c ****   * @brief  Send the Bus Width command and check the response.
 909:Drivers/STM32F7xx_HAL_Driver/Src/stm32f7xx_ll_sdmmc.c ****   * @param  SDMMCx: Pointer to SDMMC register base 
 910:Drivers/STM32F7xx_HAL_Driver/Src/stm32f7xx_ll_sdmmc.c ****   * @param  BusWidth: BusWidth
 911:Drivers/STM32F7xx_HAL_Driver/Src/stm32f7xx_ll_sdmmc.c ****   * @retval HAL status
 912:Drivers/STM32F7xx_HAL_Driver/Src/stm32f7xx_ll_sdmmc.c ****   */
 913:Drivers/STM32F7xx_HAL_Driver/Src/stm32f7xx_ll_sdmmc.c **** uint32_t SDMMC_CmdBusWidth(SDMMC_TypeDef *SDMMCx, uint32_t BusWidth)
 914:Drivers/STM32F7xx_HAL_Driver/Src/stm32f7xx_ll_sdmmc.c **** {
 915:Drivers/STM32F7xx_HAL_Driver/Src/stm32f7xx_ll_sdmmc.c ****   SDMMC_CmdInitTypeDef  sdmmc_cmdinit;
 916:Drivers/STM32F7xx_HAL_Driver/Src/stm32f7xx_ll_sdmmc.c ****   uint32_t errorstate;
 917:Drivers/STM32F7xx_HAL_Driver/Src/stm32f7xx_ll_sdmmc.c ****   
 918:Drivers/STM32F7xx_HAL_Driver/Src/stm32f7xx_ll_sdmmc.c ****   sdmmc_cmdinit.Argument         = (uint32_t)BusWidth;
 919:Drivers/STM32F7xx_HAL_Driver/Src/stm32f7xx_ll_sdmmc.c ****   sdmmc_cmdinit.CmdIndex         = SDMMC_CMD_APP_SD_SET_BUSWIDTH;
 920:Drivers/STM32F7xx_HAL_Driver/Src/stm32f7xx_ll_sdmmc.c ****   sdmmc_cmdinit.Response         = SDMMC_RESPONSE_SHORT;
 921:Drivers/STM32F7xx_HAL_Driver/Src/stm32f7xx_ll_sdmmc.c ****   sdmmc_cmdinit.WaitForInterrupt = SDMMC_WAIT_NO;
 922:Drivers/STM32F7xx_HAL_Driver/Src/stm32f7xx_ll_sdmmc.c ****   sdmmc_cmdinit.CPSM             = SDMMC_CPSM_ENABLE;
 923:Drivers/STM32F7xx_HAL_Driver/Src/stm32f7xx_ll_sdmmc.c ****   (void)SDMMC_SendCommand(SDMMCx, &sdmmc_cmdinit);
 924:Drivers/STM32F7xx_HAL_Driver/Src/stm32f7xx_ll_sdmmc.c ****   
 925:Drivers/STM32F7xx_HAL_Driver/Src/stm32f7xx_ll_sdmmc.c ****   /* Check for error conditions */
 926:Drivers/STM32F7xx_HAL_Driver/Src/stm32f7xx_ll_sdmmc.c ****   errorstate = SDMMC_GetCmdResp1(SDMMCx, SDMMC_CMD_APP_SD_SET_BUSWIDTH, SDMMC_CMDTIMEOUT);
 927:Drivers/STM32F7xx_HAL_Driver/Src/stm32f7xx_ll_sdmmc.c **** 
 928:Drivers/STM32F7xx_HAL_Driver/Src/stm32f7xx_ll_sdmmc.c ****   return errorstate;
 929:Drivers/STM32F7xx_HAL_Driver/Src/stm32f7xx_ll_sdmmc.c **** }
 930:Drivers/STM32F7xx_HAL_Driver/Src/stm32f7xx_ll_sdmmc.c **** 
 931:Drivers/STM32F7xx_HAL_Driver/Src/stm32f7xx_ll_sdmmc.c **** /**
 932:Drivers/STM32F7xx_HAL_Driver/Src/stm32f7xx_ll_sdmmc.c ****   * @brief  Send the Send SCR command and check the response.
 933:Drivers/STM32F7xx_HAL_Driver/Src/stm32f7xx_ll_sdmmc.c ****   * @param  SDMMCx: Pointer to SDMMC register base 
 934:Drivers/STM32F7xx_HAL_Driver/Src/stm32f7xx_ll_sdmmc.c ****   * @retval HAL status
 935:Drivers/STM32F7xx_HAL_Driver/Src/stm32f7xx_ll_sdmmc.c ****   */
 936:Drivers/STM32F7xx_HAL_Driver/Src/stm32f7xx_ll_sdmmc.c **** uint32_t SDMMC_CmdSendSCR(SDMMC_TypeDef *SDMMCx)
 937:Drivers/STM32F7xx_HAL_Driver/Src/stm32f7xx_ll_sdmmc.c **** {
 938:Drivers/STM32F7xx_HAL_Driver/Src/stm32f7xx_ll_sdmmc.c ****   SDMMC_CmdInitTypeDef  sdmmc_cmdinit;
 939:Drivers/STM32F7xx_HAL_Driver/Src/stm32f7xx_ll_sdmmc.c ****   uint32_t errorstate;
 940:Drivers/STM32F7xx_HAL_Driver/Src/stm32f7xx_ll_sdmmc.c ****   
 941:Drivers/STM32F7xx_HAL_Driver/Src/stm32f7xx_ll_sdmmc.c ****   /* Send CMD51 SD_APP_SEND_SCR */
 942:Drivers/STM32F7xx_HAL_Driver/Src/stm32f7xx_ll_sdmmc.c ****   sdmmc_cmdinit.Argument         = 0U;
 943:Drivers/STM32F7xx_HAL_Driver/Src/stm32f7xx_ll_sdmmc.c ****   sdmmc_cmdinit.CmdIndex         = SDMMC_CMD_SD_APP_SEND_SCR;
ARM GAS  /tmp/ccPnSfMB.s 			page 18


 944:Drivers/STM32F7xx_HAL_Driver/Src/stm32f7xx_ll_sdmmc.c ****   sdmmc_cmdinit.Response         = SDMMC_RESPONSE_SHORT;
 945:Drivers/STM32F7xx_HAL_Driver/Src/stm32f7xx_ll_sdmmc.c ****   sdmmc_cmdinit.WaitForInterrupt = SDMMC_WAIT_NO;
 946:Drivers/STM32F7xx_HAL_Driver/Src/stm32f7xx_ll_sdmmc.c ****   sdmmc_cmdinit.CPSM             = SDMMC_CPSM_ENABLE;
 947:Drivers/STM32F7xx_HAL_Driver/Src/stm32f7xx_ll_sdmmc.c ****   (void)SDMMC_SendCommand(SDMMCx, &sdmmc_cmdinit);
 948:Drivers/STM32F7xx_HAL_Driver/Src/stm32f7xx_ll_sdmmc.c ****   
 949:Drivers/STM32F7xx_HAL_Driver/Src/stm32f7xx_ll_sdmmc.c ****   /* Check for error conditions */
 950:Drivers/STM32F7xx_HAL_Driver/Src/stm32f7xx_ll_sdmmc.c ****   errorstate = SDMMC_GetCmdResp1(SDMMCx, SDMMC_CMD_SD_APP_SEND_SCR, SDMMC_CMDTIMEOUT);
 951:Drivers/STM32F7xx_HAL_Driver/Src/stm32f7xx_ll_sdmmc.c **** 
 952:Drivers/STM32F7xx_HAL_Driver/Src/stm32f7xx_ll_sdmmc.c ****   return errorstate;
 953:Drivers/STM32F7xx_HAL_Driver/Src/stm32f7xx_ll_sdmmc.c **** }
 954:Drivers/STM32F7xx_HAL_Driver/Src/stm32f7xx_ll_sdmmc.c **** 
 955:Drivers/STM32F7xx_HAL_Driver/Src/stm32f7xx_ll_sdmmc.c **** /**
 956:Drivers/STM32F7xx_HAL_Driver/Src/stm32f7xx_ll_sdmmc.c ****   * @brief  Send the Send CID command and check the response.
 957:Drivers/STM32F7xx_HAL_Driver/Src/stm32f7xx_ll_sdmmc.c ****   * @param  SDMMCx: Pointer to SDMMC register base 
 958:Drivers/STM32F7xx_HAL_Driver/Src/stm32f7xx_ll_sdmmc.c ****   * @retval HAL status
 959:Drivers/STM32F7xx_HAL_Driver/Src/stm32f7xx_ll_sdmmc.c ****   */
 960:Drivers/STM32F7xx_HAL_Driver/Src/stm32f7xx_ll_sdmmc.c **** uint32_t SDMMC_CmdSendCID(SDMMC_TypeDef *SDMMCx)
 961:Drivers/STM32F7xx_HAL_Driver/Src/stm32f7xx_ll_sdmmc.c **** {
 962:Drivers/STM32F7xx_HAL_Driver/Src/stm32f7xx_ll_sdmmc.c ****   SDMMC_CmdInitTypeDef  sdmmc_cmdinit;
 963:Drivers/STM32F7xx_HAL_Driver/Src/stm32f7xx_ll_sdmmc.c ****   uint32_t errorstate;
 964:Drivers/STM32F7xx_HAL_Driver/Src/stm32f7xx_ll_sdmmc.c ****   
 965:Drivers/STM32F7xx_HAL_Driver/Src/stm32f7xx_ll_sdmmc.c ****   /* Send CMD2 ALL_SEND_CID */
 966:Drivers/STM32F7xx_HAL_Driver/Src/stm32f7xx_ll_sdmmc.c ****   sdmmc_cmdinit.Argument         = 0U;
 967:Drivers/STM32F7xx_HAL_Driver/Src/stm32f7xx_ll_sdmmc.c ****   sdmmc_cmdinit.CmdIndex         = SDMMC_CMD_ALL_SEND_CID;
 968:Drivers/STM32F7xx_HAL_Driver/Src/stm32f7xx_ll_sdmmc.c ****   sdmmc_cmdinit.Response         = SDMMC_RESPONSE_LONG;
 969:Drivers/STM32F7xx_HAL_Driver/Src/stm32f7xx_ll_sdmmc.c ****   sdmmc_cmdinit.WaitForInterrupt = SDMMC_WAIT_NO;
 970:Drivers/STM32F7xx_HAL_Driver/Src/stm32f7xx_ll_sdmmc.c ****   sdmmc_cmdinit.CPSM             = SDMMC_CPSM_ENABLE;
 971:Drivers/STM32F7xx_HAL_Driver/Src/stm32f7xx_ll_sdmmc.c ****   (void)SDMMC_SendCommand(SDMMCx, &sdmmc_cmdinit);
 972:Drivers/STM32F7xx_HAL_Driver/Src/stm32f7xx_ll_sdmmc.c ****   
 973:Drivers/STM32F7xx_HAL_Driver/Src/stm32f7xx_ll_sdmmc.c ****   /* Check for error conditions */
 974:Drivers/STM32F7xx_HAL_Driver/Src/stm32f7xx_ll_sdmmc.c ****   errorstate = SDMMC_GetCmdResp2(SDMMCx);
 975:Drivers/STM32F7xx_HAL_Driver/Src/stm32f7xx_ll_sdmmc.c **** 
 976:Drivers/STM32F7xx_HAL_Driver/Src/stm32f7xx_ll_sdmmc.c ****   return errorstate;
 977:Drivers/STM32F7xx_HAL_Driver/Src/stm32f7xx_ll_sdmmc.c **** }
 978:Drivers/STM32F7xx_HAL_Driver/Src/stm32f7xx_ll_sdmmc.c **** 
 979:Drivers/STM32F7xx_HAL_Driver/Src/stm32f7xx_ll_sdmmc.c **** /**
 980:Drivers/STM32F7xx_HAL_Driver/Src/stm32f7xx_ll_sdmmc.c ****   * @brief  Send the Send CSD command and check the response.
 981:Drivers/STM32F7xx_HAL_Driver/Src/stm32f7xx_ll_sdmmc.c ****   * @param  SDMMCx: Pointer to SDMMC register base 
 982:Drivers/STM32F7xx_HAL_Driver/Src/stm32f7xx_ll_sdmmc.c ****   * @param  Argument: Command Argument
 983:Drivers/STM32F7xx_HAL_Driver/Src/stm32f7xx_ll_sdmmc.c ****   * @retval HAL status
 984:Drivers/STM32F7xx_HAL_Driver/Src/stm32f7xx_ll_sdmmc.c ****   */
 985:Drivers/STM32F7xx_HAL_Driver/Src/stm32f7xx_ll_sdmmc.c **** uint32_t SDMMC_CmdSendCSD(SDMMC_TypeDef *SDMMCx, uint32_t Argument)
 986:Drivers/STM32F7xx_HAL_Driver/Src/stm32f7xx_ll_sdmmc.c **** {
 987:Drivers/STM32F7xx_HAL_Driver/Src/stm32f7xx_ll_sdmmc.c ****   SDMMC_CmdInitTypeDef  sdmmc_cmdinit;
 988:Drivers/STM32F7xx_HAL_Driver/Src/stm32f7xx_ll_sdmmc.c ****   uint32_t errorstate;
 989:Drivers/STM32F7xx_HAL_Driver/Src/stm32f7xx_ll_sdmmc.c ****   
 990:Drivers/STM32F7xx_HAL_Driver/Src/stm32f7xx_ll_sdmmc.c ****   /* Send CMD9 SEND_CSD */
 991:Drivers/STM32F7xx_HAL_Driver/Src/stm32f7xx_ll_sdmmc.c ****   sdmmc_cmdinit.Argument         = Argument;
 992:Drivers/STM32F7xx_HAL_Driver/Src/stm32f7xx_ll_sdmmc.c ****   sdmmc_cmdinit.CmdIndex         = SDMMC_CMD_SEND_CSD;
 993:Drivers/STM32F7xx_HAL_Driver/Src/stm32f7xx_ll_sdmmc.c ****   sdmmc_cmdinit.Response         = SDMMC_RESPONSE_LONG;
 994:Drivers/STM32F7xx_HAL_Driver/Src/stm32f7xx_ll_sdmmc.c ****   sdmmc_cmdinit.WaitForInterrupt = SDMMC_WAIT_NO;
 995:Drivers/STM32F7xx_HAL_Driver/Src/stm32f7xx_ll_sdmmc.c ****   sdmmc_cmdinit.CPSM             = SDMMC_CPSM_ENABLE;
 996:Drivers/STM32F7xx_HAL_Driver/Src/stm32f7xx_ll_sdmmc.c ****   (void)SDMMC_SendCommand(SDMMCx, &sdmmc_cmdinit);
 997:Drivers/STM32F7xx_HAL_Driver/Src/stm32f7xx_ll_sdmmc.c ****   
 998:Drivers/STM32F7xx_HAL_Driver/Src/stm32f7xx_ll_sdmmc.c ****   /* Check for error conditions */
 999:Drivers/STM32F7xx_HAL_Driver/Src/stm32f7xx_ll_sdmmc.c ****   errorstate = SDMMC_GetCmdResp2(SDMMCx);
1000:Drivers/STM32F7xx_HAL_Driver/Src/stm32f7xx_ll_sdmmc.c **** 
ARM GAS  /tmp/ccPnSfMB.s 			page 19


1001:Drivers/STM32F7xx_HAL_Driver/Src/stm32f7xx_ll_sdmmc.c ****   return errorstate;
1002:Drivers/STM32F7xx_HAL_Driver/Src/stm32f7xx_ll_sdmmc.c **** }
1003:Drivers/STM32F7xx_HAL_Driver/Src/stm32f7xx_ll_sdmmc.c **** 
1004:Drivers/STM32F7xx_HAL_Driver/Src/stm32f7xx_ll_sdmmc.c **** /**
1005:Drivers/STM32F7xx_HAL_Driver/Src/stm32f7xx_ll_sdmmc.c ****   * @brief  Send the Send CSD command and check the response.
1006:Drivers/STM32F7xx_HAL_Driver/Src/stm32f7xx_ll_sdmmc.c ****   * @param  SDMMCx: Pointer to SDMMC register base 
1007:Drivers/STM32F7xx_HAL_Driver/Src/stm32f7xx_ll_sdmmc.c ****   * @param  pRCA: Card RCA  
1008:Drivers/STM32F7xx_HAL_Driver/Src/stm32f7xx_ll_sdmmc.c ****   * @retval HAL status
1009:Drivers/STM32F7xx_HAL_Driver/Src/stm32f7xx_ll_sdmmc.c ****   */
1010:Drivers/STM32F7xx_HAL_Driver/Src/stm32f7xx_ll_sdmmc.c **** uint32_t SDMMC_CmdSetRelAdd(SDMMC_TypeDef *SDMMCx, uint16_t *pRCA)
1011:Drivers/STM32F7xx_HAL_Driver/Src/stm32f7xx_ll_sdmmc.c **** {
1012:Drivers/STM32F7xx_HAL_Driver/Src/stm32f7xx_ll_sdmmc.c ****   SDMMC_CmdInitTypeDef  sdmmc_cmdinit;
1013:Drivers/STM32F7xx_HAL_Driver/Src/stm32f7xx_ll_sdmmc.c ****   uint32_t errorstate;
1014:Drivers/STM32F7xx_HAL_Driver/Src/stm32f7xx_ll_sdmmc.c ****   
1015:Drivers/STM32F7xx_HAL_Driver/Src/stm32f7xx_ll_sdmmc.c ****   /* Send CMD3 SD_CMD_SET_REL_ADDR */
1016:Drivers/STM32F7xx_HAL_Driver/Src/stm32f7xx_ll_sdmmc.c ****   sdmmc_cmdinit.Argument         = 0U;
1017:Drivers/STM32F7xx_HAL_Driver/Src/stm32f7xx_ll_sdmmc.c ****   sdmmc_cmdinit.CmdIndex         = SDMMC_CMD_SET_REL_ADDR;
1018:Drivers/STM32F7xx_HAL_Driver/Src/stm32f7xx_ll_sdmmc.c ****   sdmmc_cmdinit.Response         = SDMMC_RESPONSE_SHORT;
1019:Drivers/STM32F7xx_HAL_Driver/Src/stm32f7xx_ll_sdmmc.c ****   sdmmc_cmdinit.WaitForInterrupt = SDMMC_WAIT_NO;
1020:Drivers/STM32F7xx_HAL_Driver/Src/stm32f7xx_ll_sdmmc.c ****   sdmmc_cmdinit.CPSM             = SDMMC_CPSM_ENABLE;
1021:Drivers/STM32F7xx_HAL_Driver/Src/stm32f7xx_ll_sdmmc.c ****   (void)SDMMC_SendCommand(SDMMCx, &sdmmc_cmdinit);
1022:Drivers/STM32F7xx_HAL_Driver/Src/stm32f7xx_ll_sdmmc.c ****   
1023:Drivers/STM32F7xx_HAL_Driver/Src/stm32f7xx_ll_sdmmc.c ****   /* Check for error conditions */
1024:Drivers/STM32F7xx_HAL_Driver/Src/stm32f7xx_ll_sdmmc.c ****   errorstate = SDMMC_GetCmdResp6(SDMMCx, SDMMC_CMD_SET_REL_ADDR, pRCA);
1025:Drivers/STM32F7xx_HAL_Driver/Src/stm32f7xx_ll_sdmmc.c **** 
1026:Drivers/STM32F7xx_HAL_Driver/Src/stm32f7xx_ll_sdmmc.c ****   return errorstate;
1027:Drivers/STM32F7xx_HAL_Driver/Src/stm32f7xx_ll_sdmmc.c **** }
1028:Drivers/STM32F7xx_HAL_Driver/Src/stm32f7xx_ll_sdmmc.c **** 
1029:Drivers/STM32F7xx_HAL_Driver/Src/stm32f7xx_ll_sdmmc.c **** /**
1030:Drivers/STM32F7xx_HAL_Driver/Src/stm32f7xx_ll_sdmmc.c ****   * @brief  Send the Status command and check the response.
1031:Drivers/STM32F7xx_HAL_Driver/Src/stm32f7xx_ll_sdmmc.c ****   * @param  SDMMCx: Pointer to SDMMC register base 
1032:Drivers/STM32F7xx_HAL_Driver/Src/stm32f7xx_ll_sdmmc.c ****   * @param  Argument: Command Argument
1033:Drivers/STM32F7xx_HAL_Driver/Src/stm32f7xx_ll_sdmmc.c ****   * @retval HAL status
1034:Drivers/STM32F7xx_HAL_Driver/Src/stm32f7xx_ll_sdmmc.c ****   */
1035:Drivers/STM32F7xx_HAL_Driver/Src/stm32f7xx_ll_sdmmc.c **** uint32_t SDMMC_CmdSendStatus(SDMMC_TypeDef *SDMMCx, uint32_t Argument)
1036:Drivers/STM32F7xx_HAL_Driver/Src/stm32f7xx_ll_sdmmc.c **** {
1037:Drivers/STM32F7xx_HAL_Driver/Src/stm32f7xx_ll_sdmmc.c ****   SDMMC_CmdInitTypeDef  sdmmc_cmdinit;
1038:Drivers/STM32F7xx_HAL_Driver/Src/stm32f7xx_ll_sdmmc.c ****   uint32_t errorstate;
1039:Drivers/STM32F7xx_HAL_Driver/Src/stm32f7xx_ll_sdmmc.c ****   
1040:Drivers/STM32F7xx_HAL_Driver/Src/stm32f7xx_ll_sdmmc.c ****   sdmmc_cmdinit.Argument         = Argument;
1041:Drivers/STM32F7xx_HAL_Driver/Src/stm32f7xx_ll_sdmmc.c ****   sdmmc_cmdinit.CmdIndex         = SDMMC_CMD_SEND_STATUS;
1042:Drivers/STM32F7xx_HAL_Driver/Src/stm32f7xx_ll_sdmmc.c ****   sdmmc_cmdinit.Response         = SDMMC_RESPONSE_SHORT;
1043:Drivers/STM32F7xx_HAL_Driver/Src/stm32f7xx_ll_sdmmc.c ****   sdmmc_cmdinit.WaitForInterrupt = SDMMC_WAIT_NO;
1044:Drivers/STM32F7xx_HAL_Driver/Src/stm32f7xx_ll_sdmmc.c ****   sdmmc_cmdinit.CPSM             = SDMMC_CPSM_ENABLE;
1045:Drivers/STM32F7xx_HAL_Driver/Src/stm32f7xx_ll_sdmmc.c ****   (void)SDMMC_SendCommand(SDMMCx, &sdmmc_cmdinit);
1046:Drivers/STM32F7xx_HAL_Driver/Src/stm32f7xx_ll_sdmmc.c ****   
1047:Drivers/STM32F7xx_HAL_Driver/Src/stm32f7xx_ll_sdmmc.c ****   /* Check for error conditions */
1048:Drivers/STM32F7xx_HAL_Driver/Src/stm32f7xx_ll_sdmmc.c ****   errorstate = SDMMC_GetCmdResp1(SDMMCx, SDMMC_CMD_SEND_STATUS, SDMMC_CMDTIMEOUT);
1049:Drivers/STM32F7xx_HAL_Driver/Src/stm32f7xx_ll_sdmmc.c **** 
1050:Drivers/STM32F7xx_HAL_Driver/Src/stm32f7xx_ll_sdmmc.c ****   return errorstate;
1051:Drivers/STM32F7xx_HAL_Driver/Src/stm32f7xx_ll_sdmmc.c **** }
1052:Drivers/STM32F7xx_HAL_Driver/Src/stm32f7xx_ll_sdmmc.c **** 
1053:Drivers/STM32F7xx_HAL_Driver/Src/stm32f7xx_ll_sdmmc.c **** /**
1054:Drivers/STM32F7xx_HAL_Driver/Src/stm32f7xx_ll_sdmmc.c ****   * @brief  Send the Status register command and check the response.
1055:Drivers/STM32F7xx_HAL_Driver/Src/stm32f7xx_ll_sdmmc.c ****   * @param  SDMMCx: Pointer to SDMMC register base 
1056:Drivers/STM32F7xx_HAL_Driver/Src/stm32f7xx_ll_sdmmc.c ****   * @retval HAL status
1057:Drivers/STM32F7xx_HAL_Driver/Src/stm32f7xx_ll_sdmmc.c ****   */
ARM GAS  /tmp/ccPnSfMB.s 			page 20


1058:Drivers/STM32F7xx_HAL_Driver/Src/stm32f7xx_ll_sdmmc.c **** uint32_t SDMMC_CmdStatusRegister(SDMMC_TypeDef *SDMMCx)
1059:Drivers/STM32F7xx_HAL_Driver/Src/stm32f7xx_ll_sdmmc.c **** {
1060:Drivers/STM32F7xx_HAL_Driver/Src/stm32f7xx_ll_sdmmc.c ****   SDMMC_CmdInitTypeDef  sdmmc_cmdinit;
1061:Drivers/STM32F7xx_HAL_Driver/Src/stm32f7xx_ll_sdmmc.c ****   uint32_t errorstate;
1062:Drivers/STM32F7xx_HAL_Driver/Src/stm32f7xx_ll_sdmmc.c ****   
1063:Drivers/STM32F7xx_HAL_Driver/Src/stm32f7xx_ll_sdmmc.c ****   sdmmc_cmdinit.Argument         = 0U;
1064:Drivers/STM32F7xx_HAL_Driver/Src/stm32f7xx_ll_sdmmc.c ****   sdmmc_cmdinit.CmdIndex         = SDMMC_CMD_SD_APP_STATUS;
1065:Drivers/STM32F7xx_HAL_Driver/Src/stm32f7xx_ll_sdmmc.c ****   sdmmc_cmdinit.Response         = SDMMC_RESPONSE_SHORT;
1066:Drivers/STM32F7xx_HAL_Driver/Src/stm32f7xx_ll_sdmmc.c ****   sdmmc_cmdinit.WaitForInterrupt = SDMMC_WAIT_NO;
1067:Drivers/STM32F7xx_HAL_Driver/Src/stm32f7xx_ll_sdmmc.c ****   sdmmc_cmdinit.CPSM             = SDMMC_CPSM_ENABLE;
1068:Drivers/STM32F7xx_HAL_Driver/Src/stm32f7xx_ll_sdmmc.c ****   (void)SDMMC_SendCommand(SDMMCx, &sdmmc_cmdinit);
1069:Drivers/STM32F7xx_HAL_Driver/Src/stm32f7xx_ll_sdmmc.c ****   
1070:Drivers/STM32F7xx_HAL_Driver/Src/stm32f7xx_ll_sdmmc.c ****   /* Check for error conditions */
1071:Drivers/STM32F7xx_HAL_Driver/Src/stm32f7xx_ll_sdmmc.c ****   errorstate = SDMMC_GetCmdResp1(SDMMCx, SDMMC_CMD_SD_APP_STATUS, SDMMC_CMDTIMEOUT);
1072:Drivers/STM32F7xx_HAL_Driver/Src/stm32f7xx_ll_sdmmc.c **** 
1073:Drivers/STM32F7xx_HAL_Driver/Src/stm32f7xx_ll_sdmmc.c ****   return errorstate;
1074:Drivers/STM32F7xx_HAL_Driver/Src/stm32f7xx_ll_sdmmc.c **** }
1075:Drivers/STM32F7xx_HAL_Driver/Src/stm32f7xx_ll_sdmmc.c **** 
1076:Drivers/STM32F7xx_HAL_Driver/Src/stm32f7xx_ll_sdmmc.c **** /**
1077:Drivers/STM32F7xx_HAL_Driver/Src/stm32f7xx_ll_sdmmc.c ****   * @brief  Sends host capacity support information and activates the card's 
1078:Drivers/STM32F7xx_HAL_Driver/Src/stm32f7xx_ll_sdmmc.c ****   *         initialization process. Send SDMMC_CMD_SEND_OP_COND command
1079:Drivers/STM32F7xx_HAL_Driver/Src/stm32f7xx_ll_sdmmc.c ****   * @param  SDMMCx: Pointer to SDMMC register base 
1080:Drivers/STM32F7xx_HAL_Driver/Src/stm32f7xx_ll_sdmmc.c ****   * @parame Argument: Argument used for the command
1081:Drivers/STM32F7xx_HAL_Driver/Src/stm32f7xx_ll_sdmmc.c ****   * @retval HAL status
1082:Drivers/STM32F7xx_HAL_Driver/Src/stm32f7xx_ll_sdmmc.c ****   */
1083:Drivers/STM32F7xx_HAL_Driver/Src/stm32f7xx_ll_sdmmc.c **** uint32_t SDMMC_CmdOpCondition(SDMMC_TypeDef *SDMMCx, uint32_t Argument)
1084:Drivers/STM32F7xx_HAL_Driver/Src/stm32f7xx_ll_sdmmc.c **** {
1085:Drivers/STM32F7xx_HAL_Driver/Src/stm32f7xx_ll_sdmmc.c ****   SDMMC_CmdInitTypeDef  sdmmc_cmdinit;
1086:Drivers/STM32F7xx_HAL_Driver/Src/stm32f7xx_ll_sdmmc.c ****   uint32_t errorstate;
1087:Drivers/STM32F7xx_HAL_Driver/Src/stm32f7xx_ll_sdmmc.c ****   
1088:Drivers/STM32F7xx_HAL_Driver/Src/stm32f7xx_ll_sdmmc.c ****   sdmmc_cmdinit.Argument         = Argument;
1089:Drivers/STM32F7xx_HAL_Driver/Src/stm32f7xx_ll_sdmmc.c ****   sdmmc_cmdinit.CmdIndex         = SDMMC_CMD_SEND_OP_COND;
1090:Drivers/STM32F7xx_HAL_Driver/Src/stm32f7xx_ll_sdmmc.c ****   sdmmc_cmdinit.Response         = SDMMC_RESPONSE_SHORT;
1091:Drivers/STM32F7xx_HAL_Driver/Src/stm32f7xx_ll_sdmmc.c ****   sdmmc_cmdinit.WaitForInterrupt = SDMMC_WAIT_NO;
1092:Drivers/STM32F7xx_HAL_Driver/Src/stm32f7xx_ll_sdmmc.c ****   sdmmc_cmdinit.CPSM             = SDMMC_CPSM_ENABLE;
1093:Drivers/STM32F7xx_HAL_Driver/Src/stm32f7xx_ll_sdmmc.c ****   (void)SDMMC_SendCommand(SDMMCx, &sdmmc_cmdinit);
1094:Drivers/STM32F7xx_HAL_Driver/Src/stm32f7xx_ll_sdmmc.c ****   
1095:Drivers/STM32F7xx_HAL_Driver/Src/stm32f7xx_ll_sdmmc.c ****   /* Check for error conditions */
1096:Drivers/STM32F7xx_HAL_Driver/Src/stm32f7xx_ll_sdmmc.c ****   errorstate = SDMMC_GetCmdResp3(SDMMCx);
1097:Drivers/STM32F7xx_HAL_Driver/Src/stm32f7xx_ll_sdmmc.c **** 
1098:Drivers/STM32F7xx_HAL_Driver/Src/stm32f7xx_ll_sdmmc.c ****   return errorstate;
1099:Drivers/STM32F7xx_HAL_Driver/Src/stm32f7xx_ll_sdmmc.c **** }
1100:Drivers/STM32F7xx_HAL_Driver/Src/stm32f7xx_ll_sdmmc.c **** 
1101:Drivers/STM32F7xx_HAL_Driver/Src/stm32f7xx_ll_sdmmc.c **** /**
1102:Drivers/STM32F7xx_HAL_Driver/Src/stm32f7xx_ll_sdmmc.c ****   * @brief  Checks switchable function and switch card function. SDMMC_CMD_HS_SWITCH comand
1103:Drivers/STM32F7xx_HAL_Driver/Src/stm32f7xx_ll_sdmmc.c ****   * @param  SDMMCx: Pointer to SDMMC register base 
1104:Drivers/STM32F7xx_HAL_Driver/Src/stm32f7xx_ll_sdmmc.c ****   * @parame Argument: Argument used for the command
1105:Drivers/STM32F7xx_HAL_Driver/Src/stm32f7xx_ll_sdmmc.c ****   * @retval HAL status
1106:Drivers/STM32F7xx_HAL_Driver/Src/stm32f7xx_ll_sdmmc.c ****   */
1107:Drivers/STM32F7xx_HAL_Driver/Src/stm32f7xx_ll_sdmmc.c **** uint32_t SDMMC_CmdSwitch(SDMMC_TypeDef *SDMMCx, uint32_t Argument)
1108:Drivers/STM32F7xx_HAL_Driver/Src/stm32f7xx_ll_sdmmc.c **** {
1109:Drivers/STM32F7xx_HAL_Driver/Src/stm32f7xx_ll_sdmmc.c ****   SDMMC_CmdInitTypeDef  sdmmc_cmdinit;
1110:Drivers/STM32F7xx_HAL_Driver/Src/stm32f7xx_ll_sdmmc.c ****   uint32_t errorstate;
1111:Drivers/STM32F7xx_HAL_Driver/Src/stm32f7xx_ll_sdmmc.c ****   
1112:Drivers/STM32F7xx_HAL_Driver/Src/stm32f7xx_ll_sdmmc.c ****   /* Send CMD6 to activate SDR50 Mode and Power Limit 1.44W */
1113:Drivers/STM32F7xx_HAL_Driver/Src/stm32f7xx_ll_sdmmc.c ****   /* CMD Response: R1 */
1114:Drivers/STM32F7xx_HAL_Driver/Src/stm32f7xx_ll_sdmmc.c ****   sdmmc_cmdinit.Argument         = Argument; /* SDMMC_SDR25_SWITCH_PATTERN */
ARM GAS  /tmp/ccPnSfMB.s 			page 21


1115:Drivers/STM32F7xx_HAL_Driver/Src/stm32f7xx_ll_sdmmc.c ****   sdmmc_cmdinit.CmdIndex         = SDMMC_CMD_HS_SWITCH;
1116:Drivers/STM32F7xx_HAL_Driver/Src/stm32f7xx_ll_sdmmc.c ****   sdmmc_cmdinit.Response         = SDMMC_RESPONSE_SHORT;
1117:Drivers/STM32F7xx_HAL_Driver/Src/stm32f7xx_ll_sdmmc.c ****   sdmmc_cmdinit.WaitForInterrupt = SDMMC_WAIT_NO;
1118:Drivers/STM32F7xx_HAL_Driver/Src/stm32f7xx_ll_sdmmc.c ****   sdmmc_cmdinit.CPSM             = SDMMC_CPSM_ENABLE;
1119:Drivers/STM32F7xx_HAL_Driver/Src/stm32f7xx_ll_sdmmc.c ****   (void)SDMMC_SendCommand(SDMMCx, &sdmmc_cmdinit);
1120:Drivers/STM32F7xx_HAL_Driver/Src/stm32f7xx_ll_sdmmc.c ****   
1121:Drivers/STM32F7xx_HAL_Driver/Src/stm32f7xx_ll_sdmmc.c ****   /* Check for error conditions */
1122:Drivers/STM32F7xx_HAL_Driver/Src/stm32f7xx_ll_sdmmc.c ****   errorstate = SDMMC_GetCmdResp1(SDMMCx, SDMMC_CMD_HS_SWITCH, SDMMC_CMDTIMEOUT);
1123:Drivers/STM32F7xx_HAL_Driver/Src/stm32f7xx_ll_sdmmc.c **** 
1124:Drivers/STM32F7xx_HAL_Driver/Src/stm32f7xx_ll_sdmmc.c ****   return errorstate;
1125:Drivers/STM32F7xx_HAL_Driver/Src/stm32f7xx_ll_sdmmc.c **** }
1126:Drivers/STM32F7xx_HAL_Driver/Src/stm32f7xx_ll_sdmmc.c **** 
1127:Drivers/STM32F7xx_HAL_Driver/Src/stm32f7xx_ll_sdmmc.c **** /**
1128:Drivers/STM32F7xx_HAL_Driver/Src/stm32f7xx_ll_sdmmc.c ****   * @}
1129:Drivers/STM32F7xx_HAL_Driver/Src/stm32f7xx_ll_sdmmc.c ****   */
1130:Drivers/STM32F7xx_HAL_Driver/Src/stm32f7xx_ll_sdmmc.c **** 
1131:Drivers/STM32F7xx_HAL_Driver/Src/stm32f7xx_ll_sdmmc.c **** /* Private function ----------------------------------------------------------*/  
1132:Drivers/STM32F7xx_HAL_Driver/Src/stm32f7xx_ll_sdmmc.c **** /** @addtogroup SD_Private_Functions
1133:Drivers/STM32F7xx_HAL_Driver/Src/stm32f7xx_ll_sdmmc.c ****   * @{
1134:Drivers/STM32F7xx_HAL_Driver/Src/stm32f7xx_ll_sdmmc.c ****   */
1135:Drivers/STM32F7xx_HAL_Driver/Src/stm32f7xx_ll_sdmmc.c ****     
1136:Drivers/STM32F7xx_HAL_Driver/Src/stm32f7xx_ll_sdmmc.c **** /**
1137:Drivers/STM32F7xx_HAL_Driver/Src/stm32f7xx_ll_sdmmc.c ****   * @brief  Checks for error conditions for CMD0.
1138:Drivers/STM32F7xx_HAL_Driver/Src/stm32f7xx_ll_sdmmc.c ****   * @param  hsd: SD handle
1139:Drivers/STM32F7xx_HAL_Driver/Src/stm32f7xx_ll_sdmmc.c ****   * @retval SD Card error state
1140:Drivers/STM32F7xx_HAL_Driver/Src/stm32f7xx_ll_sdmmc.c ****   */
1141:Drivers/STM32F7xx_HAL_Driver/Src/stm32f7xx_ll_sdmmc.c **** static uint32_t SDMMC_GetCmdError(SDMMC_TypeDef *SDMMCx)
1142:Drivers/STM32F7xx_HAL_Driver/Src/stm32f7xx_ll_sdmmc.c **** {
  28              		.loc 1 1142 1 view -0
  29              		.cfi_startproc
  30              		@ args = 0, pretend = 0, frame = 0
  31              		@ frame_needed = 0, uses_anonymous_args = 0
  32              		@ link register save eliminated.
1143:Drivers/STM32F7xx_HAL_Driver/Src/stm32f7xx_ll_sdmmc.c ****   /* 8 is the number of required instructions cycles for the below loop statement.
1144:Drivers/STM32F7xx_HAL_Driver/Src/stm32f7xx_ll_sdmmc.c ****   The SDMMC_CMDTIMEOUT is expressed in ms */
1145:Drivers/STM32F7xx_HAL_Driver/Src/stm32f7xx_ll_sdmmc.c ****   register uint32_t count = SDMMC_CMDTIMEOUT * (SystemCoreClock / 8U /1000U);
  33              		.loc 1 1145 3 view .LVU1
  34              		.loc 1 1145 70 is_stmt 0 view .LVU2
  35 0000 0B4B     		ldr	r3, .L5
  36 0002 1B68     		ldr	r3, [r3]
  37 0004 0B4A     		ldr	r2, .L5+4
  38 0006 A2FB0323 		umull	r2, r3, r2, r3
  39 000a 5A0A     		lsrs	r2, r3, #9
  40              		.loc 1 1145 21 view .LVU3
  41 000c 41F28833 		movw	r3, #5000
  42 0010 03FB02F3 		mul	r3, r3, r2
  43              	.LVL1:
  44              	.L3:
1146:Drivers/STM32F7xx_HAL_Driver/Src/stm32f7xx_ll_sdmmc.c ****   
1147:Drivers/STM32F7xx_HAL_Driver/Src/stm32f7xx_ll_sdmmc.c ****   do
  45              		.loc 1 1147 3 is_stmt 1 view .LVU4
1148:Drivers/STM32F7xx_HAL_Driver/Src/stm32f7xx_ll_sdmmc.c ****   {
1149:Drivers/STM32F7xx_HAL_Driver/Src/stm32f7xx_ll_sdmmc.c ****     if (count-- == 0U)
  46              		.loc 1 1149 5 view .LVU5
  47 0014 1A46     		mov	r2, r3
  48              		.loc 1 1149 14 is_stmt 0 view .LVU6
  49 0016 013B     		subs	r3, r3, #1
ARM GAS  /tmp/ccPnSfMB.s 			page 22


  50              	.LVL2:
  51              		.loc 1 1149 8 view .LVU7
  52 0018 3AB1     		cbz	r2, .L4
1150:Drivers/STM32F7xx_HAL_Driver/Src/stm32f7xx_ll_sdmmc.c ****     {
1151:Drivers/STM32F7xx_HAL_Driver/Src/stm32f7xx_ll_sdmmc.c ****       return SDMMC_ERROR_TIMEOUT;
1152:Drivers/STM32F7xx_HAL_Driver/Src/stm32f7xx_ll_sdmmc.c ****     }
1153:Drivers/STM32F7xx_HAL_Driver/Src/stm32f7xx_ll_sdmmc.c ****     
1154:Drivers/STM32F7xx_HAL_Driver/Src/stm32f7xx_ll_sdmmc.c ****   }while(!__SDMMC_GET_FLAG(SDMMCx, SDMMC_FLAG_CMDSENT));
  53              		.loc 1 1154 9 is_stmt 1 view .LVU8
  54              		.loc 1 1154 11 is_stmt 0 view .LVU9
  55 001a 426B     		ldr	r2, [r0, #52]
  56              		.loc 1 1154 3 view .LVU10
  57 001c 12F0800F 		tst	r2, #128
  58 0020 F8D0     		beq	.L3
1155:Drivers/STM32F7xx_HAL_Driver/Src/stm32f7xx_ll_sdmmc.c ****   
1156:Drivers/STM32F7xx_HAL_Driver/Src/stm32f7xx_ll_sdmmc.c ****   /* Clear all the static flags */
1157:Drivers/STM32F7xx_HAL_Driver/Src/stm32f7xx_ll_sdmmc.c ****   __SDMMC_CLEAR_FLAG(SDMMCx, SDMMC_STATIC_CMD_FLAGS);
  59              		.loc 1 1157 3 is_stmt 1 view .LVU11
  60 0022 C523     		movs	r3, #197
  61              	.LVL3:
  62              		.loc 1 1157 3 is_stmt 0 view .LVU12
  63 0024 8363     		str	r3, [r0, #56]
1158:Drivers/STM32F7xx_HAL_Driver/Src/stm32f7xx_ll_sdmmc.c ****   
1159:Drivers/STM32F7xx_HAL_Driver/Src/stm32f7xx_ll_sdmmc.c ****   return SDMMC_ERROR_NONE;
  64              		.loc 1 1159 3 is_stmt 1 view .LVU13
  65              		.loc 1 1159 10 is_stmt 0 view .LVU14
  66 0026 0020     		movs	r0, #0
  67              	.LVL4:
  68              		.loc 1 1159 10 view .LVU15
  69 0028 7047     		bx	lr
  70              	.LVL5:
  71              	.L4:
1151:Drivers/STM32F7xx_HAL_Driver/Src/stm32f7xx_ll_sdmmc.c ****     }
  72              		.loc 1 1151 14 view .LVU16
  73 002a 4FF00040 		mov	r0, #-2147483648
  74              	.LVL6:
1160:Drivers/STM32F7xx_HAL_Driver/Src/stm32f7xx_ll_sdmmc.c **** }
  75              		.loc 1 1160 1 view .LVU17
  76 002e 7047     		bx	lr
  77              	.L6:
  78              		.align	2
  79              	.L5:
  80 0030 00000000 		.word	SystemCoreClock
  81 0034 D34D6210 		.word	274877907
  82              		.cfi_endproc
  83              	.LFE179:
  85              		.section	.text.SDMMC_GetCmdResp2,"ax",%progbits
  86              		.align	1
  87              		.syntax unified
  88              		.thumb
  89              		.thumb_func
  90              		.fpu fpv5-d16
  92              	SDMMC_GetCmdResp2:
  93              	.LVL7:
  94              	.LFB181:
1161:Drivers/STM32F7xx_HAL_Driver/Src/stm32f7xx_ll_sdmmc.c **** 
1162:Drivers/STM32F7xx_HAL_Driver/Src/stm32f7xx_ll_sdmmc.c **** /**
ARM GAS  /tmp/ccPnSfMB.s 			page 23


1163:Drivers/STM32F7xx_HAL_Driver/Src/stm32f7xx_ll_sdmmc.c ****   * @brief  Checks for error conditions for R1 response.
1164:Drivers/STM32F7xx_HAL_Driver/Src/stm32f7xx_ll_sdmmc.c ****   * @param  hsd: SD handle
1165:Drivers/STM32F7xx_HAL_Driver/Src/stm32f7xx_ll_sdmmc.c ****   * @param  SD_CMD: The sent command index  
1166:Drivers/STM32F7xx_HAL_Driver/Src/stm32f7xx_ll_sdmmc.c ****   * @retval SD Card error state
1167:Drivers/STM32F7xx_HAL_Driver/Src/stm32f7xx_ll_sdmmc.c ****   */
1168:Drivers/STM32F7xx_HAL_Driver/Src/stm32f7xx_ll_sdmmc.c **** static uint32_t SDMMC_GetCmdResp1(SDMMC_TypeDef *SDMMCx, uint8_t SD_CMD, uint32_t Timeout)
1169:Drivers/STM32F7xx_HAL_Driver/Src/stm32f7xx_ll_sdmmc.c **** {
1170:Drivers/STM32F7xx_HAL_Driver/Src/stm32f7xx_ll_sdmmc.c ****   uint32_t response_r1;
1171:Drivers/STM32F7xx_HAL_Driver/Src/stm32f7xx_ll_sdmmc.c ****   uint32_t sta_reg;
1172:Drivers/STM32F7xx_HAL_Driver/Src/stm32f7xx_ll_sdmmc.c ****   
1173:Drivers/STM32F7xx_HAL_Driver/Src/stm32f7xx_ll_sdmmc.c ****   /* 8 is the number of required instructions cycles for the below loop statement.
1174:Drivers/STM32F7xx_HAL_Driver/Src/stm32f7xx_ll_sdmmc.c ****   The Timeout is expressed in ms */
1175:Drivers/STM32F7xx_HAL_Driver/Src/stm32f7xx_ll_sdmmc.c ****   register uint32_t count = Timeout * (SystemCoreClock / 8U /1000U);
1176:Drivers/STM32F7xx_HAL_Driver/Src/stm32f7xx_ll_sdmmc.c ****   
1177:Drivers/STM32F7xx_HAL_Driver/Src/stm32f7xx_ll_sdmmc.c ****   do
1178:Drivers/STM32F7xx_HAL_Driver/Src/stm32f7xx_ll_sdmmc.c ****   {
1179:Drivers/STM32F7xx_HAL_Driver/Src/stm32f7xx_ll_sdmmc.c ****     if (count-- == 0U)
1180:Drivers/STM32F7xx_HAL_Driver/Src/stm32f7xx_ll_sdmmc.c ****     {
1181:Drivers/STM32F7xx_HAL_Driver/Src/stm32f7xx_ll_sdmmc.c ****       return SDMMC_ERROR_TIMEOUT;
1182:Drivers/STM32F7xx_HAL_Driver/Src/stm32f7xx_ll_sdmmc.c ****     }
1183:Drivers/STM32F7xx_HAL_Driver/Src/stm32f7xx_ll_sdmmc.c ****     sta_reg = SDMMCx->STA;
1184:Drivers/STM32F7xx_HAL_Driver/Src/stm32f7xx_ll_sdmmc.c ****   }while(((sta_reg & (SDMMC_FLAG_CCRCFAIL | SDMMC_FLAG_CMDREND | SDMMC_FLAG_CTIMEOUT)) == 0U) ||
1185:Drivers/STM32F7xx_HAL_Driver/Src/stm32f7xx_ll_sdmmc.c ****          ((sta_reg & SDMMC_FLAG_CMDACT) != 0U ));
1186:Drivers/STM32F7xx_HAL_Driver/Src/stm32f7xx_ll_sdmmc.c ****     
1187:Drivers/STM32F7xx_HAL_Driver/Src/stm32f7xx_ll_sdmmc.c ****   if(__SDMMC_GET_FLAG(SDMMCx, SDMMC_FLAG_CTIMEOUT))
1188:Drivers/STM32F7xx_HAL_Driver/Src/stm32f7xx_ll_sdmmc.c ****   {
1189:Drivers/STM32F7xx_HAL_Driver/Src/stm32f7xx_ll_sdmmc.c ****     __SDMMC_CLEAR_FLAG(SDMMCx, SDMMC_FLAG_CTIMEOUT);
1190:Drivers/STM32F7xx_HAL_Driver/Src/stm32f7xx_ll_sdmmc.c ****     
1191:Drivers/STM32F7xx_HAL_Driver/Src/stm32f7xx_ll_sdmmc.c ****     return SDMMC_ERROR_CMD_RSP_TIMEOUT;
1192:Drivers/STM32F7xx_HAL_Driver/Src/stm32f7xx_ll_sdmmc.c ****   }
1193:Drivers/STM32F7xx_HAL_Driver/Src/stm32f7xx_ll_sdmmc.c ****   else if(__SDMMC_GET_FLAG(SDMMCx, SDMMC_FLAG_CCRCFAIL))
1194:Drivers/STM32F7xx_HAL_Driver/Src/stm32f7xx_ll_sdmmc.c ****   {
1195:Drivers/STM32F7xx_HAL_Driver/Src/stm32f7xx_ll_sdmmc.c ****     __SDMMC_CLEAR_FLAG(SDMMCx, SDMMC_FLAG_CCRCFAIL);
1196:Drivers/STM32F7xx_HAL_Driver/Src/stm32f7xx_ll_sdmmc.c ****     
1197:Drivers/STM32F7xx_HAL_Driver/Src/stm32f7xx_ll_sdmmc.c ****     return SDMMC_ERROR_CMD_CRC_FAIL;
1198:Drivers/STM32F7xx_HAL_Driver/Src/stm32f7xx_ll_sdmmc.c ****   }
1199:Drivers/STM32F7xx_HAL_Driver/Src/stm32f7xx_ll_sdmmc.c ****   else
1200:Drivers/STM32F7xx_HAL_Driver/Src/stm32f7xx_ll_sdmmc.c ****   {
1201:Drivers/STM32F7xx_HAL_Driver/Src/stm32f7xx_ll_sdmmc.c ****     /* Nothing to do */
1202:Drivers/STM32F7xx_HAL_Driver/Src/stm32f7xx_ll_sdmmc.c ****   }
1203:Drivers/STM32F7xx_HAL_Driver/Src/stm32f7xx_ll_sdmmc.c ****   
1204:Drivers/STM32F7xx_HAL_Driver/Src/stm32f7xx_ll_sdmmc.c ****   /* Clear all the static flags */
1205:Drivers/STM32F7xx_HAL_Driver/Src/stm32f7xx_ll_sdmmc.c ****   __SDMMC_CLEAR_FLAG(SDMMCx, SDMMC_STATIC_CMD_FLAGS);
1206:Drivers/STM32F7xx_HAL_Driver/Src/stm32f7xx_ll_sdmmc.c ****   
1207:Drivers/STM32F7xx_HAL_Driver/Src/stm32f7xx_ll_sdmmc.c ****   /* Check response received is of desired command */
1208:Drivers/STM32F7xx_HAL_Driver/Src/stm32f7xx_ll_sdmmc.c ****   if(SDMMC_GetCommandResponse(SDMMCx) != SD_CMD)
1209:Drivers/STM32F7xx_HAL_Driver/Src/stm32f7xx_ll_sdmmc.c ****   {
1210:Drivers/STM32F7xx_HAL_Driver/Src/stm32f7xx_ll_sdmmc.c ****     return SDMMC_ERROR_CMD_CRC_FAIL;
1211:Drivers/STM32F7xx_HAL_Driver/Src/stm32f7xx_ll_sdmmc.c ****   }
1212:Drivers/STM32F7xx_HAL_Driver/Src/stm32f7xx_ll_sdmmc.c ****   
1213:Drivers/STM32F7xx_HAL_Driver/Src/stm32f7xx_ll_sdmmc.c ****   /* We have received response, retrieve it for analysis  */
1214:Drivers/STM32F7xx_HAL_Driver/Src/stm32f7xx_ll_sdmmc.c ****   response_r1 = SDMMC_GetResponse(SDMMCx, SDMMC_RESP1);
1215:Drivers/STM32F7xx_HAL_Driver/Src/stm32f7xx_ll_sdmmc.c ****   
1216:Drivers/STM32F7xx_HAL_Driver/Src/stm32f7xx_ll_sdmmc.c ****   if((response_r1 & SDMMC_OCR_ERRORBITS) == SDMMC_ALLZERO)
1217:Drivers/STM32F7xx_HAL_Driver/Src/stm32f7xx_ll_sdmmc.c ****   {
1218:Drivers/STM32F7xx_HAL_Driver/Src/stm32f7xx_ll_sdmmc.c ****     return SDMMC_ERROR_NONE;
1219:Drivers/STM32F7xx_HAL_Driver/Src/stm32f7xx_ll_sdmmc.c ****   }
ARM GAS  /tmp/ccPnSfMB.s 			page 24


1220:Drivers/STM32F7xx_HAL_Driver/Src/stm32f7xx_ll_sdmmc.c ****   else if((response_r1 & SDMMC_OCR_ADDR_OUT_OF_RANGE) == SDMMC_OCR_ADDR_OUT_OF_RANGE)
1221:Drivers/STM32F7xx_HAL_Driver/Src/stm32f7xx_ll_sdmmc.c ****   {
1222:Drivers/STM32F7xx_HAL_Driver/Src/stm32f7xx_ll_sdmmc.c ****     return SDMMC_ERROR_ADDR_OUT_OF_RANGE;
1223:Drivers/STM32F7xx_HAL_Driver/Src/stm32f7xx_ll_sdmmc.c ****   }
1224:Drivers/STM32F7xx_HAL_Driver/Src/stm32f7xx_ll_sdmmc.c ****   else if((response_r1 & SDMMC_OCR_ADDR_MISALIGNED) == SDMMC_OCR_ADDR_MISALIGNED)
1225:Drivers/STM32F7xx_HAL_Driver/Src/stm32f7xx_ll_sdmmc.c ****   {
1226:Drivers/STM32F7xx_HAL_Driver/Src/stm32f7xx_ll_sdmmc.c ****     return SDMMC_ERROR_ADDR_MISALIGNED;
1227:Drivers/STM32F7xx_HAL_Driver/Src/stm32f7xx_ll_sdmmc.c ****   }
1228:Drivers/STM32F7xx_HAL_Driver/Src/stm32f7xx_ll_sdmmc.c ****   else if((response_r1 & SDMMC_OCR_BLOCK_LEN_ERR) == SDMMC_OCR_BLOCK_LEN_ERR)
1229:Drivers/STM32F7xx_HAL_Driver/Src/stm32f7xx_ll_sdmmc.c ****   {
1230:Drivers/STM32F7xx_HAL_Driver/Src/stm32f7xx_ll_sdmmc.c ****     return SDMMC_ERROR_BLOCK_LEN_ERR;
1231:Drivers/STM32F7xx_HAL_Driver/Src/stm32f7xx_ll_sdmmc.c ****   }
1232:Drivers/STM32F7xx_HAL_Driver/Src/stm32f7xx_ll_sdmmc.c ****   else if((response_r1 & SDMMC_OCR_ERASE_SEQ_ERR) == SDMMC_OCR_ERASE_SEQ_ERR)
1233:Drivers/STM32F7xx_HAL_Driver/Src/stm32f7xx_ll_sdmmc.c ****   {
1234:Drivers/STM32F7xx_HAL_Driver/Src/stm32f7xx_ll_sdmmc.c ****     return SDMMC_ERROR_ERASE_SEQ_ERR;
1235:Drivers/STM32F7xx_HAL_Driver/Src/stm32f7xx_ll_sdmmc.c ****   }
1236:Drivers/STM32F7xx_HAL_Driver/Src/stm32f7xx_ll_sdmmc.c ****   else if((response_r1 & SDMMC_OCR_BAD_ERASE_PARAM) == SDMMC_OCR_BAD_ERASE_PARAM)
1237:Drivers/STM32F7xx_HAL_Driver/Src/stm32f7xx_ll_sdmmc.c ****   {
1238:Drivers/STM32F7xx_HAL_Driver/Src/stm32f7xx_ll_sdmmc.c ****     return SDMMC_ERROR_BAD_ERASE_PARAM;
1239:Drivers/STM32F7xx_HAL_Driver/Src/stm32f7xx_ll_sdmmc.c ****   }
1240:Drivers/STM32F7xx_HAL_Driver/Src/stm32f7xx_ll_sdmmc.c ****   else if((response_r1 & SDMMC_OCR_WRITE_PROT_VIOLATION) == SDMMC_OCR_WRITE_PROT_VIOLATION)
1241:Drivers/STM32F7xx_HAL_Driver/Src/stm32f7xx_ll_sdmmc.c ****   {
1242:Drivers/STM32F7xx_HAL_Driver/Src/stm32f7xx_ll_sdmmc.c ****     return SDMMC_ERROR_WRITE_PROT_VIOLATION;
1243:Drivers/STM32F7xx_HAL_Driver/Src/stm32f7xx_ll_sdmmc.c ****   }
1244:Drivers/STM32F7xx_HAL_Driver/Src/stm32f7xx_ll_sdmmc.c ****   else if((response_r1 & SDMMC_OCR_LOCK_UNLOCK_FAILED) == SDMMC_OCR_LOCK_UNLOCK_FAILED)
1245:Drivers/STM32F7xx_HAL_Driver/Src/stm32f7xx_ll_sdmmc.c ****   {
1246:Drivers/STM32F7xx_HAL_Driver/Src/stm32f7xx_ll_sdmmc.c ****     return SDMMC_ERROR_LOCK_UNLOCK_FAILED;
1247:Drivers/STM32F7xx_HAL_Driver/Src/stm32f7xx_ll_sdmmc.c ****   }
1248:Drivers/STM32F7xx_HAL_Driver/Src/stm32f7xx_ll_sdmmc.c ****   else if((response_r1 & SDMMC_OCR_COM_CRC_FAILED) == SDMMC_OCR_COM_CRC_FAILED)
1249:Drivers/STM32F7xx_HAL_Driver/Src/stm32f7xx_ll_sdmmc.c ****   {
1250:Drivers/STM32F7xx_HAL_Driver/Src/stm32f7xx_ll_sdmmc.c ****     return SDMMC_ERROR_COM_CRC_FAILED;
1251:Drivers/STM32F7xx_HAL_Driver/Src/stm32f7xx_ll_sdmmc.c ****   }
1252:Drivers/STM32F7xx_HAL_Driver/Src/stm32f7xx_ll_sdmmc.c ****   else if((response_r1 & SDMMC_OCR_ILLEGAL_CMD) == SDMMC_OCR_ILLEGAL_CMD)
1253:Drivers/STM32F7xx_HAL_Driver/Src/stm32f7xx_ll_sdmmc.c ****   {
1254:Drivers/STM32F7xx_HAL_Driver/Src/stm32f7xx_ll_sdmmc.c ****     return SDMMC_ERROR_ILLEGAL_CMD;
1255:Drivers/STM32F7xx_HAL_Driver/Src/stm32f7xx_ll_sdmmc.c ****   }
1256:Drivers/STM32F7xx_HAL_Driver/Src/stm32f7xx_ll_sdmmc.c ****   else if((response_r1 & SDMMC_OCR_CARD_ECC_FAILED) == SDMMC_OCR_CARD_ECC_FAILED)
1257:Drivers/STM32F7xx_HAL_Driver/Src/stm32f7xx_ll_sdmmc.c ****   {
1258:Drivers/STM32F7xx_HAL_Driver/Src/stm32f7xx_ll_sdmmc.c ****     return SDMMC_ERROR_CARD_ECC_FAILED;
1259:Drivers/STM32F7xx_HAL_Driver/Src/stm32f7xx_ll_sdmmc.c ****   }
1260:Drivers/STM32F7xx_HAL_Driver/Src/stm32f7xx_ll_sdmmc.c ****   else if((response_r1 & SDMMC_OCR_CC_ERROR) == SDMMC_OCR_CC_ERROR)
1261:Drivers/STM32F7xx_HAL_Driver/Src/stm32f7xx_ll_sdmmc.c ****   {
1262:Drivers/STM32F7xx_HAL_Driver/Src/stm32f7xx_ll_sdmmc.c ****     return SDMMC_ERROR_CC_ERR;
1263:Drivers/STM32F7xx_HAL_Driver/Src/stm32f7xx_ll_sdmmc.c ****   }
1264:Drivers/STM32F7xx_HAL_Driver/Src/stm32f7xx_ll_sdmmc.c ****   else if((response_r1 & SDMMC_OCR_STREAM_READ_UNDERRUN) == SDMMC_OCR_STREAM_READ_UNDERRUN)
1265:Drivers/STM32F7xx_HAL_Driver/Src/stm32f7xx_ll_sdmmc.c ****   {
1266:Drivers/STM32F7xx_HAL_Driver/Src/stm32f7xx_ll_sdmmc.c ****     return SDMMC_ERROR_STREAM_READ_UNDERRUN;
1267:Drivers/STM32F7xx_HAL_Driver/Src/stm32f7xx_ll_sdmmc.c ****   }
1268:Drivers/STM32F7xx_HAL_Driver/Src/stm32f7xx_ll_sdmmc.c ****   else if((response_r1 & SDMMC_OCR_STREAM_WRITE_OVERRUN) == SDMMC_OCR_STREAM_WRITE_OVERRUN)
1269:Drivers/STM32F7xx_HAL_Driver/Src/stm32f7xx_ll_sdmmc.c ****   {
1270:Drivers/STM32F7xx_HAL_Driver/Src/stm32f7xx_ll_sdmmc.c ****     return SDMMC_ERROR_STREAM_WRITE_OVERRUN;
1271:Drivers/STM32F7xx_HAL_Driver/Src/stm32f7xx_ll_sdmmc.c ****   }
1272:Drivers/STM32F7xx_HAL_Driver/Src/stm32f7xx_ll_sdmmc.c ****   else if((response_r1 & SDMMC_OCR_CID_CSD_OVERWRITE) == SDMMC_OCR_CID_CSD_OVERWRITE)
1273:Drivers/STM32F7xx_HAL_Driver/Src/stm32f7xx_ll_sdmmc.c ****   {
1274:Drivers/STM32F7xx_HAL_Driver/Src/stm32f7xx_ll_sdmmc.c ****     return SDMMC_ERROR_CID_CSD_OVERWRITE;
1275:Drivers/STM32F7xx_HAL_Driver/Src/stm32f7xx_ll_sdmmc.c ****   }
1276:Drivers/STM32F7xx_HAL_Driver/Src/stm32f7xx_ll_sdmmc.c ****   else if((response_r1 & SDMMC_OCR_WP_ERASE_SKIP) == SDMMC_OCR_WP_ERASE_SKIP)
ARM GAS  /tmp/ccPnSfMB.s 			page 25


1277:Drivers/STM32F7xx_HAL_Driver/Src/stm32f7xx_ll_sdmmc.c ****   {
1278:Drivers/STM32F7xx_HAL_Driver/Src/stm32f7xx_ll_sdmmc.c ****     return SDMMC_ERROR_WP_ERASE_SKIP;
1279:Drivers/STM32F7xx_HAL_Driver/Src/stm32f7xx_ll_sdmmc.c ****   }
1280:Drivers/STM32F7xx_HAL_Driver/Src/stm32f7xx_ll_sdmmc.c ****   else if((response_r1 & SDMMC_OCR_CARD_ECC_DISABLED) == SDMMC_OCR_CARD_ECC_DISABLED)
1281:Drivers/STM32F7xx_HAL_Driver/Src/stm32f7xx_ll_sdmmc.c ****   {
1282:Drivers/STM32F7xx_HAL_Driver/Src/stm32f7xx_ll_sdmmc.c ****     return SDMMC_ERROR_CARD_ECC_DISABLED;
1283:Drivers/STM32F7xx_HAL_Driver/Src/stm32f7xx_ll_sdmmc.c ****   }
1284:Drivers/STM32F7xx_HAL_Driver/Src/stm32f7xx_ll_sdmmc.c ****   else if((response_r1 & SDMMC_OCR_ERASE_RESET) == SDMMC_OCR_ERASE_RESET)
1285:Drivers/STM32F7xx_HAL_Driver/Src/stm32f7xx_ll_sdmmc.c ****   {
1286:Drivers/STM32F7xx_HAL_Driver/Src/stm32f7xx_ll_sdmmc.c ****     return SDMMC_ERROR_ERASE_RESET;
1287:Drivers/STM32F7xx_HAL_Driver/Src/stm32f7xx_ll_sdmmc.c ****   }
1288:Drivers/STM32F7xx_HAL_Driver/Src/stm32f7xx_ll_sdmmc.c ****   else if((response_r1 & SDMMC_OCR_AKE_SEQ_ERROR) == SDMMC_OCR_AKE_SEQ_ERROR)
1289:Drivers/STM32F7xx_HAL_Driver/Src/stm32f7xx_ll_sdmmc.c ****   {
1290:Drivers/STM32F7xx_HAL_Driver/Src/stm32f7xx_ll_sdmmc.c ****     return SDMMC_ERROR_AKE_SEQ_ERR;
1291:Drivers/STM32F7xx_HAL_Driver/Src/stm32f7xx_ll_sdmmc.c ****   }
1292:Drivers/STM32F7xx_HAL_Driver/Src/stm32f7xx_ll_sdmmc.c ****   else
1293:Drivers/STM32F7xx_HAL_Driver/Src/stm32f7xx_ll_sdmmc.c ****   {
1294:Drivers/STM32F7xx_HAL_Driver/Src/stm32f7xx_ll_sdmmc.c ****     return SDMMC_ERROR_GENERAL_UNKNOWN_ERR;
1295:Drivers/STM32F7xx_HAL_Driver/Src/stm32f7xx_ll_sdmmc.c ****   }
1296:Drivers/STM32F7xx_HAL_Driver/Src/stm32f7xx_ll_sdmmc.c **** }
1297:Drivers/STM32F7xx_HAL_Driver/Src/stm32f7xx_ll_sdmmc.c **** 
1298:Drivers/STM32F7xx_HAL_Driver/Src/stm32f7xx_ll_sdmmc.c **** /**
1299:Drivers/STM32F7xx_HAL_Driver/Src/stm32f7xx_ll_sdmmc.c ****   * @brief  Checks for error conditions for R2 (CID or CSD) response.
1300:Drivers/STM32F7xx_HAL_Driver/Src/stm32f7xx_ll_sdmmc.c ****   * @param  hsd: SD handle
1301:Drivers/STM32F7xx_HAL_Driver/Src/stm32f7xx_ll_sdmmc.c ****   * @retval SD Card error state
1302:Drivers/STM32F7xx_HAL_Driver/Src/stm32f7xx_ll_sdmmc.c ****   */
1303:Drivers/STM32F7xx_HAL_Driver/Src/stm32f7xx_ll_sdmmc.c **** static uint32_t SDMMC_GetCmdResp2(SDMMC_TypeDef *SDMMCx)
1304:Drivers/STM32F7xx_HAL_Driver/Src/stm32f7xx_ll_sdmmc.c **** {
  95              		.loc 1 1304 1 is_stmt 1 view -0
  96              		.cfi_startproc
  97              		@ args = 0, pretend = 0, frame = 0
  98              		@ frame_needed = 0, uses_anonymous_args = 0
  99              		@ link register save eliminated.
 100              		.loc 1 1304 1 is_stmt 0 view .LVU19
 101 0000 0146     		mov	r1, r0
1305:Drivers/STM32F7xx_HAL_Driver/Src/stm32f7xx_ll_sdmmc.c ****   uint32_t sta_reg;
 102              		.loc 1 1305 3 is_stmt 1 view .LVU20
1306:Drivers/STM32F7xx_HAL_Driver/Src/stm32f7xx_ll_sdmmc.c ****   /* 8 is the number of required instructions cycles for the below loop statement.
1307:Drivers/STM32F7xx_HAL_Driver/Src/stm32f7xx_ll_sdmmc.c ****   The SDMMC_CMDTIMEOUT is expressed in ms */
1308:Drivers/STM32F7xx_HAL_Driver/Src/stm32f7xx_ll_sdmmc.c ****   register uint32_t count = SDMMC_CMDTIMEOUT * (SystemCoreClock / 8U /1000U);
 103              		.loc 1 1308 3 view .LVU21
 104              		.loc 1 1308 70 is_stmt 0 view .LVU22
 105 0002 144B     		ldr	r3, .L15
 106 0004 1B68     		ldr	r3, [r3]
 107 0006 144A     		ldr	r2, .L15+4
 108 0008 A2FB0323 		umull	r2, r3, r2, r3
 109 000c 5A0A     		lsrs	r2, r3, #9
 110              		.loc 1 1308 21 view .LVU23
 111 000e 41F28833 		movw	r3, #5000
 112 0012 03FB02F3 		mul	r3, r3, r2
 113              	.LVL8:
 114              	.L9:
1309:Drivers/STM32F7xx_HAL_Driver/Src/stm32f7xx_ll_sdmmc.c ****   
1310:Drivers/STM32F7xx_HAL_Driver/Src/stm32f7xx_ll_sdmmc.c ****   do
 115              		.loc 1 1310 3 is_stmt 1 view .LVU24
1311:Drivers/STM32F7xx_HAL_Driver/Src/stm32f7xx_ll_sdmmc.c ****   {
1312:Drivers/STM32F7xx_HAL_Driver/Src/stm32f7xx_ll_sdmmc.c ****     if (count-- == 0U)
ARM GAS  /tmp/ccPnSfMB.s 			page 26


 116              		.loc 1 1312 5 view .LVU25
 117 0016 1A46     		mov	r2, r3
 118              		.loc 1 1312 14 is_stmt 0 view .LVU26
 119 0018 013B     		subs	r3, r3, #1
 120              	.LVL9:
 121              		.loc 1 1312 8 view .LVU27
 122 001a BAB1     		cbz	r2, .L12
1313:Drivers/STM32F7xx_HAL_Driver/Src/stm32f7xx_ll_sdmmc.c ****     {
1314:Drivers/STM32F7xx_HAL_Driver/Src/stm32f7xx_ll_sdmmc.c ****       return SDMMC_ERROR_TIMEOUT;
1315:Drivers/STM32F7xx_HAL_Driver/Src/stm32f7xx_ll_sdmmc.c ****     }
1316:Drivers/STM32F7xx_HAL_Driver/Src/stm32f7xx_ll_sdmmc.c ****     sta_reg = SDMMCx->STA;
 123              		.loc 1 1316 5 is_stmt 1 view .LVU28
 124              		.loc 1 1316 13 is_stmt 0 view .LVU29
 125 001c 4A6B     		ldr	r2, [r1, #52]
 126              	.LVL10:
1317:Drivers/STM32F7xx_HAL_Driver/Src/stm32f7xx_ll_sdmmc.c ****   }while(((sta_reg & (SDMMC_FLAG_CCRCFAIL | SDMMC_FLAG_CMDREND | SDMMC_FLAG_CTIMEOUT)) == 0U) ||
 127              		.loc 1 1317 9 is_stmt 1 view .LVU30
1318:Drivers/STM32F7xx_HAL_Driver/Src/stm32f7xx_ll_sdmmc.c ****          ((sta_reg & SDMMC_FLAG_CMDACT) != 0U ));
 128              		.loc 1 1318 10 is_stmt 0 view .LVU31
 129 001e 12F0450F 		tst	r2, #69
 130 0022 F8D0     		beq	.L9
1317:Drivers/STM32F7xx_HAL_Driver/Src/stm32f7xx_ll_sdmmc.c ****   }while(((sta_reg & (SDMMC_FLAG_CCRCFAIL | SDMMC_FLAG_CMDREND | SDMMC_FLAG_CTIMEOUT)) == 0U) ||
 131              		.loc 1 1317 95 discriminator 1 view .LVU32
 132 0024 12F4006F 		tst	r2, #2048
 133 0028 F5D1     		bne	.L9
1319:Drivers/STM32F7xx_HAL_Driver/Src/stm32f7xx_ll_sdmmc.c ****     
1320:Drivers/STM32F7xx_HAL_Driver/Src/stm32f7xx_ll_sdmmc.c ****   if (__SDMMC_GET_FLAG(SDMMCx, SDMMC_FLAG_CTIMEOUT))
 134              		.loc 1 1320 3 is_stmt 1 view .LVU33
 135              		.loc 1 1320 7 is_stmt 0 view .LVU34
 136 002a 4B6B     		ldr	r3, [r1, #52]
 137              	.LVL11:
 138              		.loc 1 1320 6 view .LVU35
 139 002c 13F0040F 		tst	r3, #4
 140 0030 06D1     		bne	.L13
1321:Drivers/STM32F7xx_HAL_Driver/Src/stm32f7xx_ll_sdmmc.c ****   {
1322:Drivers/STM32F7xx_HAL_Driver/Src/stm32f7xx_ll_sdmmc.c ****     __SDMMC_CLEAR_FLAG(SDMMCx, SDMMC_FLAG_CTIMEOUT);
1323:Drivers/STM32F7xx_HAL_Driver/Src/stm32f7xx_ll_sdmmc.c ****     
1324:Drivers/STM32F7xx_HAL_Driver/Src/stm32f7xx_ll_sdmmc.c ****     return SDMMC_ERROR_CMD_RSP_TIMEOUT;
1325:Drivers/STM32F7xx_HAL_Driver/Src/stm32f7xx_ll_sdmmc.c ****   }
1326:Drivers/STM32F7xx_HAL_Driver/Src/stm32f7xx_ll_sdmmc.c ****   else if (__SDMMC_GET_FLAG(SDMMCx, SDMMC_FLAG_CCRCFAIL))
 141              		.loc 1 1326 8 is_stmt 1 view .LVU36
 142              		.loc 1 1326 12 is_stmt 0 view .LVU37
 143 0032 486B     		ldr	r0, [r1, #52]
 144              	.LVL12:
 145              		.loc 1 1326 11 view .LVU38
 146 0034 10F00100 		ands	r0, r0, #1
 147 0038 05D1     		bne	.L14
1327:Drivers/STM32F7xx_HAL_Driver/Src/stm32f7xx_ll_sdmmc.c ****   {
1328:Drivers/STM32F7xx_HAL_Driver/Src/stm32f7xx_ll_sdmmc.c ****     __SDMMC_CLEAR_FLAG(SDMMCx, SDMMC_FLAG_CCRCFAIL);
1329:Drivers/STM32F7xx_HAL_Driver/Src/stm32f7xx_ll_sdmmc.c ****     
1330:Drivers/STM32F7xx_HAL_Driver/Src/stm32f7xx_ll_sdmmc.c ****     return SDMMC_ERROR_CMD_CRC_FAIL;
1331:Drivers/STM32F7xx_HAL_Driver/Src/stm32f7xx_ll_sdmmc.c ****   }
1332:Drivers/STM32F7xx_HAL_Driver/Src/stm32f7xx_ll_sdmmc.c ****   else
1333:Drivers/STM32F7xx_HAL_Driver/Src/stm32f7xx_ll_sdmmc.c ****   {
1334:Drivers/STM32F7xx_HAL_Driver/Src/stm32f7xx_ll_sdmmc.c ****     /* No error flag set */
1335:Drivers/STM32F7xx_HAL_Driver/Src/stm32f7xx_ll_sdmmc.c ****     /* Clear all the static flags */
1336:Drivers/STM32F7xx_HAL_Driver/Src/stm32f7xx_ll_sdmmc.c ****     __SDMMC_CLEAR_FLAG(SDMMCx, SDMMC_STATIC_CMD_FLAGS);
ARM GAS  /tmp/ccPnSfMB.s 			page 27


 148              		.loc 1 1336 5 is_stmt 1 view .LVU39
 149 003a C523     		movs	r3, #197
 150 003c 8B63     		str	r3, [r1, #56]
1337:Drivers/STM32F7xx_HAL_Driver/Src/stm32f7xx_ll_sdmmc.c ****   }
1338:Drivers/STM32F7xx_HAL_Driver/Src/stm32f7xx_ll_sdmmc.c **** 
1339:Drivers/STM32F7xx_HAL_Driver/Src/stm32f7xx_ll_sdmmc.c ****   return SDMMC_ERROR_NONE;
 151              		.loc 1 1339 3 view .LVU40
 152              		.loc 1 1339 10 is_stmt 0 view .LVU41
 153 003e 7047     		bx	lr
 154              	.LVL13:
 155              	.L13:
1322:Drivers/STM32F7xx_HAL_Driver/Src/stm32f7xx_ll_sdmmc.c ****     
 156              		.loc 1 1322 5 is_stmt 1 view .LVU42
 157 0040 0420     		movs	r0, #4
 158              	.LVL14:
1322:Drivers/STM32F7xx_HAL_Driver/Src/stm32f7xx_ll_sdmmc.c ****     
 159              		.loc 1 1322 5 is_stmt 0 view .LVU43
 160 0042 8863     		str	r0, [r1, #56]
1324:Drivers/STM32F7xx_HAL_Driver/Src/stm32f7xx_ll_sdmmc.c ****   }
 161              		.loc 1 1324 5 is_stmt 1 view .LVU44
1324:Drivers/STM32F7xx_HAL_Driver/Src/stm32f7xx_ll_sdmmc.c ****   }
 162              		.loc 1 1324 12 is_stmt 0 view .LVU45
 163 0044 7047     		bx	lr
 164              	.L14:
1328:Drivers/STM32F7xx_HAL_Driver/Src/stm32f7xx_ll_sdmmc.c ****     
 165              		.loc 1 1328 5 is_stmt 1 view .LVU46
 166 0046 0120     		movs	r0, #1
 167 0048 8863     		str	r0, [r1, #56]
1330:Drivers/STM32F7xx_HAL_Driver/Src/stm32f7xx_ll_sdmmc.c ****   }
 168              		.loc 1 1330 5 view .LVU47
1330:Drivers/STM32F7xx_HAL_Driver/Src/stm32f7xx_ll_sdmmc.c ****   }
 169              		.loc 1 1330 12 is_stmt 0 view .LVU48
 170 004a 7047     		bx	lr
 171              	.LVL15:
 172              	.L12:
1314:Drivers/STM32F7xx_HAL_Driver/Src/stm32f7xx_ll_sdmmc.c ****     }
 173              		.loc 1 1314 14 view .LVU49
 174 004c 4FF00040 		mov	r0, #-2147483648
 175              	.LVL16:
1340:Drivers/STM32F7xx_HAL_Driver/Src/stm32f7xx_ll_sdmmc.c **** }
 176              		.loc 1 1340 1 view .LVU50
 177 0050 7047     		bx	lr
 178              	.L16:
 179 0052 00BF     		.align	2
 180              	.L15:
 181 0054 00000000 		.word	SystemCoreClock
 182 0058 D34D6210 		.word	274877907
 183              		.cfi_endproc
 184              	.LFE181:
 186              		.section	.text.SDMMC_GetCmdResp3,"ax",%progbits
 187              		.align	1
 188              		.syntax unified
 189              		.thumb
 190              		.thumb_func
 191              		.fpu fpv5-d16
 193              	SDMMC_GetCmdResp3:
 194              	.LVL17:
ARM GAS  /tmp/ccPnSfMB.s 			page 28


 195              	.LFB182:
1341:Drivers/STM32F7xx_HAL_Driver/Src/stm32f7xx_ll_sdmmc.c **** 
1342:Drivers/STM32F7xx_HAL_Driver/Src/stm32f7xx_ll_sdmmc.c **** /**
1343:Drivers/STM32F7xx_HAL_Driver/Src/stm32f7xx_ll_sdmmc.c ****   * @brief  Checks for error conditions for R3 (OCR) response.
1344:Drivers/STM32F7xx_HAL_Driver/Src/stm32f7xx_ll_sdmmc.c ****   * @param  hsd: SD handle
1345:Drivers/STM32F7xx_HAL_Driver/Src/stm32f7xx_ll_sdmmc.c ****   * @retval SD Card error state
1346:Drivers/STM32F7xx_HAL_Driver/Src/stm32f7xx_ll_sdmmc.c ****   */
1347:Drivers/STM32F7xx_HAL_Driver/Src/stm32f7xx_ll_sdmmc.c **** static uint32_t SDMMC_GetCmdResp3(SDMMC_TypeDef *SDMMCx)
1348:Drivers/STM32F7xx_HAL_Driver/Src/stm32f7xx_ll_sdmmc.c **** {
 196              		.loc 1 1348 1 is_stmt 1 view -0
 197              		.cfi_startproc
 198              		@ args = 0, pretend = 0, frame = 0
 199              		@ frame_needed = 0, uses_anonymous_args = 0
 200              		@ link register save eliminated.
 201              		.loc 1 1348 1 is_stmt 0 view .LVU52
 202 0000 0146     		mov	r1, r0
1349:Drivers/STM32F7xx_HAL_Driver/Src/stm32f7xx_ll_sdmmc.c ****   uint32_t sta_reg;
 203              		.loc 1 1349 3 is_stmt 1 view .LVU53
1350:Drivers/STM32F7xx_HAL_Driver/Src/stm32f7xx_ll_sdmmc.c ****   /* 8 is the number of required instructions cycles for the below loop statement.
1351:Drivers/STM32F7xx_HAL_Driver/Src/stm32f7xx_ll_sdmmc.c ****   The SDMMC_CMDTIMEOUT is expressed in ms */
1352:Drivers/STM32F7xx_HAL_Driver/Src/stm32f7xx_ll_sdmmc.c ****   register uint32_t count = SDMMC_CMDTIMEOUT * (SystemCoreClock / 8U /1000U);
 204              		.loc 1 1352 3 view .LVU54
 205              		.loc 1 1352 70 is_stmt 0 view .LVU55
 206 0002 104B     		ldr	r3, .L23
 207 0004 1B68     		ldr	r3, [r3]
 208 0006 104A     		ldr	r2, .L23+4
 209 0008 A2FB0323 		umull	r2, r3, r2, r3
 210 000c 5A0A     		lsrs	r2, r3, #9
 211              		.loc 1 1352 21 view .LVU56
 212 000e 41F28833 		movw	r3, #5000
 213 0012 03FB02F3 		mul	r3, r3, r2
 214              	.LVL18:
 215              	.L19:
1353:Drivers/STM32F7xx_HAL_Driver/Src/stm32f7xx_ll_sdmmc.c ****   
1354:Drivers/STM32F7xx_HAL_Driver/Src/stm32f7xx_ll_sdmmc.c ****   do
 216              		.loc 1 1354 3 is_stmt 1 view .LVU57
1355:Drivers/STM32F7xx_HAL_Driver/Src/stm32f7xx_ll_sdmmc.c ****   {
1356:Drivers/STM32F7xx_HAL_Driver/Src/stm32f7xx_ll_sdmmc.c ****     if (count-- == 0U)
 217              		.loc 1 1356 5 view .LVU58
 218 0016 1A46     		mov	r2, r3
 219              		.loc 1 1356 14 is_stmt 0 view .LVU59
 220 0018 013B     		subs	r3, r3, #1
 221              	.LVL19:
 222              		.loc 1 1356 8 view .LVU60
 223 001a 82B1     		cbz	r2, .L21
1357:Drivers/STM32F7xx_HAL_Driver/Src/stm32f7xx_ll_sdmmc.c ****     {
1358:Drivers/STM32F7xx_HAL_Driver/Src/stm32f7xx_ll_sdmmc.c ****       return SDMMC_ERROR_TIMEOUT;
1359:Drivers/STM32F7xx_HAL_Driver/Src/stm32f7xx_ll_sdmmc.c ****     }
1360:Drivers/STM32F7xx_HAL_Driver/Src/stm32f7xx_ll_sdmmc.c ****     sta_reg = SDMMCx->STA;
 224              		.loc 1 1360 5 is_stmt 1 view .LVU61
 225              		.loc 1 1360 13 is_stmt 0 view .LVU62
 226 001c 4A6B     		ldr	r2, [r1, #52]
 227              	.LVL20:
1361:Drivers/STM32F7xx_HAL_Driver/Src/stm32f7xx_ll_sdmmc.c ****   }while(((sta_reg & (SDMMC_FLAG_CCRCFAIL | SDMMC_FLAG_CMDREND | SDMMC_FLAG_CTIMEOUT)) == 0U) ||
 228              		.loc 1 1361 9 is_stmt 1 view .LVU63
1362:Drivers/STM32F7xx_HAL_Driver/Src/stm32f7xx_ll_sdmmc.c ****          ((sta_reg & SDMMC_FLAG_CMDACT) != 0U ));
 229              		.loc 1 1362 10 is_stmt 0 view .LVU64
ARM GAS  /tmp/ccPnSfMB.s 			page 29


 230 001e 12F0450F 		tst	r2, #69
 231 0022 F8D0     		beq	.L19
1361:Drivers/STM32F7xx_HAL_Driver/Src/stm32f7xx_ll_sdmmc.c ****   }while(((sta_reg & (SDMMC_FLAG_CCRCFAIL | SDMMC_FLAG_CMDREND | SDMMC_FLAG_CTIMEOUT)) == 0U) ||
 232              		.loc 1 1361 95 discriminator 1 view .LVU65
 233 0024 12F4006F 		tst	r2, #2048
 234 0028 F5D1     		bne	.L19
1363:Drivers/STM32F7xx_HAL_Driver/Src/stm32f7xx_ll_sdmmc.c ****     
1364:Drivers/STM32F7xx_HAL_Driver/Src/stm32f7xx_ll_sdmmc.c ****   if(__SDMMC_GET_FLAG(SDMMCx, SDMMC_FLAG_CTIMEOUT))
 235              		.loc 1 1364 3 is_stmt 1 view .LVU66
 236              		.loc 1 1364 6 is_stmt 0 view .LVU67
 237 002a 486B     		ldr	r0, [r1, #52]
 238              	.LVL21:
 239              		.loc 1 1364 5 view .LVU68
 240 002c 10F00400 		ands	r0, r0, #4
 241 0030 02D1     		bne	.L22
1365:Drivers/STM32F7xx_HAL_Driver/Src/stm32f7xx_ll_sdmmc.c ****   {
1366:Drivers/STM32F7xx_HAL_Driver/Src/stm32f7xx_ll_sdmmc.c ****     __SDMMC_CLEAR_FLAG(SDMMCx, SDMMC_FLAG_CTIMEOUT);
1367:Drivers/STM32F7xx_HAL_Driver/Src/stm32f7xx_ll_sdmmc.c ****     
1368:Drivers/STM32F7xx_HAL_Driver/Src/stm32f7xx_ll_sdmmc.c ****     return SDMMC_ERROR_CMD_RSP_TIMEOUT;
1369:Drivers/STM32F7xx_HAL_Driver/Src/stm32f7xx_ll_sdmmc.c ****   }
1370:Drivers/STM32F7xx_HAL_Driver/Src/stm32f7xx_ll_sdmmc.c ****   else
1371:Drivers/STM32F7xx_HAL_Driver/Src/stm32f7xx_ll_sdmmc.c ****   {  
1372:Drivers/STM32F7xx_HAL_Driver/Src/stm32f7xx_ll_sdmmc.c ****     /* Clear all the static flags */
1373:Drivers/STM32F7xx_HAL_Driver/Src/stm32f7xx_ll_sdmmc.c ****     __SDMMC_CLEAR_FLAG(SDMMCx, SDMMC_STATIC_CMD_FLAGS);
 242              		.loc 1 1373 5 is_stmt 1 view .LVU69
 243 0032 C523     		movs	r3, #197
 244              	.LVL22:
 245              		.loc 1 1373 5 is_stmt 0 view .LVU70
 246 0034 8B63     		str	r3, [r1, #56]
1374:Drivers/STM32F7xx_HAL_Driver/Src/stm32f7xx_ll_sdmmc.c ****   }
1375:Drivers/STM32F7xx_HAL_Driver/Src/stm32f7xx_ll_sdmmc.c ****   
1376:Drivers/STM32F7xx_HAL_Driver/Src/stm32f7xx_ll_sdmmc.c ****   return SDMMC_ERROR_NONE;
 247              		.loc 1 1376 3 is_stmt 1 view .LVU71
 248              		.loc 1 1376 10 is_stmt 0 view .LVU72
 249 0036 7047     		bx	lr
 250              	.LVL23:
 251              	.L22:
1366:Drivers/STM32F7xx_HAL_Driver/Src/stm32f7xx_ll_sdmmc.c ****     
 252              		.loc 1 1366 5 is_stmt 1 view .LVU73
 253 0038 0420     		movs	r0, #4
 254 003a 8863     		str	r0, [r1, #56]
1368:Drivers/STM32F7xx_HAL_Driver/Src/stm32f7xx_ll_sdmmc.c ****   }
 255              		.loc 1 1368 5 view .LVU74
1368:Drivers/STM32F7xx_HAL_Driver/Src/stm32f7xx_ll_sdmmc.c ****   }
 256              		.loc 1 1368 12 is_stmt 0 view .LVU75
 257 003c 7047     		bx	lr
 258              	.LVL24:
 259              	.L21:
1358:Drivers/STM32F7xx_HAL_Driver/Src/stm32f7xx_ll_sdmmc.c ****     }
 260              		.loc 1 1358 14 view .LVU76
 261 003e 4FF00040 		mov	r0, #-2147483648
 262              	.LVL25:
1377:Drivers/STM32F7xx_HAL_Driver/Src/stm32f7xx_ll_sdmmc.c **** }
 263              		.loc 1 1377 1 view .LVU77
 264 0042 7047     		bx	lr
 265              	.L24:
 266              		.align	2
ARM GAS  /tmp/ccPnSfMB.s 			page 30


 267              	.L23:
 268 0044 00000000 		.word	SystemCoreClock
 269 0048 D34D6210 		.word	274877907
 270              		.cfi_endproc
 271              	.LFE182:
 273              		.section	.text.SDMMC_GetCmdResp7,"ax",%progbits
 274              		.align	1
 275              		.syntax unified
 276              		.thumb
 277              		.thumb_func
 278              		.fpu fpv5-d16
 280              	SDMMC_GetCmdResp7:
 281              	.LVL26:
 282              	.LFB184:
1378:Drivers/STM32F7xx_HAL_Driver/Src/stm32f7xx_ll_sdmmc.c **** 
1379:Drivers/STM32F7xx_HAL_Driver/Src/stm32f7xx_ll_sdmmc.c **** /**
1380:Drivers/STM32F7xx_HAL_Driver/Src/stm32f7xx_ll_sdmmc.c ****   * @brief  Checks for error conditions for R6 (RCA) response.
1381:Drivers/STM32F7xx_HAL_Driver/Src/stm32f7xx_ll_sdmmc.c ****   * @param  hsd: SD handle
1382:Drivers/STM32F7xx_HAL_Driver/Src/stm32f7xx_ll_sdmmc.c ****   * @param  SD_CMD: The sent command index
1383:Drivers/STM32F7xx_HAL_Driver/Src/stm32f7xx_ll_sdmmc.c ****   * @param  pRCA: Pointer to the variable that will contain the SD card relative 
1384:Drivers/STM32F7xx_HAL_Driver/Src/stm32f7xx_ll_sdmmc.c ****   *         address RCA   
1385:Drivers/STM32F7xx_HAL_Driver/Src/stm32f7xx_ll_sdmmc.c ****   * @retval SD Card error state
1386:Drivers/STM32F7xx_HAL_Driver/Src/stm32f7xx_ll_sdmmc.c ****   */
1387:Drivers/STM32F7xx_HAL_Driver/Src/stm32f7xx_ll_sdmmc.c **** static uint32_t SDMMC_GetCmdResp6(SDMMC_TypeDef *SDMMCx, uint8_t SD_CMD, uint16_t *pRCA)
1388:Drivers/STM32F7xx_HAL_Driver/Src/stm32f7xx_ll_sdmmc.c **** {
1389:Drivers/STM32F7xx_HAL_Driver/Src/stm32f7xx_ll_sdmmc.c ****   uint32_t response_r1;
1390:Drivers/STM32F7xx_HAL_Driver/Src/stm32f7xx_ll_sdmmc.c ****   uint32_t sta_reg;
1391:Drivers/STM32F7xx_HAL_Driver/Src/stm32f7xx_ll_sdmmc.c **** 
1392:Drivers/STM32F7xx_HAL_Driver/Src/stm32f7xx_ll_sdmmc.c ****   /* 8 is the number of required instructions cycles for the below loop statement.
1393:Drivers/STM32F7xx_HAL_Driver/Src/stm32f7xx_ll_sdmmc.c ****   The SDMMC_CMDTIMEOUT is expressed in ms */
1394:Drivers/STM32F7xx_HAL_Driver/Src/stm32f7xx_ll_sdmmc.c ****   register uint32_t count = SDMMC_CMDTIMEOUT * (SystemCoreClock / 8U /1000U);
1395:Drivers/STM32F7xx_HAL_Driver/Src/stm32f7xx_ll_sdmmc.c ****   
1396:Drivers/STM32F7xx_HAL_Driver/Src/stm32f7xx_ll_sdmmc.c ****   do
1397:Drivers/STM32F7xx_HAL_Driver/Src/stm32f7xx_ll_sdmmc.c ****   {
1398:Drivers/STM32F7xx_HAL_Driver/Src/stm32f7xx_ll_sdmmc.c ****     if (count-- == 0U)
1399:Drivers/STM32F7xx_HAL_Driver/Src/stm32f7xx_ll_sdmmc.c ****     {
1400:Drivers/STM32F7xx_HAL_Driver/Src/stm32f7xx_ll_sdmmc.c ****       return SDMMC_ERROR_TIMEOUT;
1401:Drivers/STM32F7xx_HAL_Driver/Src/stm32f7xx_ll_sdmmc.c ****     }
1402:Drivers/STM32F7xx_HAL_Driver/Src/stm32f7xx_ll_sdmmc.c ****     sta_reg = SDMMCx->STA;
1403:Drivers/STM32F7xx_HAL_Driver/Src/stm32f7xx_ll_sdmmc.c ****   }while(((sta_reg & (SDMMC_FLAG_CCRCFAIL | SDMMC_FLAG_CMDREND | SDMMC_FLAG_CTIMEOUT)) == 0U) ||
1404:Drivers/STM32F7xx_HAL_Driver/Src/stm32f7xx_ll_sdmmc.c ****          ((sta_reg & SDMMC_FLAG_CMDACT) != 0U ));
1405:Drivers/STM32F7xx_HAL_Driver/Src/stm32f7xx_ll_sdmmc.c ****     
1406:Drivers/STM32F7xx_HAL_Driver/Src/stm32f7xx_ll_sdmmc.c ****   if(__SDMMC_GET_FLAG(SDMMCx, SDMMC_FLAG_CTIMEOUT))
1407:Drivers/STM32F7xx_HAL_Driver/Src/stm32f7xx_ll_sdmmc.c ****   {
1408:Drivers/STM32F7xx_HAL_Driver/Src/stm32f7xx_ll_sdmmc.c ****     __SDMMC_CLEAR_FLAG(SDMMCx, SDMMC_FLAG_CTIMEOUT);
1409:Drivers/STM32F7xx_HAL_Driver/Src/stm32f7xx_ll_sdmmc.c ****     
1410:Drivers/STM32F7xx_HAL_Driver/Src/stm32f7xx_ll_sdmmc.c ****     return SDMMC_ERROR_CMD_RSP_TIMEOUT;
1411:Drivers/STM32F7xx_HAL_Driver/Src/stm32f7xx_ll_sdmmc.c ****   }
1412:Drivers/STM32F7xx_HAL_Driver/Src/stm32f7xx_ll_sdmmc.c ****   else if(__SDMMC_GET_FLAG(SDMMCx, SDMMC_FLAG_CCRCFAIL))
1413:Drivers/STM32F7xx_HAL_Driver/Src/stm32f7xx_ll_sdmmc.c ****   {
1414:Drivers/STM32F7xx_HAL_Driver/Src/stm32f7xx_ll_sdmmc.c ****     __SDMMC_CLEAR_FLAG(SDMMCx, SDMMC_FLAG_CCRCFAIL);
1415:Drivers/STM32F7xx_HAL_Driver/Src/stm32f7xx_ll_sdmmc.c ****     
1416:Drivers/STM32F7xx_HAL_Driver/Src/stm32f7xx_ll_sdmmc.c ****     return SDMMC_ERROR_CMD_CRC_FAIL;
1417:Drivers/STM32F7xx_HAL_Driver/Src/stm32f7xx_ll_sdmmc.c ****   }
1418:Drivers/STM32F7xx_HAL_Driver/Src/stm32f7xx_ll_sdmmc.c ****   else
1419:Drivers/STM32F7xx_HAL_Driver/Src/stm32f7xx_ll_sdmmc.c ****   {
1420:Drivers/STM32F7xx_HAL_Driver/Src/stm32f7xx_ll_sdmmc.c ****     /* Nothing to do */
ARM GAS  /tmp/ccPnSfMB.s 			page 31


1421:Drivers/STM32F7xx_HAL_Driver/Src/stm32f7xx_ll_sdmmc.c ****   }
1422:Drivers/STM32F7xx_HAL_Driver/Src/stm32f7xx_ll_sdmmc.c ****   
1423:Drivers/STM32F7xx_HAL_Driver/Src/stm32f7xx_ll_sdmmc.c ****   /* Check response received is of desired command */
1424:Drivers/STM32F7xx_HAL_Driver/Src/stm32f7xx_ll_sdmmc.c ****   if(SDMMC_GetCommandResponse(SDMMCx) != SD_CMD)
1425:Drivers/STM32F7xx_HAL_Driver/Src/stm32f7xx_ll_sdmmc.c ****   {
1426:Drivers/STM32F7xx_HAL_Driver/Src/stm32f7xx_ll_sdmmc.c ****     return SDMMC_ERROR_CMD_CRC_FAIL;
1427:Drivers/STM32F7xx_HAL_Driver/Src/stm32f7xx_ll_sdmmc.c ****   }
1428:Drivers/STM32F7xx_HAL_Driver/Src/stm32f7xx_ll_sdmmc.c ****   
1429:Drivers/STM32F7xx_HAL_Driver/Src/stm32f7xx_ll_sdmmc.c ****   /* Clear all the static flags */
1430:Drivers/STM32F7xx_HAL_Driver/Src/stm32f7xx_ll_sdmmc.c ****   __SDMMC_CLEAR_FLAG(SDMMCx, SDMMC_STATIC_CMD_FLAGS);
1431:Drivers/STM32F7xx_HAL_Driver/Src/stm32f7xx_ll_sdmmc.c ****   
1432:Drivers/STM32F7xx_HAL_Driver/Src/stm32f7xx_ll_sdmmc.c ****   /* We have received response, retrieve it.  */
1433:Drivers/STM32F7xx_HAL_Driver/Src/stm32f7xx_ll_sdmmc.c ****   response_r1 = SDMMC_GetResponse(SDMMCx, SDMMC_RESP1);
1434:Drivers/STM32F7xx_HAL_Driver/Src/stm32f7xx_ll_sdmmc.c ****   
1435:Drivers/STM32F7xx_HAL_Driver/Src/stm32f7xx_ll_sdmmc.c ****   if((response_r1 & (SDMMC_R6_GENERAL_UNKNOWN_ERROR | SDMMC_R6_ILLEGAL_CMD | SDMMC_R6_COM_CRC_FAILE
1436:Drivers/STM32F7xx_HAL_Driver/Src/stm32f7xx_ll_sdmmc.c ****   {
1437:Drivers/STM32F7xx_HAL_Driver/Src/stm32f7xx_ll_sdmmc.c ****     *pRCA = (uint16_t) (response_r1 >> 16);
1438:Drivers/STM32F7xx_HAL_Driver/Src/stm32f7xx_ll_sdmmc.c ****     
1439:Drivers/STM32F7xx_HAL_Driver/Src/stm32f7xx_ll_sdmmc.c ****     return SDMMC_ERROR_NONE;
1440:Drivers/STM32F7xx_HAL_Driver/Src/stm32f7xx_ll_sdmmc.c ****   }
1441:Drivers/STM32F7xx_HAL_Driver/Src/stm32f7xx_ll_sdmmc.c ****   else if((response_r1 & SDMMC_R6_ILLEGAL_CMD) == SDMMC_R6_ILLEGAL_CMD)
1442:Drivers/STM32F7xx_HAL_Driver/Src/stm32f7xx_ll_sdmmc.c ****   {
1443:Drivers/STM32F7xx_HAL_Driver/Src/stm32f7xx_ll_sdmmc.c ****     return SDMMC_ERROR_ILLEGAL_CMD;
1444:Drivers/STM32F7xx_HAL_Driver/Src/stm32f7xx_ll_sdmmc.c ****   }
1445:Drivers/STM32F7xx_HAL_Driver/Src/stm32f7xx_ll_sdmmc.c ****   else if((response_r1 & SDMMC_R6_COM_CRC_FAILED) == SDMMC_R6_COM_CRC_FAILED)
1446:Drivers/STM32F7xx_HAL_Driver/Src/stm32f7xx_ll_sdmmc.c ****   {
1447:Drivers/STM32F7xx_HAL_Driver/Src/stm32f7xx_ll_sdmmc.c ****     return SDMMC_ERROR_COM_CRC_FAILED;
1448:Drivers/STM32F7xx_HAL_Driver/Src/stm32f7xx_ll_sdmmc.c ****   }
1449:Drivers/STM32F7xx_HAL_Driver/Src/stm32f7xx_ll_sdmmc.c ****   else
1450:Drivers/STM32F7xx_HAL_Driver/Src/stm32f7xx_ll_sdmmc.c ****   {
1451:Drivers/STM32F7xx_HAL_Driver/Src/stm32f7xx_ll_sdmmc.c ****     return SDMMC_ERROR_GENERAL_UNKNOWN_ERR;
1452:Drivers/STM32F7xx_HAL_Driver/Src/stm32f7xx_ll_sdmmc.c ****   }
1453:Drivers/STM32F7xx_HAL_Driver/Src/stm32f7xx_ll_sdmmc.c **** }
1454:Drivers/STM32F7xx_HAL_Driver/Src/stm32f7xx_ll_sdmmc.c **** 
1455:Drivers/STM32F7xx_HAL_Driver/Src/stm32f7xx_ll_sdmmc.c **** /**
1456:Drivers/STM32F7xx_HAL_Driver/Src/stm32f7xx_ll_sdmmc.c ****   * @brief  Checks for error conditions for R7 response.
1457:Drivers/STM32F7xx_HAL_Driver/Src/stm32f7xx_ll_sdmmc.c ****   * @param  hsd: SD handle
1458:Drivers/STM32F7xx_HAL_Driver/Src/stm32f7xx_ll_sdmmc.c ****   * @retval SD Card error state
1459:Drivers/STM32F7xx_HAL_Driver/Src/stm32f7xx_ll_sdmmc.c ****   */
1460:Drivers/STM32F7xx_HAL_Driver/Src/stm32f7xx_ll_sdmmc.c **** static uint32_t SDMMC_GetCmdResp7(SDMMC_TypeDef *SDMMCx)
1461:Drivers/STM32F7xx_HAL_Driver/Src/stm32f7xx_ll_sdmmc.c **** {
 283              		.loc 1 1461 1 is_stmt 1 view -0
 284              		.cfi_startproc
 285              		@ args = 0, pretend = 0, frame = 0
 286              		@ frame_needed = 0, uses_anonymous_args = 0
 287              		@ link register save eliminated.
 288              		.loc 1 1461 1 is_stmt 0 view .LVU79
 289 0000 0146     		mov	r1, r0
1462:Drivers/STM32F7xx_HAL_Driver/Src/stm32f7xx_ll_sdmmc.c ****   uint32_t sta_reg;
 290              		.loc 1 1462 3 is_stmt 1 view .LVU80
1463:Drivers/STM32F7xx_HAL_Driver/Src/stm32f7xx_ll_sdmmc.c ****   /* 8 is the number of required instructions cycles for the below loop statement.
1464:Drivers/STM32F7xx_HAL_Driver/Src/stm32f7xx_ll_sdmmc.c ****   The SDMMC_CMDTIMEOUT is expressed in ms */
1465:Drivers/STM32F7xx_HAL_Driver/Src/stm32f7xx_ll_sdmmc.c ****   register uint32_t count = SDMMC_CMDTIMEOUT * (SystemCoreClock / 8U /1000U);
 291              		.loc 1 1465 3 view .LVU81
 292              		.loc 1 1465 70 is_stmt 0 view .LVU82
 293 0002 164B     		ldr	r3, .L33
 294 0004 1B68     		ldr	r3, [r3]
ARM GAS  /tmp/ccPnSfMB.s 			page 32


 295 0006 164A     		ldr	r2, .L33+4
 296 0008 A2FB0323 		umull	r2, r3, r2, r3
 297 000c 5A0A     		lsrs	r2, r3, #9
 298              		.loc 1 1465 21 view .LVU83
 299 000e 41F28833 		movw	r3, #5000
 300 0012 03FB02F3 		mul	r3, r3, r2
 301              	.LVL27:
 302              	.L27:
1466:Drivers/STM32F7xx_HAL_Driver/Src/stm32f7xx_ll_sdmmc.c ****   
1467:Drivers/STM32F7xx_HAL_Driver/Src/stm32f7xx_ll_sdmmc.c ****   do
 303              		.loc 1 1467 3 is_stmt 1 view .LVU84
1468:Drivers/STM32F7xx_HAL_Driver/Src/stm32f7xx_ll_sdmmc.c ****   {
1469:Drivers/STM32F7xx_HAL_Driver/Src/stm32f7xx_ll_sdmmc.c ****     if (count-- == 0U)
 304              		.loc 1 1469 5 view .LVU85
 305 0016 1A46     		mov	r2, r3
 306              		.loc 1 1469 14 is_stmt 0 view .LVU86
 307 0018 013B     		subs	r3, r3, #1
 308              	.LVL28:
 309              		.loc 1 1469 8 view .LVU87
 310 001a E2B1     		cbz	r2, .L30
1470:Drivers/STM32F7xx_HAL_Driver/Src/stm32f7xx_ll_sdmmc.c ****     {
1471:Drivers/STM32F7xx_HAL_Driver/Src/stm32f7xx_ll_sdmmc.c ****       return SDMMC_ERROR_TIMEOUT;
1472:Drivers/STM32F7xx_HAL_Driver/Src/stm32f7xx_ll_sdmmc.c ****     }
1473:Drivers/STM32F7xx_HAL_Driver/Src/stm32f7xx_ll_sdmmc.c ****     sta_reg = SDMMCx->STA;
 311              		.loc 1 1473 5 is_stmt 1 view .LVU88
 312              		.loc 1 1473 13 is_stmt 0 view .LVU89
 313 001c 4A6B     		ldr	r2, [r1, #52]
 314              	.LVL29:
1474:Drivers/STM32F7xx_HAL_Driver/Src/stm32f7xx_ll_sdmmc.c ****   }while(((sta_reg & (SDMMC_FLAG_CCRCFAIL | SDMMC_FLAG_CMDREND | SDMMC_FLAG_CTIMEOUT)) == 0U) ||
 315              		.loc 1 1474 9 is_stmt 1 view .LVU90
1475:Drivers/STM32F7xx_HAL_Driver/Src/stm32f7xx_ll_sdmmc.c ****          ((sta_reg & SDMMC_FLAG_CMDACT) != 0U ));
 316              		.loc 1 1475 10 is_stmt 0 view .LVU91
 317 001e 12F0450F 		tst	r2, #69
 318 0022 F8D0     		beq	.L27
1474:Drivers/STM32F7xx_HAL_Driver/Src/stm32f7xx_ll_sdmmc.c ****   }while(((sta_reg & (SDMMC_FLAG_CCRCFAIL | SDMMC_FLAG_CMDREND | SDMMC_FLAG_CTIMEOUT)) == 0U) ||
 319              		.loc 1 1474 95 discriminator 1 view .LVU92
 320 0024 12F4006F 		tst	r2, #2048
 321 0028 F5D1     		bne	.L27
1476:Drivers/STM32F7xx_HAL_Driver/Src/stm32f7xx_ll_sdmmc.c ****     
1477:Drivers/STM32F7xx_HAL_Driver/Src/stm32f7xx_ll_sdmmc.c ****   if(__SDMMC_GET_FLAG(SDMMCx, SDMMC_FLAG_CTIMEOUT))
 322              		.loc 1 1477 3 is_stmt 1 view .LVU93
 323              		.loc 1 1477 6 is_stmt 0 view .LVU94
 324 002a 4B6B     		ldr	r3, [r1, #52]
 325              	.LVL30:
 326              		.loc 1 1477 5 view .LVU95
 327 002c 13F0040F 		tst	r3, #4
 328 0030 0BD1     		bne	.L31
1478:Drivers/STM32F7xx_HAL_Driver/Src/stm32f7xx_ll_sdmmc.c ****   {
1479:Drivers/STM32F7xx_HAL_Driver/Src/stm32f7xx_ll_sdmmc.c ****     /* Card is SD V2.0 compliant */
1480:Drivers/STM32F7xx_HAL_Driver/Src/stm32f7xx_ll_sdmmc.c ****     __SDMMC_CLEAR_FLAG(SDMMCx, SDMMC_FLAG_CTIMEOUT);
1481:Drivers/STM32F7xx_HAL_Driver/Src/stm32f7xx_ll_sdmmc.c ****     
1482:Drivers/STM32F7xx_HAL_Driver/Src/stm32f7xx_ll_sdmmc.c ****     return SDMMC_ERROR_CMD_RSP_TIMEOUT;
1483:Drivers/STM32F7xx_HAL_Driver/Src/stm32f7xx_ll_sdmmc.c ****   }
1484:Drivers/STM32F7xx_HAL_Driver/Src/stm32f7xx_ll_sdmmc.c ****   else if(__SDMMC_GET_FLAG(SDMMCx, SDMMC_FLAG_CCRCFAIL))
 329              		.loc 1 1484 8 is_stmt 1 view .LVU96
 330              		.loc 1 1484 11 is_stmt 0 view .LVU97
 331 0032 4B6B     		ldr	r3, [r1, #52]
ARM GAS  /tmp/ccPnSfMB.s 			page 33


 332              		.loc 1 1484 10 view .LVU98
 333 0034 13F00103 		ands	r3, r3, #1
 334 0038 0AD1     		bne	.L32
1485:Drivers/STM32F7xx_HAL_Driver/Src/stm32f7xx_ll_sdmmc.c ****   {
1486:Drivers/STM32F7xx_HAL_Driver/Src/stm32f7xx_ll_sdmmc.c ****     /* Card is SD V2.0 compliant */
1487:Drivers/STM32F7xx_HAL_Driver/Src/stm32f7xx_ll_sdmmc.c ****     __SDMMC_CLEAR_FLAG(SDMMCx, SDMMC_FLAG_CCRCFAIL);
1488:Drivers/STM32F7xx_HAL_Driver/Src/stm32f7xx_ll_sdmmc.c ****     
1489:Drivers/STM32F7xx_HAL_Driver/Src/stm32f7xx_ll_sdmmc.c ****     return SDMMC_ERROR_CMD_CRC_FAIL;
1490:Drivers/STM32F7xx_HAL_Driver/Src/stm32f7xx_ll_sdmmc.c ****   }
1491:Drivers/STM32F7xx_HAL_Driver/Src/stm32f7xx_ll_sdmmc.c ****   else
1492:Drivers/STM32F7xx_HAL_Driver/Src/stm32f7xx_ll_sdmmc.c ****   {
1493:Drivers/STM32F7xx_HAL_Driver/Src/stm32f7xx_ll_sdmmc.c ****     /* Nothing to do */
1494:Drivers/STM32F7xx_HAL_Driver/Src/stm32f7xx_ll_sdmmc.c ****   }
 335              		.loc 1 1494 3 is_stmt 1 view .LVU99
1495:Drivers/STM32F7xx_HAL_Driver/Src/stm32f7xx_ll_sdmmc.c ****   
1496:Drivers/STM32F7xx_HAL_Driver/Src/stm32f7xx_ll_sdmmc.c ****   if(__SDMMC_GET_FLAG(SDMMCx, SDMMC_FLAG_CMDREND))
 336              		.loc 1 1496 3 view .LVU100
 337              		.loc 1 1496 6 is_stmt 0 view .LVU101
 338 003a 486B     		ldr	r0, [r1, #52]
 339              	.LVL31:
 340              		.loc 1 1496 5 view .LVU102
 341 003c 10F04000 		ands	r0, r0, #64
 342 0040 0BD0     		beq	.L25
1497:Drivers/STM32F7xx_HAL_Driver/Src/stm32f7xx_ll_sdmmc.c ****   {
1498:Drivers/STM32F7xx_HAL_Driver/Src/stm32f7xx_ll_sdmmc.c ****     /* Card is SD V2.0 compliant */
1499:Drivers/STM32F7xx_HAL_Driver/Src/stm32f7xx_ll_sdmmc.c ****     __SDMMC_CLEAR_FLAG(SDMMCx, SDMMC_FLAG_CMDREND);
 343              		.loc 1 1499 5 is_stmt 1 view .LVU103
 344 0042 4022     		movs	r2, #64
 345              	.LVL32:
 346              		.loc 1 1499 5 is_stmt 0 view .LVU104
 347 0044 8A63     		str	r2, [r1, #56]
1500:Drivers/STM32F7xx_HAL_Driver/Src/stm32f7xx_ll_sdmmc.c ****   }
1501:Drivers/STM32F7xx_HAL_Driver/Src/stm32f7xx_ll_sdmmc.c ****   
1502:Drivers/STM32F7xx_HAL_Driver/Src/stm32f7xx_ll_sdmmc.c ****   return SDMMC_ERROR_NONE;
 348              		.loc 1 1502 10 view .LVU105
 349 0046 1846     		mov	r0, r3
 350 0048 7047     		bx	lr
 351              	.LVL33:
 352              	.L31:
1480:Drivers/STM32F7xx_HAL_Driver/Src/stm32f7xx_ll_sdmmc.c ****     
 353              		.loc 1 1480 5 is_stmt 1 view .LVU106
 354 004a 0420     		movs	r0, #4
 355              	.LVL34:
1480:Drivers/STM32F7xx_HAL_Driver/Src/stm32f7xx_ll_sdmmc.c ****     
 356              		.loc 1 1480 5 is_stmt 0 view .LVU107
 357 004c 8863     		str	r0, [r1, #56]
1482:Drivers/STM32F7xx_HAL_Driver/Src/stm32f7xx_ll_sdmmc.c ****   }
 358              		.loc 1 1482 5 is_stmt 1 view .LVU108
1482:Drivers/STM32F7xx_HAL_Driver/Src/stm32f7xx_ll_sdmmc.c ****   }
 359              		.loc 1 1482 12 is_stmt 0 view .LVU109
 360 004e 7047     		bx	lr
 361              	.LVL35:
 362              	.L32:
1487:Drivers/STM32F7xx_HAL_Driver/Src/stm32f7xx_ll_sdmmc.c ****     
 363              		.loc 1 1487 5 is_stmt 1 view .LVU110
 364 0050 0120     		movs	r0, #1
 365              	.LVL36:
ARM GAS  /tmp/ccPnSfMB.s 			page 34


1487:Drivers/STM32F7xx_HAL_Driver/Src/stm32f7xx_ll_sdmmc.c ****     
 366              		.loc 1 1487 5 is_stmt 0 view .LVU111
 367 0052 8863     		str	r0, [r1, #56]
1489:Drivers/STM32F7xx_HAL_Driver/Src/stm32f7xx_ll_sdmmc.c ****   }
 368              		.loc 1 1489 5 is_stmt 1 view .LVU112
1489:Drivers/STM32F7xx_HAL_Driver/Src/stm32f7xx_ll_sdmmc.c ****   }
 369              		.loc 1 1489 12 is_stmt 0 view .LVU113
 370 0054 7047     		bx	lr
 371              	.LVL37:
 372              	.L30:
1471:Drivers/STM32F7xx_HAL_Driver/Src/stm32f7xx_ll_sdmmc.c ****     }
 373              		.loc 1 1471 14 view .LVU114
 374 0056 4FF00040 		mov	r0, #-2147483648
 375              	.LVL38:
 376              	.L25:
1503:Drivers/STM32F7xx_HAL_Driver/Src/stm32f7xx_ll_sdmmc.c ****   
1504:Drivers/STM32F7xx_HAL_Driver/Src/stm32f7xx_ll_sdmmc.c **** }
 377              		.loc 1 1504 1 view .LVU115
 378 005a 7047     		bx	lr
 379              	.L34:
 380              		.align	2
 381              	.L33:
 382 005c 00000000 		.word	SystemCoreClock
 383 0060 D34D6210 		.word	274877907
 384              		.cfi_endproc
 385              	.LFE184:
 387              		.section	.text.SDMMC_Init,"ax",%progbits
 388              		.align	1
 389              		.global	SDMMC_Init
 390              		.syntax unified
 391              		.thumb
 392              		.thumb_func
 393              		.fpu fpv5-d16
 395              	SDMMC_Init:
 396              	.LVL39:
 397              	.LFB141:
 213:Drivers/STM32F7xx_HAL_Driver/Src/stm32f7xx_ll_sdmmc.c ****   uint32_t tmpreg = 0;
 398              		.loc 1 213 1 is_stmt 1 view -0
 399              		.cfi_startproc
 400              		@ args = 28, pretend = 16, frame = 0
 401              		@ frame_needed = 0, uses_anonymous_args = 0
 402              		@ link register save eliminated.
 213:Drivers/STM32F7xx_HAL_Driver/Src/stm32f7xx_ll_sdmmc.c ****   uint32_t tmpreg = 0;
 403              		.loc 1 213 1 is_stmt 0 view .LVU117
 404 0000 84B0     		sub	sp, sp, #16
 405              	.LCFI0:
 406              		.cfi_def_cfa_offset 16
 407 0002 10B4     		push	{r4}
 408              	.LCFI1:
 409              		.cfi_def_cfa_offset 20
 410              		.cfi_offset 4, -20
 411 0004 02AC     		add	r4, sp, #8
 412 0006 84E80E00 		stm	r4, {r1, r2, r3}
 214:Drivers/STM32F7xx_HAL_Driver/Src/stm32f7xx_ll_sdmmc.c **** 
 413              		.loc 1 214 3 is_stmt 1 view .LVU118
 414              	.LVL40:
 217:Drivers/STM32F7xx_HAL_Driver/Src/stm32f7xx_ll_sdmmc.c ****   assert_param(IS_SDMMC_CLOCK_EDGE(Init.ClockEdge)); 
ARM GAS  /tmp/ccPnSfMB.s 			page 35


 415              		.loc 1 217 3 view .LVU119
 218:Drivers/STM32F7xx_HAL_Driver/Src/stm32f7xx_ll_sdmmc.c ****   assert_param(IS_SDMMC_CLOCK_BYPASS(Init.ClockBypass));
 416              		.loc 1 218 3 view .LVU120
 219:Drivers/STM32F7xx_HAL_Driver/Src/stm32f7xx_ll_sdmmc.c ****   assert_param(IS_SDMMC_CLOCK_POWER_SAVE(Init.ClockPowerSave));
 417              		.loc 1 219 3 view .LVU121
 220:Drivers/STM32F7xx_HAL_Driver/Src/stm32f7xx_ll_sdmmc.c ****   assert_param(IS_SDMMC_BUS_WIDE(Init.BusWide));
 418              		.loc 1 220 3 view .LVU122
 221:Drivers/STM32F7xx_HAL_Driver/Src/stm32f7xx_ll_sdmmc.c ****   assert_param(IS_SDMMC_HARDWARE_FLOW_CONTROL(Init.HardwareFlowControl));
 419              		.loc 1 221 3 view .LVU123
 222:Drivers/STM32F7xx_HAL_Driver/Src/stm32f7xx_ll_sdmmc.c ****   assert_param(IS_SDMMC_CLKDIV(Init.ClockDiv));
 420              		.loc 1 222 3 view .LVU124
 223:Drivers/STM32F7xx_HAL_Driver/Src/stm32f7xx_ll_sdmmc.c ****   
 421              		.loc 1 223 3 view .LVU125
 226:Drivers/STM32F7xx_HAL_Driver/Src/stm32f7xx_ll_sdmmc.c ****              Init.ClockBypass         |\
 422              		.loc 1 226 3 view .LVU126
 226:Drivers/STM32F7xx_HAL_Driver/Src/stm32f7xx_ll_sdmmc.c ****              Init.ClockBypass         |\
 423              		.loc 1 226 39 is_stmt 0 view .LVU127
 424 000a 0B46     		mov	r3, r1
 425 000c 039A     		ldr	r2, [sp, #12]
 426 000e 1343     		orrs	r3, r3, r2
 228:Drivers/STM32F7xx_HAL_Driver/Src/stm32f7xx_ll_sdmmc.c ****              Init.BusWide             |\
 427              		.loc 1 228 18 view .LVU128
 428 0010 049A     		ldr	r2, [sp, #16]
 227:Drivers/STM32F7xx_HAL_Driver/Src/stm32f7xx_ll_sdmmc.c ****              Init.ClockPowerSave      |\
 429              		.loc 1 227 39 view .LVU129
 430 0012 1343     		orrs	r3, r3, r2
 229:Drivers/STM32F7xx_HAL_Driver/Src/stm32f7xx_ll_sdmmc.c ****              Init.HardwareFlowControl |\
 431              		.loc 1 229 18 view .LVU130
 432 0014 059A     		ldr	r2, [sp, #20]
 228:Drivers/STM32F7xx_HAL_Driver/Src/stm32f7xx_ll_sdmmc.c ****              Init.BusWide             |\
 433              		.loc 1 228 39 view .LVU131
 434 0016 1343     		orrs	r3, r3, r2
 230:Drivers/STM32F7xx_HAL_Driver/Src/stm32f7xx_ll_sdmmc.c ****              Init.ClockDiv
 435              		.loc 1 230 18 view .LVU132
 436 0018 069A     		ldr	r2, [sp, #24]
 229:Drivers/STM32F7xx_HAL_Driver/Src/stm32f7xx_ll_sdmmc.c ****              Init.HardwareFlowControl |\
 437              		.loc 1 229 39 view .LVU133
 438 001a 1343     		orrs	r3, r3, r2
 231:Drivers/STM32F7xx_HAL_Driver/Src/stm32f7xx_ll_sdmmc.c ****              ); 
 439              		.loc 1 231 18 view .LVU134
 440 001c 079A     		ldr	r2, [sp, #28]
 230:Drivers/STM32F7xx_HAL_Driver/Src/stm32f7xx_ll_sdmmc.c ****              Init.ClockDiv
 441              		.loc 1 230 39 view .LVU135
 442 001e 1343     		orrs	r3, r3, r2
 443              	.LVL41:
 235:Drivers/STM32F7xx_HAL_Driver/Src/stm32f7xx_ll_sdmmc.c **** 
 444              		.loc 1 235 3 is_stmt 1 view .LVU136
 445 0020 4168     		ldr	r1, [r0, #4]
 446 0022 044A     		ldr	r2, .L37
 447 0024 0A40     		ands	r2, r2, r1
 448 0026 1343     		orrs	r3, r3, r2
 449              	.LVL42:
 235:Drivers/STM32F7xx_HAL_Driver/Src/stm32f7xx_ll_sdmmc.c **** 
 450              		.loc 1 235 3 is_stmt 0 view .LVU137
 451 0028 4360     		str	r3, [r0, #4]
 237:Drivers/STM32F7xx_HAL_Driver/Src/stm32f7xx_ll_sdmmc.c **** }
 452              		.loc 1 237 3 is_stmt 1 view .LVU138
ARM GAS  /tmp/ccPnSfMB.s 			page 36


 238:Drivers/STM32F7xx_HAL_Driver/Src/stm32f7xx_ll_sdmmc.c **** 
 453              		.loc 1 238 1 is_stmt 0 view .LVU139
 454 002a 0020     		movs	r0, #0
 455              	.LVL43:
 238:Drivers/STM32F7xx_HAL_Driver/Src/stm32f7xx_ll_sdmmc.c **** 
 456              		.loc 1 238 1 view .LVU140
 457 002c 5DF8044B 		ldr	r4, [sp], #4
 458              	.LCFI2:
 459              		.cfi_restore 4
 460              		.cfi_def_cfa_offset 16
 461              	.LVL44:
 238:Drivers/STM32F7xx_HAL_Driver/Src/stm32f7xx_ll_sdmmc.c **** 
 462              		.loc 1 238 1 view .LVU141
 463 0030 04B0     		add	sp, sp, #16
 464              	.LCFI3:
 465              		.cfi_def_cfa_offset 0
 466              	.LVL45:
 238:Drivers/STM32F7xx_HAL_Driver/Src/stm32f7xx_ll_sdmmc.c **** 
 467              		.loc 1 238 1 view .LVU142
 468 0032 7047     		bx	lr
 469              	.L38:
 470              		.align	2
 471              	.L37:
 472 0034 0081FFFF 		.word	-32512
 473              		.cfi_endproc
 474              	.LFE141:
 476              		.section	.text.SDMMC_ReadFIFO,"ax",%progbits
 477              		.align	1
 478              		.global	SDMMC_ReadFIFO
 479              		.syntax unified
 480              		.thumb
 481              		.thumb_func
 482              		.fpu fpv5-d16
 484              	SDMMC_ReadFIFO:
 485              	.LVL46:
 486              	.LFB142:
 266:Drivers/STM32F7xx_HAL_Driver/Src/stm32f7xx_ll_sdmmc.c ****   /* Read data from Rx FIFO */ 
 487              		.loc 1 266 1 is_stmt 1 view -0
 488              		.cfi_startproc
 489              		@ args = 0, pretend = 0, frame = 0
 490              		@ frame_needed = 0, uses_anonymous_args = 0
 491              		@ link register save eliminated.
 268:Drivers/STM32F7xx_HAL_Driver/Src/stm32f7xx_ll_sdmmc.c **** }
 492              		.loc 1 268 3 view .LVU144
 268:Drivers/STM32F7xx_HAL_Driver/Src/stm32f7xx_ll_sdmmc.c **** }
 493              		.loc 1 268 17 is_stmt 0 view .LVU145
 494 0000 D0F88000 		ldr	r0, [r0, #128]
 495              	.LVL47:
 269:Drivers/STM32F7xx_HAL_Driver/Src/stm32f7xx_ll_sdmmc.c **** 
 496              		.loc 1 269 1 view .LVU146
 497 0004 7047     		bx	lr
 498              		.cfi_endproc
 499              	.LFE142:
 501              		.section	.text.SDMMC_WriteFIFO,"ax",%progbits
 502              		.align	1
 503              		.global	SDMMC_WriteFIFO
 504              		.syntax unified
ARM GAS  /tmp/ccPnSfMB.s 			page 37


 505              		.thumb
 506              		.thumb_func
 507              		.fpu fpv5-d16
 509              	SDMMC_WriteFIFO:
 510              	.LVL48:
 511              	.LFB143:
 278:Drivers/STM32F7xx_HAL_Driver/Src/stm32f7xx_ll_sdmmc.c ****   /* Write data to FIFO */ 
 512              		.loc 1 278 1 is_stmt 1 view -0
 513              		.cfi_startproc
 514              		@ args = 0, pretend = 0, frame = 0
 515              		@ frame_needed = 0, uses_anonymous_args = 0
 516              		@ link register save eliminated.
 280:Drivers/STM32F7xx_HAL_Driver/Src/stm32f7xx_ll_sdmmc.c **** 
 517              		.loc 1 280 3 view .LVU148
 280:Drivers/STM32F7xx_HAL_Driver/Src/stm32f7xx_ll_sdmmc.c **** 
 518              		.loc 1 280 18 is_stmt 0 view .LVU149
 519 0000 0B68     		ldr	r3, [r1]
 280:Drivers/STM32F7xx_HAL_Driver/Src/stm32f7xx_ll_sdmmc.c **** 
 520              		.loc 1 280 16 view .LVU150
 521 0002 C0F88030 		str	r3, [r0, #128]
 282:Drivers/STM32F7xx_HAL_Driver/Src/stm32f7xx_ll_sdmmc.c **** }
 522              		.loc 1 282 3 is_stmt 1 view .LVU151
 283:Drivers/STM32F7xx_HAL_Driver/Src/stm32f7xx_ll_sdmmc.c **** 
 523              		.loc 1 283 1 is_stmt 0 view .LVU152
 524 0006 0020     		movs	r0, #0
 525              	.LVL49:
 283:Drivers/STM32F7xx_HAL_Driver/Src/stm32f7xx_ll_sdmmc.c **** 
 526              		.loc 1 283 1 view .LVU153
 527 0008 7047     		bx	lr
 528              		.cfi_endproc
 529              	.LFE143:
 531              		.section	.text.SDMMC_PowerState_ON,"ax",%progbits
 532              		.align	1
 533              		.global	SDMMC_PowerState_ON
 534              		.syntax unified
 535              		.thumb
 536              		.thumb_func
 537              		.fpu fpv5-d16
 539              	SDMMC_PowerState_ON:
 540              	.LVL50:
 541              	.LFB144:
 310:Drivers/STM32F7xx_HAL_Driver/Src/stm32f7xx_ll_sdmmc.c ****   /* Set power state to ON */ 
 542              		.loc 1 310 1 is_stmt 1 view -0
 543              		.cfi_startproc
 544              		@ args = 0, pretend = 0, frame = 0
 545              		@ frame_needed = 0, uses_anonymous_args = 0
 310:Drivers/STM32F7xx_HAL_Driver/Src/stm32f7xx_ll_sdmmc.c ****   /* Set power state to ON */ 
 546              		.loc 1 310 1 is_stmt 0 view .LVU155
 547 0000 08B5     		push	{r3, lr}
 548              	.LCFI4:
 549              		.cfi_def_cfa_offset 8
 550              		.cfi_offset 3, -8
 551              		.cfi_offset 14, -4
 312:Drivers/STM32F7xx_HAL_Driver/Src/stm32f7xx_ll_sdmmc.c **** 
 552              		.loc 1 312 3 is_stmt 1 view .LVU156
 312:Drivers/STM32F7xx_HAL_Driver/Src/stm32f7xx_ll_sdmmc.c **** 
 553              		.loc 1 312 17 is_stmt 0 view .LVU157
ARM GAS  /tmp/ccPnSfMB.s 			page 38


 554 0002 0323     		movs	r3, #3
 555 0004 0360     		str	r3, [r0]
 316:Drivers/STM32F7xx_HAL_Driver/Src/stm32f7xx_ll_sdmmc.c ****   
 556              		.loc 1 316 3 is_stmt 1 view .LVU158
 557 0006 0220     		movs	r0, #2
 558              	.LVL51:
 316:Drivers/STM32F7xx_HAL_Driver/Src/stm32f7xx_ll_sdmmc.c ****   
 559              		.loc 1 316 3 is_stmt 0 view .LVU159
 560 0008 FFF7FEFF 		bl	HAL_Delay
 561              	.LVL52:
 318:Drivers/STM32F7xx_HAL_Driver/Src/stm32f7xx_ll_sdmmc.c **** }
 562              		.loc 1 318 3 is_stmt 1 view .LVU160
 319:Drivers/STM32F7xx_HAL_Driver/Src/stm32f7xx_ll_sdmmc.c **** 
 563              		.loc 1 319 1 is_stmt 0 view .LVU161
 564 000c 0020     		movs	r0, #0
 565 000e 08BD     		pop	{r3, pc}
 566              		.cfi_endproc
 567              	.LFE144:
 569              		.section	.text.SDMMC_PowerState_OFF,"ax",%progbits
 570              		.align	1
 571              		.global	SDMMC_PowerState_OFF
 572              		.syntax unified
 573              		.thumb
 574              		.thumb_func
 575              		.fpu fpv5-d16
 577              	SDMMC_PowerState_OFF:
 578              	.LVL53:
 579              	.LFB145:
 327:Drivers/STM32F7xx_HAL_Driver/Src/stm32f7xx_ll_sdmmc.c ****   /* Set power state to OFF */
 580              		.loc 1 327 1 is_stmt 1 view -0
 581              		.cfi_startproc
 582              		@ args = 0, pretend = 0, frame = 0
 583              		@ frame_needed = 0, uses_anonymous_args = 0
 584              		@ link register save eliminated.
 327:Drivers/STM32F7xx_HAL_Driver/Src/stm32f7xx_ll_sdmmc.c ****   /* Set power state to OFF */
 585              		.loc 1 327 1 is_stmt 0 view .LVU163
 586 0000 0346     		mov	r3, r0
 329:Drivers/STM32F7xx_HAL_Driver/Src/stm32f7xx_ll_sdmmc.c ****   
 587              		.loc 1 329 3 is_stmt 1 view .LVU164
 329:Drivers/STM32F7xx_HAL_Driver/Src/stm32f7xx_ll_sdmmc.c ****   
 588              		.loc 1 329 17 is_stmt 0 view .LVU165
 589 0002 0020     		movs	r0, #0
 590              	.LVL54:
 329:Drivers/STM32F7xx_HAL_Driver/Src/stm32f7xx_ll_sdmmc.c ****   
 591              		.loc 1 329 17 view .LVU166
 592 0004 1860     		str	r0, [r3]
 331:Drivers/STM32F7xx_HAL_Driver/Src/stm32f7xx_ll_sdmmc.c **** }
 593              		.loc 1 331 3 is_stmt 1 view .LVU167
 332:Drivers/STM32F7xx_HAL_Driver/Src/stm32f7xx_ll_sdmmc.c **** 
 594              		.loc 1 332 1 is_stmt 0 view .LVU168
 595 0006 7047     		bx	lr
 596              		.cfi_endproc
 597              	.LFE145:
 599              		.section	.text.SDMMC_GetPowerState,"ax",%progbits
 600              		.align	1
 601              		.global	SDMMC_GetPowerState
 602              		.syntax unified
ARM GAS  /tmp/ccPnSfMB.s 			page 39


 603              		.thumb
 604              		.thumb_func
 605              		.fpu fpv5-d16
 607              	SDMMC_GetPowerState:
 608              	.LVL55:
 609              	.LFB146:
 344:Drivers/STM32F7xx_HAL_Driver/Src/stm32f7xx_ll_sdmmc.c ****   return (SDMMCx->POWER & SDMMC_POWER_PWRCTRL);
 610              		.loc 1 344 1 is_stmt 1 view -0
 611              		.cfi_startproc
 612              		@ args = 0, pretend = 0, frame = 0
 613              		@ frame_needed = 0, uses_anonymous_args = 0
 614              		@ link register save eliminated.
 345:Drivers/STM32F7xx_HAL_Driver/Src/stm32f7xx_ll_sdmmc.c **** }
 615              		.loc 1 345 3 view .LVU170
 345:Drivers/STM32F7xx_HAL_Driver/Src/stm32f7xx_ll_sdmmc.c **** }
 616              		.loc 1 345 17 is_stmt 0 view .LVU171
 617 0000 0068     		ldr	r0, [r0]
 618              	.LVL56:
 346:Drivers/STM32F7xx_HAL_Driver/Src/stm32f7xx_ll_sdmmc.c **** 
 619              		.loc 1 346 1 view .LVU172
 620 0002 00F00300 		and	r0, r0, #3
 621 0006 7047     		bx	lr
 622              		.cfi_endproc
 623              	.LFE146:
 625              		.section	.text.SDMMC_SendCommand,"ax",%progbits
 626              		.align	1
 627              		.global	SDMMC_SendCommand
 628              		.syntax unified
 629              		.thumb
 630              		.thumb_func
 631              		.fpu fpv5-d16
 633              	SDMMC_SendCommand:
 634              	.LVL57:
 635              	.LFB147:
 357:Drivers/STM32F7xx_HAL_Driver/Src/stm32f7xx_ll_sdmmc.c ****   uint32_t tmpreg = 0;
 636              		.loc 1 357 1 is_stmt 1 view -0
 637              		.cfi_startproc
 638              		@ args = 0, pretend = 0, frame = 0
 639              		@ frame_needed = 0, uses_anonymous_args = 0
 640              		@ link register save eliminated.
 358:Drivers/STM32F7xx_HAL_Driver/Src/stm32f7xx_ll_sdmmc.c ****   
 641              		.loc 1 358 3 view .LVU174
 361:Drivers/STM32F7xx_HAL_Driver/Src/stm32f7xx_ll_sdmmc.c ****   assert_param(IS_SDMMC_RESPONSE(Command->Response));
 642              		.loc 1 361 3 view .LVU175
 362:Drivers/STM32F7xx_HAL_Driver/Src/stm32f7xx_ll_sdmmc.c ****   assert_param(IS_SDMMC_WAIT(Command->WaitForInterrupt));
 643              		.loc 1 362 3 view .LVU176
 363:Drivers/STM32F7xx_HAL_Driver/Src/stm32f7xx_ll_sdmmc.c ****   assert_param(IS_SDMMC_CPSM(Command->CPSM));
 644              		.loc 1 363 3 view .LVU177
 364:Drivers/STM32F7xx_HAL_Driver/Src/stm32f7xx_ll_sdmmc.c **** 
 645              		.loc 1 364 3 view .LVU178
 367:Drivers/STM32F7xx_HAL_Driver/Src/stm32f7xx_ll_sdmmc.c **** 
 646              		.loc 1 367 3 view .LVU179
 367:Drivers/STM32F7xx_HAL_Driver/Src/stm32f7xx_ll_sdmmc.c **** 
 647              		.loc 1 367 24 is_stmt 0 view .LVU180
 648 0000 0B68     		ldr	r3, [r1]
 367:Drivers/STM32F7xx_HAL_Driver/Src/stm32f7xx_ll_sdmmc.c **** 
 649              		.loc 1 367 15 view .LVU181
ARM GAS  /tmp/ccPnSfMB.s 			page 40


 650 0002 8360     		str	r3, [r0, #8]
 370:Drivers/STM32F7xx_HAL_Driver/Src/stm32f7xx_ll_sdmmc.c ****                        Command->Response         |\
 651              		.loc 1 370 3 is_stmt 1 view .LVU182
 370:Drivers/STM32F7xx_HAL_Driver/Src/stm32f7xx_ll_sdmmc.c ****                        Command->Response         |\
 652              		.loc 1 370 31 is_stmt 0 view .LVU183
 653 0004 4B68     		ldr	r3, [r1, #4]
 371:Drivers/STM32F7xx_HAL_Driver/Src/stm32f7xx_ll_sdmmc.c ****                        Command->WaitForInterrupt |\
 654              		.loc 1 371 31 view .LVU184
 655 0006 8A68     		ldr	r2, [r1, #8]
 370:Drivers/STM32F7xx_HAL_Driver/Src/stm32f7xx_ll_sdmmc.c ****                        Command->Response         |\
 656              		.loc 1 370 50 view .LVU185
 657 0008 1343     		orrs	r3, r3, r2
 372:Drivers/STM32F7xx_HAL_Driver/Src/stm32f7xx_ll_sdmmc.c ****                        Command->CPSM);
 658              		.loc 1 372 31 view .LVU186
 659 000a CA68     		ldr	r2, [r1, #12]
 371:Drivers/STM32F7xx_HAL_Driver/Src/stm32f7xx_ll_sdmmc.c ****                        Command->WaitForInterrupt |\
 660              		.loc 1 371 50 view .LVU187
 661 000c 1343     		orrs	r3, r3, r2
 373:Drivers/STM32F7xx_HAL_Driver/Src/stm32f7xx_ll_sdmmc.c ****   
 662              		.loc 1 373 31 view .LVU188
 663 000e 0A69     		ldr	r2, [r1, #16]
 372:Drivers/STM32F7xx_HAL_Driver/Src/stm32f7xx_ll_sdmmc.c ****                        Command->CPSM);
 664              		.loc 1 372 50 view .LVU189
 665 0010 1343     		orrs	r3, r3, r2
 666              	.LVL58:
 376:Drivers/STM32F7xx_HAL_Driver/Src/stm32f7xx_ll_sdmmc.c ****   
 667              		.loc 1 376 3 is_stmt 1 view .LVU190
 668 0012 C168     		ldr	r1, [r0, #12]
 669              	.LVL59:
 376:Drivers/STM32F7xx_HAL_Driver/Src/stm32f7xx_ll_sdmmc.c ****   
 670              		.loc 1 376 3 is_stmt 0 view .LVU191
 671 0014 024A     		ldr	r2, .L46
 672 0016 0A40     		ands	r2, r2, r1
 673 0018 1343     		orrs	r3, r3, r2
 674              	.LVL60:
 376:Drivers/STM32F7xx_HAL_Driver/Src/stm32f7xx_ll_sdmmc.c ****   
 675              		.loc 1 376 3 view .LVU192
 676 001a C360     		str	r3, [r0, #12]
 677              	.LVL61:
 378:Drivers/STM32F7xx_HAL_Driver/Src/stm32f7xx_ll_sdmmc.c **** }
 678              		.loc 1 378 3 is_stmt 1 view .LVU193
 379:Drivers/STM32F7xx_HAL_Driver/Src/stm32f7xx_ll_sdmmc.c **** 
 679              		.loc 1 379 1 is_stmt 0 view .LVU194
 680 001c 0020     		movs	r0, #0
 681              	.LVL62:
 379:Drivers/STM32F7xx_HAL_Driver/Src/stm32f7xx_ll_sdmmc.c **** 
 682              		.loc 1 379 1 view .LVU195
 683 001e 7047     		bx	lr
 684              	.L47:
 685              		.align	2
 686              	.L46:
 687 0020 00F0FFFF 		.word	-4096
 688              		.cfi_endproc
 689              	.LFE147:
 691              		.section	.text.SDMMC_GetCommandResponse,"ax",%progbits
 692              		.align	1
 693              		.global	SDMMC_GetCommandResponse
ARM GAS  /tmp/ccPnSfMB.s 			page 41


 694              		.syntax unified
 695              		.thumb
 696              		.thumb_func
 697              		.fpu fpv5-d16
 699              	SDMMC_GetCommandResponse:
 700              	.LVL63:
 701              	.LFB148:
 387:Drivers/STM32F7xx_HAL_Driver/Src/stm32f7xx_ll_sdmmc.c ****   return (uint8_t)(SDMMCx->RESPCMD);
 702              		.loc 1 387 1 is_stmt 1 view -0
 703              		.cfi_startproc
 704              		@ args = 0, pretend = 0, frame = 0
 705              		@ frame_needed = 0, uses_anonymous_args = 0
 706              		@ link register save eliminated.
 388:Drivers/STM32F7xx_HAL_Driver/Src/stm32f7xx_ll_sdmmc.c **** }
 707              		.loc 1 388 3 view .LVU197
 388:Drivers/STM32F7xx_HAL_Driver/Src/stm32f7xx_ll_sdmmc.c **** }
 708              		.loc 1 388 26 is_stmt 0 view .LVU198
 709 0000 0069     		ldr	r0, [r0, #16]
 710              	.LVL64:
 389:Drivers/STM32F7xx_HAL_Driver/Src/stm32f7xx_ll_sdmmc.c **** 
 711              		.loc 1 389 1 view .LVU199
 712 0002 C0B2     		uxtb	r0, r0
 713 0004 7047     		bx	lr
 714              		.cfi_endproc
 715              	.LFE148:
 717              		.section	.text.SDMMC_GetResponse,"ax",%progbits
 718              		.align	1
 719              		.global	SDMMC_GetResponse
 720              		.syntax unified
 721              		.thumb
 722              		.thumb_func
 723              		.fpu fpv5-d16
 725              	SDMMC_GetResponse:
 726              	.LVL65:
 727              	.LFB149:
 404:Drivers/STM32F7xx_HAL_Driver/Src/stm32f7xx_ll_sdmmc.c ****   uint32_t tmp;
 728              		.loc 1 404 1 is_stmt 1 view -0
 729              		.cfi_startproc
 730              		@ args = 0, pretend = 0, frame = 0
 731              		@ frame_needed = 0, uses_anonymous_args = 0
 732              		@ link register save eliminated.
 405:Drivers/STM32F7xx_HAL_Driver/Src/stm32f7xx_ll_sdmmc.c **** 
 733              		.loc 1 405 3 view .LVU201
 408:Drivers/STM32F7xx_HAL_Driver/Src/stm32f7xx_ll_sdmmc.c ****   
 734              		.loc 1 408 3 view .LVU202
 411:Drivers/STM32F7xx_HAL_Driver/Src/stm32f7xx_ll_sdmmc.c ****   
 735              		.loc 1 411 3 view .LVU203
 411:Drivers/STM32F7xx_HAL_Driver/Src/stm32f7xx_ll_sdmmc.c ****   
 736              		.loc 1 411 20 is_stmt 0 view .LVU204
 737 0000 1430     		adds	r0, r0, #20
 738              	.LVL66:
 413:Drivers/STM32F7xx_HAL_Driver/Src/stm32f7xx_ll_sdmmc.c **** }  
 739              		.loc 1 413 3 is_stmt 1 view .LVU205
 413:Drivers/STM32F7xx_HAL_Driver/Src/stm32f7xx_ll_sdmmc.c **** }  
 740              		.loc 1 413 11 is_stmt 0 view .LVU206
 741 0002 4058     		ldr	r0, [r0, r1]
 742              	.LVL67:
ARM GAS  /tmp/ccPnSfMB.s 			page 42


 414:Drivers/STM32F7xx_HAL_Driver/Src/stm32f7xx_ll_sdmmc.c **** 
 743              		.loc 1 414 1 view .LVU207
 744 0004 7047     		bx	lr
 745              		.cfi_endproc
 746              	.LFE149:
 748              		.section	.text.SDMMC_GetCmdResp1,"ax",%progbits
 749              		.align	1
 750              		.syntax unified
 751              		.thumb
 752              		.thumb_func
 753              		.fpu fpv5-d16
 755              	SDMMC_GetCmdResp1:
 756              	.LVL68:
 757              	.LFB180:
1169:Drivers/STM32F7xx_HAL_Driver/Src/stm32f7xx_ll_sdmmc.c ****   uint32_t response_r1;
 758              		.loc 1 1169 1 is_stmt 1 view -0
 759              		.cfi_startproc
 760              		@ args = 0, pretend = 0, frame = 0
 761              		@ frame_needed = 0, uses_anonymous_args = 0
1169:Drivers/STM32F7xx_HAL_Driver/Src/stm32f7xx_ll_sdmmc.c ****   uint32_t response_r1;
 762              		.loc 1 1169 1 is_stmt 0 view .LVU209
 763 0000 38B5     		push	{r3, r4, r5, lr}
 764              	.LCFI5:
 765              		.cfi_def_cfa_offset 16
 766              		.cfi_offset 3, -16
 767              		.cfi_offset 4, -12
 768              		.cfi_offset 5, -8
 769              		.cfi_offset 14, -4
 770 0002 0446     		mov	r4, r0
 771 0004 0D46     		mov	r5, r1
1170:Drivers/STM32F7xx_HAL_Driver/Src/stm32f7xx_ll_sdmmc.c ****   uint32_t sta_reg;
 772              		.loc 1 1170 3 is_stmt 1 view .LVU210
1171:Drivers/STM32F7xx_HAL_Driver/Src/stm32f7xx_ll_sdmmc.c ****   
 773              		.loc 1 1171 3 view .LVU211
1175:Drivers/STM32F7xx_HAL_Driver/Src/stm32f7xx_ll_sdmmc.c ****   
 774              		.loc 1 1175 3 view .LVU212
1175:Drivers/STM32F7xx_HAL_Driver/Src/stm32f7xx_ll_sdmmc.c ****   
 775              		.loc 1 1175 61 is_stmt 0 view .LVU213
 776 0006 504B     		ldr	r3, .L78
 777 0008 1B68     		ldr	r3, [r3]
 778 000a 5049     		ldr	r1, .L78+4
 779              	.LVL69:
1175:Drivers/STM32F7xx_HAL_Driver/Src/stm32f7xx_ll_sdmmc.c ****   
 780              		.loc 1 1175 61 view .LVU214
 781 000c A1FB0313 		umull	r1, r3, r1, r3
 782 0010 5B0A     		lsrs	r3, r3, #9
1175:Drivers/STM32F7xx_HAL_Driver/Src/stm32f7xx_ll_sdmmc.c ****   
 783              		.loc 1 1175 21 view .LVU215
 784 0012 02FB03F2 		mul	r2, r2, r3
 785              	.LVL70:
 786              	.L52:
1177:Drivers/STM32F7xx_HAL_Driver/Src/stm32f7xx_ll_sdmmc.c ****   {
 787              		.loc 1 1177 3 is_stmt 1 view .LVU216
1179:Drivers/STM32F7xx_HAL_Driver/Src/stm32f7xx_ll_sdmmc.c ****     {
 788              		.loc 1 1179 5 view .LVU217
 789 0016 1346     		mov	r3, r2
1179:Drivers/STM32F7xx_HAL_Driver/Src/stm32f7xx_ll_sdmmc.c ****     {
ARM GAS  /tmp/ccPnSfMB.s 			page 43


 790              		.loc 1 1179 14 is_stmt 0 view .LVU218
 791 0018 013A     		subs	r2, r2, #1
 792              	.LVL71:
1179:Drivers/STM32F7xx_HAL_Driver/Src/stm32f7xx_ll_sdmmc.c ****     {
 793              		.loc 1 1179 8 view .LVU219
 794 001a 002B     		cmp	r3, #0
 795 001c 5DD0     		beq	.L55
1183:Drivers/STM32F7xx_HAL_Driver/Src/stm32f7xx_ll_sdmmc.c ****   }while(((sta_reg & (SDMMC_FLAG_CCRCFAIL | SDMMC_FLAG_CMDREND | SDMMC_FLAG_CTIMEOUT)) == 0U) ||
 796              		.loc 1 1183 5 is_stmt 1 view .LVU220
1183:Drivers/STM32F7xx_HAL_Driver/Src/stm32f7xx_ll_sdmmc.c ****   }while(((sta_reg & (SDMMC_FLAG_CCRCFAIL | SDMMC_FLAG_CMDREND | SDMMC_FLAG_CTIMEOUT)) == 0U) ||
 797              		.loc 1 1183 13 is_stmt 0 view .LVU221
 798 001e 636B     		ldr	r3, [r4, #52]
 799              	.LVL72:
1184:Drivers/STM32F7xx_HAL_Driver/Src/stm32f7xx_ll_sdmmc.c ****          ((sta_reg & SDMMC_FLAG_CMDACT) != 0U ));
 800              		.loc 1 1184 9 is_stmt 1 view .LVU222
1185:Drivers/STM32F7xx_HAL_Driver/Src/stm32f7xx_ll_sdmmc.c ****     
 801              		.loc 1 1185 10 is_stmt 0 view .LVU223
 802 0020 13F0450F 		tst	r3, #69
 803 0024 F7D0     		beq	.L52
1184:Drivers/STM32F7xx_HAL_Driver/Src/stm32f7xx_ll_sdmmc.c ****          ((sta_reg & SDMMC_FLAG_CMDACT) != 0U ));
 804              		.loc 1 1184 95 discriminator 1 view .LVU224
 805 0026 13F4006F 		tst	r3, #2048
 806 002a F4D1     		bne	.L52
1187:Drivers/STM32F7xx_HAL_Driver/Src/stm32f7xx_ll_sdmmc.c ****   {
 807              		.loc 1 1187 3 is_stmt 1 view .LVU225
1187:Drivers/STM32F7xx_HAL_Driver/Src/stm32f7xx_ll_sdmmc.c ****   {
 808              		.loc 1 1187 6 is_stmt 0 view .LVU226
 809 002c 636B     		ldr	r3, [r4, #52]
 810              	.LVL73:
1187:Drivers/STM32F7xx_HAL_Driver/Src/stm32f7xx_ll_sdmmc.c ****   {
 811              		.loc 1 1187 5 view .LVU227
 812 002e 13F0040F 		tst	r3, #4
 813 0032 06D1     		bne	.L76
1193:Drivers/STM32F7xx_HAL_Driver/Src/stm32f7xx_ll_sdmmc.c ****   {
 814              		.loc 1 1193 8 is_stmt 1 view .LVU228
1193:Drivers/STM32F7xx_HAL_Driver/Src/stm32f7xx_ll_sdmmc.c ****   {
 815              		.loc 1 1193 11 is_stmt 0 view .LVU229
 816 0034 636B     		ldr	r3, [r4, #52]
1193:Drivers/STM32F7xx_HAL_Driver/Src/stm32f7xx_ll_sdmmc.c ****   {
 817              		.loc 1 1193 10 view .LVU230
 818 0036 13F0010F 		tst	r3, #1
 819 003a 05D0     		beq	.L54
1195:Drivers/STM32F7xx_HAL_Driver/Src/stm32f7xx_ll_sdmmc.c ****     
 820              		.loc 1 1195 5 is_stmt 1 view .LVU231
 821 003c 0120     		movs	r0, #1
 822              	.LVL74:
1195:Drivers/STM32F7xx_HAL_Driver/Src/stm32f7xx_ll_sdmmc.c ****     
 823              		.loc 1 1195 5 is_stmt 0 view .LVU232
 824 003e A063     		str	r0, [r4, #56]
1197:Drivers/STM32F7xx_HAL_Driver/Src/stm32f7xx_ll_sdmmc.c ****   }
 825              		.loc 1 1197 5 is_stmt 1 view .LVU233
1197:Drivers/STM32F7xx_HAL_Driver/Src/stm32f7xx_ll_sdmmc.c ****   }
 826              		.loc 1 1197 12 is_stmt 0 view .LVU234
 827 0040 4DE0     		b	.L50
 828              	.LVL75:
 829              	.L76:
1189:Drivers/STM32F7xx_HAL_Driver/Src/stm32f7xx_ll_sdmmc.c ****     
ARM GAS  /tmp/ccPnSfMB.s 			page 44


 830              		.loc 1 1189 5 is_stmt 1 view .LVU235
 831 0042 0420     		movs	r0, #4
 832              	.LVL76:
1189:Drivers/STM32F7xx_HAL_Driver/Src/stm32f7xx_ll_sdmmc.c ****     
 833              		.loc 1 1189 5 is_stmt 0 view .LVU236
 834 0044 A063     		str	r0, [r4, #56]
1191:Drivers/STM32F7xx_HAL_Driver/Src/stm32f7xx_ll_sdmmc.c ****   }
 835              		.loc 1 1191 5 is_stmt 1 view .LVU237
1191:Drivers/STM32F7xx_HAL_Driver/Src/stm32f7xx_ll_sdmmc.c ****   }
 836              		.loc 1 1191 12 is_stmt 0 view .LVU238
 837 0046 4AE0     		b	.L50
 838              	.LVL77:
 839              	.L54:
1202:Drivers/STM32F7xx_HAL_Driver/Src/stm32f7xx_ll_sdmmc.c ****   
 840              		.loc 1 1202 3 is_stmt 1 view .LVU239
1205:Drivers/STM32F7xx_HAL_Driver/Src/stm32f7xx_ll_sdmmc.c ****   
 841              		.loc 1 1205 3 view .LVU240
 842 0048 C523     		movs	r3, #197
 843 004a A363     		str	r3, [r4, #56]
1208:Drivers/STM32F7xx_HAL_Driver/Src/stm32f7xx_ll_sdmmc.c ****   {
 844              		.loc 1 1208 3 view .LVU241
1208:Drivers/STM32F7xx_HAL_Driver/Src/stm32f7xx_ll_sdmmc.c ****   {
 845              		.loc 1 1208 6 is_stmt 0 view .LVU242
 846 004c 2046     		mov	r0, r4
 847              	.LVL78:
1208:Drivers/STM32F7xx_HAL_Driver/Src/stm32f7xx_ll_sdmmc.c ****   {
 848              		.loc 1 1208 6 view .LVU243
 849 004e FFF7FEFF 		bl	SDMMC_GetCommandResponse
 850              	.LVL79:
1208:Drivers/STM32F7xx_HAL_Driver/Src/stm32f7xx_ll_sdmmc.c ****   {
 851              		.loc 1 1208 5 view .LVU244
 852 0052 A842     		cmp	r0, r5
 853 0054 01D0     		beq	.L77
1210:Drivers/STM32F7xx_HAL_Driver/Src/stm32f7xx_ll_sdmmc.c ****   }
 854              		.loc 1 1210 12 view .LVU245
 855 0056 0120     		movs	r0, #1
 856 0058 41E0     		b	.L50
 857              	.L77:
1214:Drivers/STM32F7xx_HAL_Driver/Src/stm32f7xx_ll_sdmmc.c ****   
 858              		.loc 1 1214 3 is_stmt 1 view .LVU246
1214:Drivers/STM32F7xx_HAL_Driver/Src/stm32f7xx_ll_sdmmc.c ****   
 859              		.loc 1 1214 17 is_stmt 0 view .LVU247
 860 005a 0021     		movs	r1, #0
 861 005c 2046     		mov	r0, r4
 862 005e FFF7FEFF 		bl	SDMMC_GetResponse
 863              	.LVL80:
 864 0062 0346     		mov	r3, r0
 865              	.LVL81:
1216:Drivers/STM32F7xx_HAL_Driver/Src/stm32f7xx_ll_sdmmc.c ****   {
 866              		.loc 1 1216 3 is_stmt 1 view .LVU248
1216:Drivers/STM32F7xx_HAL_Driver/Src/stm32f7xx_ll_sdmmc.c ****   {
 867              		.loc 1 1216 19 is_stmt 0 view .LVU249
 868 0064 3A48     		ldr	r0, .L78+8
 869              	.LVL82:
1216:Drivers/STM32F7xx_HAL_Driver/Src/stm32f7xx_ll_sdmmc.c ****   {
 870              		.loc 1 1216 19 view .LVU250
 871 0066 1840     		ands	r0, r0, r3
ARM GAS  /tmp/ccPnSfMB.s 			page 45


1216:Drivers/STM32F7xx_HAL_Driver/Src/stm32f7xx_ll_sdmmc.c ****   {
 872              		.loc 1 1216 5 view .LVU251
 873 0068 C8B3     		cbz	r0, .L50
1220:Drivers/STM32F7xx_HAL_Driver/Src/stm32f7xx_ll_sdmmc.c ****   {
 874              		.loc 1 1220 8 is_stmt 1 view .LVU252
1220:Drivers/STM32F7xx_HAL_Driver/Src/stm32f7xx_ll_sdmmc.c ****   {
 875              		.loc 1 1220 10 is_stmt 0 view .LVU253
 876 006a 002B     		cmp	r3, #0
 877 006c 38DB     		blt	.L57
1224:Drivers/STM32F7xx_HAL_Driver/Src/stm32f7xx_ll_sdmmc.c ****   {
 878              		.loc 1 1224 8 is_stmt 1 view .LVU254
1224:Drivers/STM32F7xx_HAL_Driver/Src/stm32f7xx_ll_sdmmc.c ****   {
 879              		.loc 1 1224 10 is_stmt 0 view .LVU255
 880 006e 13F0804F 		tst	r3, #1073741824
 881 0072 38D1     		bne	.L58
1228:Drivers/STM32F7xx_HAL_Driver/Src/stm32f7xx_ll_sdmmc.c ****   {
 882              		.loc 1 1228 8 is_stmt 1 view .LVU256
1228:Drivers/STM32F7xx_HAL_Driver/Src/stm32f7xx_ll_sdmmc.c ****   {
 883              		.loc 1 1228 10 is_stmt 0 view .LVU257
 884 0074 13F0005F 		tst	r3, #536870912
 885 0078 37D1     		bne	.L59
1232:Drivers/STM32F7xx_HAL_Driver/Src/stm32f7xx_ll_sdmmc.c ****   {
 886              		.loc 1 1232 8 is_stmt 1 view .LVU258
1232:Drivers/STM32F7xx_HAL_Driver/Src/stm32f7xx_ll_sdmmc.c ****   {
 887              		.loc 1 1232 10 is_stmt 0 view .LVU259
 888 007a 13F0805F 		tst	r3, #268435456
 889 007e 36D1     		bne	.L60
1236:Drivers/STM32F7xx_HAL_Driver/Src/stm32f7xx_ll_sdmmc.c ****   {
 890              		.loc 1 1236 8 is_stmt 1 view .LVU260
1236:Drivers/STM32F7xx_HAL_Driver/Src/stm32f7xx_ll_sdmmc.c ****   {
 891              		.loc 1 1236 10 is_stmt 0 view .LVU261
 892 0080 13F0006F 		tst	r3, #134217728
 893 0084 36D1     		bne	.L61
1240:Drivers/STM32F7xx_HAL_Driver/Src/stm32f7xx_ll_sdmmc.c ****   {
 894              		.loc 1 1240 8 is_stmt 1 view .LVU262
1240:Drivers/STM32F7xx_HAL_Driver/Src/stm32f7xx_ll_sdmmc.c ****   {
 895              		.loc 1 1240 10 is_stmt 0 view .LVU263
 896 0086 13F0806F 		tst	r3, #67108864
 897 008a 36D1     		bne	.L62
1244:Drivers/STM32F7xx_HAL_Driver/Src/stm32f7xx_ll_sdmmc.c ****   {
 898              		.loc 1 1244 8 is_stmt 1 view .LVU264
1244:Drivers/STM32F7xx_HAL_Driver/Src/stm32f7xx_ll_sdmmc.c ****   {
 899              		.loc 1 1244 10 is_stmt 0 view .LVU265
 900 008c 13F0807F 		tst	r3, #16777216
 901 0090 36D1     		bne	.L63
1248:Drivers/STM32F7xx_HAL_Driver/Src/stm32f7xx_ll_sdmmc.c ****   {
 902              		.loc 1 1248 8 is_stmt 1 view .LVU266
1248:Drivers/STM32F7xx_HAL_Driver/Src/stm32f7xx_ll_sdmmc.c ****   {
 903              		.loc 1 1248 10 is_stmt 0 view .LVU267
 904 0092 13F4000F 		tst	r3, #8388608
 905 0096 36D1     		bne	.L64
1252:Drivers/STM32F7xx_HAL_Driver/Src/stm32f7xx_ll_sdmmc.c ****   {
 906              		.loc 1 1252 8 is_stmt 1 view .LVU268
1252:Drivers/STM32F7xx_HAL_Driver/Src/stm32f7xx_ll_sdmmc.c ****   {
 907              		.loc 1 1252 10 is_stmt 0 view .LVU269
 908 0098 13F4800F 		tst	r3, #4194304
 909 009c 36D1     		bne	.L65
ARM GAS  /tmp/ccPnSfMB.s 			page 46


1256:Drivers/STM32F7xx_HAL_Driver/Src/stm32f7xx_ll_sdmmc.c ****   {
 910              		.loc 1 1256 8 is_stmt 1 view .LVU270
1256:Drivers/STM32F7xx_HAL_Driver/Src/stm32f7xx_ll_sdmmc.c ****   {
 911              		.loc 1 1256 10 is_stmt 0 view .LVU271
 912 009e 13F4001F 		tst	r3, #2097152
 913 00a2 36D1     		bne	.L66
1260:Drivers/STM32F7xx_HAL_Driver/Src/stm32f7xx_ll_sdmmc.c ****   {
 914              		.loc 1 1260 8 is_stmt 1 view .LVU272
1260:Drivers/STM32F7xx_HAL_Driver/Src/stm32f7xx_ll_sdmmc.c ****   {
 915              		.loc 1 1260 10 is_stmt 0 view .LVU273
 916 00a4 13F4801F 		tst	r3, #1048576
 917 00a8 36D1     		bne	.L67
1264:Drivers/STM32F7xx_HAL_Driver/Src/stm32f7xx_ll_sdmmc.c ****   {
 918              		.loc 1 1264 8 is_stmt 1 view .LVU274
1264:Drivers/STM32F7xx_HAL_Driver/Src/stm32f7xx_ll_sdmmc.c ****   {
 919              		.loc 1 1264 10 is_stmt 0 view .LVU275
 920 00aa 13F4802F 		tst	r3, #262144
 921 00ae 36D1     		bne	.L68
1268:Drivers/STM32F7xx_HAL_Driver/Src/stm32f7xx_ll_sdmmc.c ****   {
 922              		.loc 1 1268 8 is_stmt 1 view .LVU276
1268:Drivers/STM32F7xx_HAL_Driver/Src/stm32f7xx_ll_sdmmc.c ****   {
 923              		.loc 1 1268 10 is_stmt 0 view .LVU277
 924 00b0 13F4003F 		tst	r3, #131072
 925 00b4 36D1     		bne	.L69
1272:Drivers/STM32F7xx_HAL_Driver/Src/stm32f7xx_ll_sdmmc.c ****   {
 926              		.loc 1 1272 8 is_stmt 1 view .LVU278
1272:Drivers/STM32F7xx_HAL_Driver/Src/stm32f7xx_ll_sdmmc.c ****   {
 927              		.loc 1 1272 10 is_stmt 0 view .LVU279
 928 00b6 13F4803F 		tst	r3, #65536
 929 00ba 36D1     		bne	.L70
1276:Drivers/STM32F7xx_HAL_Driver/Src/stm32f7xx_ll_sdmmc.c ****   {
 930              		.loc 1 1276 8 is_stmt 1 view .LVU280
1276:Drivers/STM32F7xx_HAL_Driver/Src/stm32f7xx_ll_sdmmc.c ****   {
 931              		.loc 1 1276 10 is_stmt 0 view .LVU281
 932 00bc 13F4004F 		tst	r3, #32768
 933 00c0 36D1     		bne	.L71
1280:Drivers/STM32F7xx_HAL_Driver/Src/stm32f7xx_ll_sdmmc.c ****   {
 934              		.loc 1 1280 8 is_stmt 1 view .LVU282
1280:Drivers/STM32F7xx_HAL_Driver/Src/stm32f7xx_ll_sdmmc.c ****   {
 935              		.loc 1 1280 10 is_stmt 0 view .LVU283
 936 00c2 13F4804F 		tst	r3, #16384
 937 00c6 36D1     		bne	.L72
1284:Drivers/STM32F7xx_HAL_Driver/Src/stm32f7xx_ll_sdmmc.c ****   {
 938              		.loc 1 1284 8 is_stmt 1 view .LVU284
1284:Drivers/STM32F7xx_HAL_Driver/Src/stm32f7xx_ll_sdmmc.c ****   {
 939              		.loc 1 1284 10 is_stmt 0 view .LVU285
 940 00c8 13F4005F 		tst	r3, #8192
 941 00cc 36D1     		bne	.L73
1288:Drivers/STM32F7xx_HAL_Driver/Src/stm32f7xx_ll_sdmmc.c ****   {
 942              		.loc 1 1288 8 is_stmt 1 view .LVU286
1288:Drivers/STM32F7xx_HAL_Driver/Src/stm32f7xx_ll_sdmmc.c ****   {
 943              		.loc 1 1288 10 is_stmt 0 view .LVU287
 944 00ce 13F0080F 		tst	r3, #8
 945 00d2 36D0     		beq	.L74
1290:Drivers/STM32F7xx_HAL_Driver/Src/stm32f7xx_ll_sdmmc.c ****   }
 946              		.loc 1 1290 12 view .LVU288
 947 00d4 4FF40000 		mov	r0, #8388608
ARM GAS  /tmp/ccPnSfMB.s 			page 47


 948 00d8 01E0     		b	.L50
 949              	.LVL83:
 950              	.L55:
1181:Drivers/STM32F7xx_HAL_Driver/Src/stm32f7xx_ll_sdmmc.c ****     }
 951              		.loc 1 1181 14 view .LVU289
 952 00da 4FF00040 		mov	r0, #-2147483648
 953              	.LVL84:
 954              	.L50:
1296:Drivers/STM32F7xx_HAL_Driver/Src/stm32f7xx_ll_sdmmc.c **** 
 955              		.loc 1 1296 1 view .LVU290
 956 00de 38BD     		pop	{r3, r4, r5, pc}
 957              	.LVL85:
 958              	.L57:
1222:Drivers/STM32F7xx_HAL_Driver/Src/stm32f7xx_ll_sdmmc.c ****   }
 959              		.loc 1 1222 12 view .LVU291
 960 00e0 4FF00070 		mov	r0, #33554432
 961 00e4 FBE7     		b	.L50
 962              	.L58:
1226:Drivers/STM32F7xx_HAL_Driver/Src/stm32f7xx_ll_sdmmc.c ****   }
 963              		.loc 1 1226 12 view .LVU292
 964 00e6 4020     		movs	r0, #64
 965 00e8 F9E7     		b	.L50
 966              	.L59:
1230:Drivers/STM32F7xx_HAL_Driver/Src/stm32f7xx_ll_sdmmc.c ****   }
 967              		.loc 1 1230 12 view .LVU293
 968 00ea 8020     		movs	r0, #128
 969 00ec F7E7     		b	.L50
 970              	.L60:
1234:Drivers/STM32F7xx_HAL_Driver/Src/stm32f7xx_ll_sdmmc.c ****   }
 971              		.loc 1 1234 12 view .LVU294
 972 00ee 4FF48070 		mov	r0, #256
 973 00f2 F4E7     		b	.L50
 974              	.L61:
1238:Drivers/STM32F7xx_HAL_Driver/Src/stm32f7xx_ll_sdmmc.c ****   }
 975              		.loc 1 1238 12 view .LVU295
 976 00f4 4FF40070 		mov	r0, #512
 977 00f8 F1E7     		b	.L50
 978              	.L62:
1242:Drivers/STM32F7xx_HAL_Driver/Src/stm32f7xx_ll_sdmmc.c ****   }
 979              		.loc 1 1242 12 view .LVU296
 980 00fa 4FF48060 		mov	r0, #1024
 981 00fe EEE7     		b	.L50
 982              	.L63:
1246:Drivers/STM32F7xx_HAL_Driver/Src/stm32f7xx_ll_sdmmc.c ****   }
 983              		.loc 1 1246 12 view .LVU297
 984 0100 4FF40060 		mov	r0, #2048
 985 0104 EBE7     		b	.L50
 986              	.L64:
1250:Drivers/STM32F7xx_HAL_Driver/Src/stm32f7xx_ll_sdmmc.c ****   }
 987              		.loc 1 1250 12 view .LVU298
 988 0106 4FF48050 		mov	r0, #4096
 989 010a E8E7     		b	.L50
 990              	.L65:
1254:Drivers/STM32F7xx_HAL_Driver/Src/stm32f7xx_ll_sdmmc.c ****   }
 991              		.loc 1 1254 12 view .LVU299
 992 010c 4FF40050 		mov	r0, #8192
 993 0110 E5E7     		b	.L50
ARM GAS  /tmp/ccPnSfMB.s 			page 48


 994              	.L66:
1258:Drivers/STM32F7xx_HAL_Driver/Src/stm32f7xx_ll_sdmmc.c ****   }
 995              		.loc 1 1258 12 view .LVU300
 996 0112 4FF48040 		mov	r0, #16384
 997 0116 E2E7     		b	.L50
 998              	.L67:
1262:Drivers/STM32F7xx_HAL_Driver/Src/stm32f7xx_ll_sdmmc.c ****   }
 999              		.loc 1 1262 12 view .LVU301
 1000 0118 4FF40040 		mov	r0, #32768
 1001 011c DFE7     		b	.L50
 1002              	.L68:
1266:Drivers/STM32F7xx_HAL_Driver/Src/stm32f7xx_ll_sdmmc.c ****   }
 1003              		.loc 1 1266 12 view .LVU302
 1004 011e 4FF40030 		mov	r0, #131072
 1005 0122 DCE7     		b	.L50
 1006              	.L69:
1270:Drivers/STM32F7xx_HAL_Driver/Src/stm32f7xx_ll_sdmmc.c ****   }
 1007              		.loc 1 1270 12 view .LVU303
 1008 0124 4FF48020 		mov	r0, #262144
 1009 0128 D9E7     		b	.L50
 1010              	.L70:
1274:Drivers/STM32F7xx_HAL_Driver/Src/stm32f7xx_ll_sdmmc.c ****   }
 1011              		.loc 1 1274 12 view .LVU304
 1012 012a 4FF40020 		mov	r0, #524288
 1013 012e D6E7     		b	.L50
 1014              	.L71:
1278:Drivers/STM32F7xx_HAL_Driver/Src/stm32f7xx_ll_sdmmc.c ****   }
 1015              		.loc 1 1278 12 view .LVU305
 1016 0130 4FF48010 		mov	r0, #1048576
 1017 0134 D3E7     		b	.L50
 1018              	.L72:
1282:Drivers/STM32F7xx_HAL_Driver/Src/stm32f7xx_ll_sdmmc.c ****   }
 1019              		.loc 1 1282 12 view .LVU306
 1020 0136 4FF40010 		mov	r0, #2097152
 1021 013a D0E7     		b	.L50
 1022              	.L73:
1286:Drivers/STM32F7xx_HAL_Driver/Src/stm32f7xx_ll_sdmmc.c ****   }
 1023              		.loc 1 1286 12 view .LVU307
 1024 013c 4FF48000 		mov	r0, #4194304
 1025 0140 CDE7     		b	.L50
 1026              	.L74:
1294:Drivers/STM32F7xx_HAL_Driver/Src/stm32f7xx_ll_sdmmc.c ****   }
 1027              		.loc 1 1294 12 view .LVU308
 1028 0142 4FF48030 		mov	r0, #65536
 1029 0146 CAE7     		b	.L50
 1030              	.L79:
 1031              		.align	2
 1032              	.L78:
 1033 0148 00000000 		.word	SystemCoreClock
 1034 014c D34D6210 		.word	274877907
 1035 0150 08E0FFFD 		.word	-33562616
 1036              		.cfi_endproc
 1037              	.LFE180:
 1039              		.section	.text.SDMMC_GetCmdResp6,"ax",%progbits
 1040              		.align	1
 1041              		.syntax unified
 1042              		.thumb
ARM GAS  /tmp/ccPnSfMB.s 			page 49


 1043              		.thumb_func
 1044              		.fpu fpv5-d16
 1046              	SDMMC_GetCmdResp6:
 1047              	.LVL86:
 1048              	.LFB183:
1388:Drivers/STM32F7xx_HAL_Driver/Src/stm32f7xx_ll_sdmmc.c ****   uint32_t response_r1;
 1049              		.loc 1 1388 1 is_stmt 1 view -0
 1050              		.cfi_startproc
 1051              		@ args = 0, pretend = 0, frame = 0
 1052              		@ frame_needed = 0, uses_anonymous_args = 0
1388:Drivers/STM32F7xx_HAL_Driver/Src/stm32f7xx_ll_sdmmc.c ****   uint32_t response_r1;
 1053              		.loc 1 1388 1 is_stmt 0 view .LVU310
 1054 0000 F8B5     		push	{r3, r4, r5, r6, r7, lr}
 1055              	.LCFI6:
 1056              		.cfi_def_cfa_offset 24
 1057              		.cfi_offset 3, -24
 1058              		.cfi_offset 4, -20
 1059              		.cfi_offset 5, -16
 1060              		.cfi_offset 6, -12
 1061              		.cfi_offset 7, -8
 1062              		.cfi_offset 14, -4
 1063 0002 0546     		mov	r5, r0
 1064 0004 0E46     		mov	r6, r1
 1065 0006 1746     		mov	r7, r2
1389:Drivers/STM32F7xx_HAL_Driver/Src/stm32f7xx_ll_sdmmc.c ****   uint32_t sta_reg;
 1066              		.loc 1 1389 3 is_stmt 1 view .LVU311
1390:Drivers/STM32F7xx_HAL_Driver/Src/stm32f7xx_ll_sdmmc.c **** 
 1067              		.loc 1 1390 3 view .LVU312
1394:Drivers/STM32F7xx_HAL_Driver/Src/stm32f7xx_ll_sdmmc.c ****   
 1068              		.loc 1 1394 3 view .LVU313
1394:Drivers/STM32F7xx_HAL_Driver/Src/stm32f7xx_ll_sdmmc.c ****   
 1069              		.loc 1 1394 70 is_stmt 0 view .LVU314
 1070 0008 234B     		ldr	r3, .L94
 1071 000a 1B68     		ldr	r3, [r3]
 1072 000c 2348     		ldr	r0, .L94+4
 1073              	.LVL87:
1394:Drivers/STM32F7xx_HAL_Driver/Src/stm32f7xx_ll_sdmmc.c ****   
 1074              		.loc 1 1394 70 view .LVU315
 1075 000e A0FB0323 		umull	r2, r3, r0, r3
 1076              	.LVL88:
1394:Drivers/STM32F7xx_HAL_Driver/Src/stm32f7xx_ll_sdmmc.c ****   
 1077              		.loc 1 1394 70 view .LVU316
 1078 0012 580A     		lsrs	r0, r3, #9
1394:Drivers/STM32F7xx_HAL_Driver/Src/stm32f7xx_ll_sdmmc.c ****   
 1079              		.loc 1 1394 21 view .LVU317
 1080 0014 41F28833 		movw	r3, #5000
 1081 0018 03FB00F3 		mul	r3, r3, r0
 1082              	.LVL89:
 1083              	.L82:
1396:Drivers/STM32F7xx_HAL_Driver/Src/stm32f7xx_ll_sdmmc.c ****   {
 1084              		.loc 1 1396 3 is_stmt 1 view .LVU318
1398:Drivers/STM32F7xx_HAL_Driver/Src/stm32f7xx_ll_sdmmc.c ****     {
 1085              		.loc 1 1398 5 view .LVU319
 1086 001c 1C46     		mov	r4, r3
1398:Drivers/STM32F7xx_HAL_Driver/Src/stm32f7xx_ll_sdmmc.c ****     {
 1087              		.loc 1 1398 14 is_stmt 0 view .LVU320
 1088 001e 013B     		subs	r3, r3, #1
ARM GAS  /tmp/ccPnSfMB.s 			page 50


 1089              	.LVL90:
1398:Drivers/STM32F7xx_HAL_Driver/Src/stm32f7xx_ll_sdmmc.c ****     {
 1090              		.loc 1 1398 8 view .LVU321
 1091 0020 8CB3     		cbz	r4, .L86
1402:Drivers/STM32F7xx_HAL_Driver/Src/stm32f7xx_ll_sdmmc.c ****   }while(((sta_reg & (SDMMC_FLAG_CCRCFAIL | SDMMC_FLAG_CMDREND | SDMMC_FLAG_CTIMEOUT)) == 0U) ||
 1092              		.loc 1 1402 5 is_stmt 1 view .LVU322
1402:Drivers/STM32F7xx_HAL_Driver/Src/stm32f7xx_ll_sdmmc.c ****   }while(((sta_reg & (SDMMC_FLAG_CCRCFAIL | SDMMC_FLAG_CMDREND | SDMMC_FLAG_CTIMEOUT)) == 0U) ||
 1093              		.loc 1 1402 13 is_stmt 0 view .LVU323
 1094 0022 6C6B     		ldr	r4, [r5, #52]
 1095              	.LVL91:
1403:Drivers/STM32F7xx_HAL_Driver/Src/stm32f7xx_ll_sdmmc.c ****          ((sta_reg & SDMMC_FLAG_CMDACT) != 0U ));
 1096              		.loc 1 1403 9 is_stmt 1 view .LVU324
1404:Drivers/STM32F7xx_HAL_Driver/Src/stm32f7xx_ll_sdmmc.c ****     
 1097              		.loc 1 1404 10 is_stmt 0 view .LVU325
 1098 0024 14F0450F 		tst	r4, #69
 1099 0028 F8D0     		beq	.L82
1403:Drivers/STM32F7xx_HAL_Driver/Src/stm32f7xx_ll_sdmmc.c ****          ((sta_reg & SDMMC_FLAG_CMDACT) != 0U ));
 1100              		.loc 1 1403 95 discriminator 1 view .LVU326
 1101 002a 14F4006F 		tst	r4, #2048
 1102 002e F5D1     		bne	.L82
1406:Drivers/STM32F7xx_HAL_Driver/Src/stm32f7xx_ll_sdmmc.c ****   {
 1103              		.loc 1 1406 3 is_stmt 1 view .LVU327
1406:Drivers/STM32F7xx_HAL_Driver/Src/stm32f7xx_ll_sdmmc.c ****   {
 1104              		.loc 1 1406 6 is_stmt 0 view .LVU328
 1105 0030 6B6B     		ldr	r3, [r5, #52]
 1106              	.LVL92:
1406:Drivers/STM32F7xx_HAL_Driver/Src/stm32f7xx_ll_sdmmc.c ****   {
 1107              		.loc 1 1406 5 view .LVU329
 1108 0032 13F0040F 		tst	r3, #4
 1109 0036 06D1     		bne	.L91
1412:Drivers/STM32F7xx_HAL_Driver/Src/stm32f7xx_ll_sdmmc.c ****   {
 1110              		.loc 1 1412 8 is_stmt 1 view .LVU330
1412:Drivers/STM32F7xx_HAL_Driver/Src/stm32f7xx_ll_sdmmc.c ****   {
 1111              		.loc 1 1412 11 is_stmt 0 view .LVU331
 1112 0038 6B6B     		ldr	r3, [r5, #52]
1412:Drivers/STM32F7xx_HAL_Driver/Src/stm32f7xx_ll_sdmmc.c ****   {
 1113              		.loc 1 1412 10 view .LVU332
 1114 003a 13F0010F 		tst	r3, #1
 1115 003e 05D0     		beq	.L84
1414:Drivers/STM32F7xx_HAL_Driver/Src/stm32f7xx_ll_sdmmc.c ****     
 1116              		.loc 1 1414 5 is_stmt 1 view .LVU333
 1117 0040 0120     		movs	r0, #1
 1118 0042 A863     		str	r0, [r5, #56]
1416:Drivers/STM32F7xx_HAL_Driver/Src/stm32f7xx_ll_sdmmc.c ****   }
 1119              		.loc 1 1416 5 view .LVU334
1416:Drivers/STM32F7xx_HAL_Driver/Src/stm32f7xx_ll_sdmmc.c ****   }
 1120              		.loc 1 1416 12 is_stmt 0 view .LVU335
 1121 0044 21E0     		b	.L80
 1122              	.L91:
1408:Drivers/STM32F7xx_HAL_Driver/Src/stm32f7xx_ll_sdmmc.c ****     
 1123              		.loc 1 1408 5 is_stmt 1 view .LVU336
 1124 0046 0420     		movs	r0, #4
 1125 0048 A863     		str	r0, [r5, #56]
1410:Drivers/STM32F7xx_HAL_Driver/Src/stm32f7xx_ll_sdmmc.c ****   }
 1126              		.loc 1 1410 5 view .LVU337
1410:Drivers/STM32F7xx_HAL_Driver/Src/stm32f7xx_ll_sdmmc.c ****   }
 1127              		.loc 1 1410 12 is_stmt 0 view .LVU338
ARM GAS  /tmp/ccPnSfMB.s 			page 51


 1128 004a 1EE0     		b	.L80
 1129              	.L84:
1421:Drivers/STM32F7xx_HAL_Driver/Src/stm32f7xx_ll_sdmmc.c ****   
 1130              		.loc 1 1421 3 is_stmt 1 view .LVU339
1424:Drivers/STM32F7xx_HAL_Driver/Src/stm32f7xx_ll_sdmmc.c ****   {
 1131              		.loc 1 1424 3 view .LVU340
1424:Drivers/STM32F7xx_HAL_Driver/Src/stm32f7xx_ll_sdmmc.c ****   {
 1132              		.loc 1 1424 6 is_stmt 0 view .LVU341
 1133 004c 2846     		mov	r0, r5
 1134 004e FFF7FEFF 		bl	SDMMC_GetCommandResponse
 1135              	.LVL93:
1424:Drivers/STM32F7xx_HAL_Driver/Src/stm32f7xx_ll_sdmmc.c ****   {
 1136              		.loc 1 1424 5 view .LVU342
 1137 0052 B042     		cmp	r0, r6
 1138 0054 01D0     		beq	.L92
1426:Drivers/STM32F7xx_HAL_Driver/Src/stm32f7xx_ll_sdmmc.c ****   }
 1139              		.loc 1 1426 12 view .LVU343
 1140 0056 0120     		movs	r0, #1
 1141 0058 17E0     		b	.L80
 1142              	.L92:
1430:Drivers/STM32F7xx_HAL_Driver/Src/stm32f7xx_ll_sdmmc.c ****   
 1143              		.loc 1 1430 3 is_stmt 1 view .LVU344
 1144 005a C523     		movs	r3, #197
 1145 005c AB63     		str	r3, [r5, #56]
1433:Drivers/STM32F7xx_HAL_Driver/Src/stm32f7xx_ll_sdmmc.c ****   
 1146              		.loc 1 1433 3 view .LVU345
1433:Drivers/STM32F7xx_HAL_Driver/Src/stm32f7xx_ll_sdmmc.c ****   
 1147              		.loc 1 1433 17 is_stmt 0 view .LVU346
 1148 005e 0021     		movs	r1, #0
 1149 0060 2846     		mov	r0, r5
 1150 0062 FFF7FEFF 		bl	SDMMC_GetResponse
 1151              	.LVL94:
 1152 0066 0346     		mov	r3, r0
 1153              	.LVL95:
1435:Drivers/STM32F7xx_HAL_Driver/Src/stm32f7xx_ll_sdmmc.c ****   {
 1154              		.loc 1 1435 3 is_stmt 1 view .LVU347
1435:Drivers/STM32F7xx_HAL_Driver/Src/stm32f7xx_ll_sdmmc.c ****   {
 1155              		.loc 1 1435 5 is_stmt 0 view .LVU348
 1156 0068 10F46040 		ands	r0, r0, #57344
 1157              	.LVL96:
1435:Drivers/STM32F7xx_HAL_Driver/Src/stm32f7xx_ll_sdmmc.c ****   {
 1158              		.loc 1 1435 5 view .LVU349
 1159 006c 08D0     		beq	.L93
1441:Drivers/STM32F7xx_HAL_Driver/Src/stm32f7xx_ll_sdmmc.c ****   {
 1160              		.loc 1 1441 8 is_stmt 1 view .LVU350
1441:Drivers/STM32F7xx_HAL_Driver/Src/stm32f7xx_ll_sdmmc.c ****   {
 1161              		.loc 1 1441 10 is_stmt 0 view .LVU351
 1162 006e 13F4804F 		tst	r3, #16384
 1163 0072 0BD1     		bne	.L88
1445:Drivers/STM32F7xx_HAL_Driver/Src/stm32f7xx_ll_sdmmc.c ****   {
 1164              		.loc 1 1445 8 is_stmt 1 view .LVU352
1445:Drivers/STM32F7xx_HAL_Driver/Src/stm32f7xx_ll_sdmmc.c ****   {
 1165              		.loc 1 1445 10 is_stmt 0 view .LVU353
 1166 0074 13F4004F 		tst	r3, #32768
 1167 0078 0BD0     		beq	.L89
1447:Drivers/STM32F7xx_HAL_Driver/Src/stm32f7xx_ll_sdmmc.c ****   }
 1168              		.loc 1 1447 12 view .LVU354
ARM GAS  /tmp/ccPnSfMB.s 			page 52


 1169 007a 4FF48050 		mov	r0, #4096
 1170 007e 04E0     		b	.L80
 1171              	.L93:
1437:Drivers/STM32F7xx_HAL_Driver/Src/stm32f7xx_ll_sdmmc.c ****     
 1172              		.loc 1 1437 5 is_stmt 1 view .LVU355
1437:Drivers/STM32F7xx_HAL_Driver/Src/stm32f7xx_ll_sdmmc.c ****     
 1173              		.loc 1 1437 13 is_stmt 0 view .LVU356
 1174 0080 1B0C     		lsrs	r3, r3, #16
 1175              	.LVL97:
1437:Drivers/STM32F7xx_HAL_Driver/Src/stm32f7xx_ll_sdmmc.c ****     
 1176              		.loc 1 1437 11 view .LVU357
 1177 0082 3B80     		strh	r3, [r7]	@ movhi
1439:Drivers/STM32F7xx_HAL_Driver/Src/stm32f7xx_ll_sdmmc.c ****   }
 1178              		.loc 1 1439 5 is_stmt 1 view .LVU358
1439:Drivers/STM32F7xx_HAL_Driver/Src/stm32f7xx_ll_sdmmc.c ****   }
 1179              		.loc 1 1439 12 is_stmt 0 view .LVU359
 1180 0084 01E0     		b	.L80
 1181              	.LVL98:
 1182              	.L86:
1400:Drivers/STM32F7xx_HAL_Driver/Src/stm32f7xx_ll_sdmmc.c ****     }
 1183              		.loc 1 1400 14 view .LVU360
 1184 0086 4FF00040 		mov	r0, #-2147483648
 1185              	.LVL99:
 1186              	.L80:
1453:Drivers/STM32F7xx_HAL_Driver/Src/stm32f7xx_ll_sdmmc.c **** 
 1187              		.loc 1 1453 1 view .LVU361
 1188 008a F8BD     		pop	{r3, r4, r5, r6, r7, pc}
 1189              	.LVL100:
 1190              	.L88:
1443:Drivers/STM32F7xx_HAL_Driver/Src/stm32f7xx_ll_sdmmc.c ****   }
 1191              		.loc 1 1443 12 view .LVU362
 1192 008c 4FF40050 		mov	r0, #8192
 1193 0090 FBE7     		b	.L80
 1194              	.L89:
1451:Drivers/STM32F7xx_HAL_Driver/Src/stm32f7xx_ll_sdmmc.c ****   }
 1195              		.loc 1 1451 12 view .LVU363
 1196 0092 4FF48030 		mov	r0, #65536
 1197 0096 F8E7     		b	.L80
 1198              	.L95:
 1199              		.align	2
 1200              	.L94:
 1201 0098 00000000 		.word	SystemCoreClock
 1202 009c D34D6210 		.word	274877907
 1203              		.cfi_endproc
 1204              	.LFE183:
 1206              		.section	.text.SDMMC_ConfigData,"ax",%progbits
 1207              		.align	1
 1208              		.global	SDMMC_ConfigData
 1209              		.syntax unified
 1210              		.thumb
 1211              		.thumb_func
 1212              		.fpu fpv5-d16
 1214              	SDMMC_ConfigData:
 1215              	.LVL101:
 1216              	.LFB150:
 425:Drivers/STM32F7xx_HAL_Driver/Src/stm32f7xx_ll_sdmmc.c ****   uint32_t tmpreg = 0;
 1217              		.loc 1 425 1 is_stmt 1 view -0
ARM GAS  /tmp/ccPnSfMB.s 			page 53


 1218              		.cfi_startproc
 1219              		@ args = 0, pretend = 0, frame = 0
 1220              		@ frame_needed = 0, uses_anonymous_args = 0
 1221              		@ link register save eliminated.
 426:Drivers/STM32F7xx_HAL_Driver/Src/stm32f7xx_ll_sdmmc.c ****   
 1222              		.loc 1 426 3 view .LVU365
 429:Drivers/STM32F7xx_HAL_Driver/Src/stm32f7xx_ll_sdmmc.c ****   assert_param(IS_SDMMC_BLOCK_SIZE(Data->DataBlockSize));
 1223              		.loc 1 429 3 view .LVU366
 430:Drivers/STM32F7xx_HAL_Driver/Src/stm32f7xx_ll_sdmmc.c ****   assert_param(IS_SDMMC_TRANSFER_DIR(Data->TransferDir));
 1224              		.loc 1 430 3 view .LVU367
 431:Drivers/STM32F7xx_HAL_Driver/Src/stm32f7xx_ll_sdmmc.c ****   assert_param(IS_SDMMC_TRANSFER_MODE(Data->TransferMode));
 1225              		.loc 1 431 3 view .LVU368
 432:Drivers/STM32F7xx_HAL_Driver/Src/stm32f7xx_ll_sdmmc.c ****   assert_param(IS_SDMMC_DPSM(Data->DPSM));
 1226              		.loc 1 432 3 view .LVU369
 433:Drivers/STM32F7xx_HAL_Driver/Src/stm32f7xx_ll_sdmmc.c **** 
 1227              		.loc 1 433 3 view .LVU370
 436:Drivers/STM32F7xx_HAL_Driver/Src/stm32f7xx_ll_sdmmc.c **** 
 1228              		.loc 1 436 3 view .LVU371
 436:Drivers/STM32F7xx_HAL_Driver/Src/stm32f7xx_ll_sdmmc.c **** 
 1229              		.loc 1 436 24 is_stmt 0 view .LVU372
 1230 0000 0B68     		ldr	r3, [r1]
 436:Drivers/STM32F7xx_HAL_Driver/Src/stm32f7xx_ll_sdmmc.c **** 
 1231              		.loc 1 436 18 view .LVU373
 1232 0002 4362     		str	r3, [r0, #36]
 439:Drivers/STM32F7xx_HAL_Driver/Src/stm32f7xx_ll_sdmmc.c **** 
 1233              		.loc 1 439 3 is_stmt 1 view .LVU374
 439:Drivers/STM32F7xx_HAL_Driver/Src/stm32f7xx_ll_sdmmc.c **** 
 1234              		.loc 1 439 22 is_stmt 0 view .LVU375
 1235 0004 4B68     		ldr	r3, [r1, #4]
 439:Drivers/STM32F7xx_HAL_Driver/Src/stm32f7xx_ll_sdmmc.c **** 
 1236              		.loc 1 439 16 view .LVU376
 1237 0006 8362     		str	r3, [r0, #40]
 442:Drivers/STM32F7xx_HAL_Driver/Src/stm32f7xx_ll_sdmmc.c ****                        Data->TransferDir   |\
 1238              		.loc 1 442 3 is_stmt 1 view .LVU377
 442:Drivers/STM32F7xx_HAL_Driver/Src/stm32f7xx_ll_sdmmc.c ****                        Data->TransferDir   |\
 1239              		.loc 1 442 28 is_stmt 0 view .LVU378
 1240 0008 8B68     		ldr	r3, [r1, #8]
 443:Drivers/STM32F7xx_HAL_Driver/Src/stm32f7xx_ll_sdmmc.c ****                        Data->TransferMode  |\
 1241              		.loc 1 443 28 view .LVU379
 1242 000a CA68     		ldr	r2, [r1, #12]
 442:Drivers/STM32F7xx_HAL_Driver/Src/stm32f7xx_ll_sdmmc.c ****                        Data->TransferDir   |\
 1243              		.loc 1 442 44 view .LVU380
 1244 000c 1343     		orrs	r3, r3, r2
 444:Drivers/STM32F7xx_HAL_Driver/Src/stm32f7xx_ll_sdmmc.c ****                        Data->DPSM);
 1245              		.loc 1 444 28 view .LVU381
 1246 000e 0A69     		ldr	r2, [r1, #16]
 443:Drivers/STM32F7xx_HAL_Driver/Src/stm32f7xx_ll_sdmmc.c ****                        Data->TransferMode  |\
 1247              		.loc 1 443 44 view .LVU382
 1248 0010 1343     		orrs	r3, r3, r2
 445:Drivers/STM32F7xx_HAL_Driver/Src/stm32f7xx_ll_sdmmc.c ****   
 1249              		.loc 1 445 28 view .LVU383
 1250 0012 4A69     		ldr	r2, [r1, #20]
 444:Drivers/STM32F7xx_HAL_Driver/Src/stm32f7xx_ll_sdmmc.c ****                        Data->DPSM);
 1251              		.loc 1 444 44 view .LVU384
 1252 0014 1343     		orrs	r3, r3, r2
 1253              	.LVL102:
 448:Drivers/STM32F7xx_HAL_Driver/Src/stm32f7xx_ll_sdmmc.c **** 
ARM GAS  /tmp/ccPnSfMB.s 			page 54


 1254              		.loc 1 448 3 is_stmt 1 view .LVU385
 1255 0016 C26A     		ldr	r2, [r0, #44]
 1256 0018 22F0F702 		bic	r2, r2, #247
 1257 001c 1343     		orrs	r3, r3, r2
 1258              	.LVL103:
 448:Drivers/STM32F7xx_HAL_Driver/Src/stm32f7xx_ll_sdmmc.c **** 
 1259              		.loc 1 448 3 is_stmt 0 view .LVU386
 1260 001e C362     		str	r3, [r0, #44]
 1261              	.LVL104:
 450:Drivers/STM32F7xx_HAL_Driver/Src/stm32f7xx_ll_sdmmc.c **** 
 1262              		.loc 1 450 3 is_stmt 1 view .LVU387
 452:Drivers/STM32F7xx_HAL_Driver/Src/stm32f7xx_ll_sdmmc.c **** 
 1263              		.loc 1 452 1 is_stmt 0 view .LVU388
 1264 0020 0020     		movs	r0, #0
 1265              	.LVL105:
 452:Drivers/STM32F7xx_HAL_Driver/Src/stm32f7xx_ll_sdmmc.c **** 
 1266              		.loc 1 452 1 view .LVU389
 1267 0022 7047     		bx	lr
 1268              		.cfi_endproc
 1269              	.LFE150:
 1271              		.section	.text.SDMMC_GetDataCounter,"ax",%progbits
 1272              		.align	1
 1273              		.global	SDMMC_GetDataCounter
 1274              		.syntax unified
 1275              		.thumb
 1276              		.thumb_func
 1277              		.fpu fpv5-d16
 1279              	SDMMC_GetDataCounter:
 1280              	.LVL106:
 1281              	.LFB151:
 460:Drivers/STM32F7xx_HAL_Driver/Src/stm32f7xx_ll_sdmmc.c ****   return (SDMMCx->DCOUNT);
 1282              		.loc 1 460 1 is_stmt 1 view -0
 1283              		.cfi_startproc
 1284              		@ args = 0, pretend = 0, frame = 0
 1285              		@ frame_needed = 0, uses_anonymous_args = 0
 1286              		@ link register save eliminated.
 461:Drivers/STM32F7xx_HAL_Driver/Src/stm32f7xx_ll_sdmmc.c **** }
 1287              		.loc 1 461 3 view .LVU391
 461:Drivers/STM32F7xx_HAL_Driver/Src/stm32f7xx_ll_sdmmc.c **** }
 1288              		.loc 1 461 17 is_stmt 0 view .LVU392
 1289 0000 006B     		ldr	r0, [r0, #48]
 1290              	.LVL107:
 462:Drivers/STM32F7xx_HAL_Driver/Src/stm32f7xx_ll_sdmmc.c **** 
 1291              		.loc 1 462 1 view .LVU393
 1292 0002 7047     		bx	lr
 1293              		.cfi_endproc
 1294              	.LFE151:
 1296              		.section	.text.SDMMC_GetFIFOCount,"ax",%progbits
 1297              		.align	1
 1298              		.global	SDMMC_GetFIFOCount
 1299              		.syntax unified
 1300              		.thumb
 1301              		.thumb_func
 1302              		.fpu fpv5-d16
 1304              	SDMMC_GetFIFOCount:
 1305              	.LVL108:
 1306              	.LFB152:
ARM GAS  /tmp/ccPnSfMB.s 			page 55


 470:Drivers/STM32F7xx_HAL_Driver/Src/stm32f7xx_ll_sdmmc.c ****   return (SDMMCx->FIFO);
 1307              		.loc 1 470 1 is_stmt 1 view -0
 1308              		.cfi_startproc
 1309              		@ args = 0, pretend = 0, frame = 0
 1310              		@ frame_needed = 0, uses_anonymous_args = 0
 1311              		@ link register save eliminated.
 471:Drivers/STM32F7xx_HAL_Driver/Src/stm32f7xx_ll_sdmmc.c **** }
 1312              		.loc 1 471 3 view .LVU395
 471:Drivers/STM32F7xx_HAL_Driver/Src/stm32f7xx_ll_sdmmc.c **** }
 1313              		.loc 1 471 17 is_stmt 0 view .LVU396
 1314 0000 D0F88000 		ldr	r0, [r0, #128]
 1315              	.LVL109:
 472:Drivers/STM32F7xx_HAL_Driver/Src/stm32f7xx_ll_sdmmc.c **** 
 1316              		.loc 1 472 1 view .LVU397
 1317 0004 7047     		bx	lr
 1318              		.cfi_endproc
 1319              	.LFE152:
 1321              		.section	.text.SDMMC_SetSDMMCReadWaitMode,"ax",%progbits
 1322              		.align	1
 1323              		.global	SDMMC_SetSDMMCReadWaitMode
 1324              		.syntax unified
 1325              		.thumb
 1326              		.thumb_func
 1327              		.fpu fpv5-d16
 1329              	SDMMC_SetSDMMCReadWaitMode:
 1330              	.LVL110:
 1331              	.LFB153:
 484:Drivers/STM32F7xx_HAL_Driver/Src/stm32f7xx_ll_sdmmc.c ****   /* Check the parameters */
 1332              		.loc 1 484 1 is_stmt 1 view -0
 1333              		.cfi_startproc
 1334              		@ args = 0, pretend = 0, frame = 0
 1335              		@ frame_needed = 0, uses_anonymous_args = 0
 1336              		@ link register save eliminated.
 486:Drivers/STM32F7xx_HAL_Driver/Src/stm32f7xx_ll_sdmmc.c **** 
 1337              		.loc 1 486 3 view .LVU399
 489:Drivers/STM32F7xx_HAL_Driver/Src/stm32f7xx_ll_sdmmc.c ****   
 1338              		.loc 1 489 3 view .LVU400
 1339 0000 C36A     		ldr	r3, [r0, #44]
 1340 0002 23F48063 		bic	r3, r3, #1024
 1341 0006 0B43     		orrs	r3, r3, r1
 1342 0008 C362     		str	r3, [r0, #44]
 491:Drivers/STM32F7xx_HAL_Driver/Src/stm32f7xx_ll_sdmmc.c **** }
 1343              		.loc 1 491 3 view .LVU401
 492:Drivers/STM32F7xx_HAL_Driver/Src/stm32f7xx_ll_sdmmc.c **** 
 1344              		.loc 1 492 1 is_stmt 0 view .LVU402
 1345 000a 0020     		movs	r0, #0
 1346              	.LVL111:
 492:Drivers/STM32F7xx_HAL_Driver/Src/stm32f7xx_ll_sdmmc.c **** 
 1347              		.loc 1 492 1 view .LVU403
 1348 000c 7047     		bx	lr
 1349              		.cfi_endproc
 1350              	.LFE153:
 1352              		.section	.text.SDMMC_CmdBlockLength,"ax",%progbits
 1353              		.align	1
 1354              		.global	SDMMC_CmdBlockLength
 1355              		.syntax unified
 1356              		.thumb
ARM GAS  /tmp/ccPnSfMB.s 			page 56


 1357              		.thumb_func
 1358              		.fpu fpv5-d16
 1360              	SDMMC_CmdBlockLength:
 1361              	.LVL112:
 1362              	.LFB154:
 519:Drivers/STM32F7xx_HAL_Driver/Src/stm32f7xx_ll_sdmmc.c ****   SDMMC_CmdInitTypeDef  sdmmc_cmdinit;
 1363              		.loc 1 519 1 is_stmt 1 view -0
 1364              		.cfi_startproc
 1365              		@ args = 0, pretend = 0, frame = 24
 1366              		@ frame_needed = 0, uses_anonymous_args = 0
 519:Drivers/STM32F7xx_HAL_Driver/Src/stm32f7xx_ll_sdmmc.c ****   SDMMC_CmdInitTypeDef  sdmmc_cmdinit;
 1367              		.loc 1 519 1 is_stmt 0 view .LVU405
 1368 0000 30B5     		push	{r4, r5, lr}
 1369              	.LCFI7:
 1370              		.cfi_def_cfa_offset 12
 1371              		.cfi_offset 4, -12
 1372              		.cfi_offset 5, -8
 1373              		.cfi_offset 14, -4
 1374 0002 87B0     		sub	sp, sp, #28
 1375              	.LCFI8:
 1376              		.cfi_def_cfa_offset 40
 1377 0004 0446     		mov	r4, r0
 520:Drivers/STM32F7xx_HAL_Driver/Src/stm32f7xx_ll_sdmmc.c ****   uint32_t errorstate;
 1378              		.loc 1 520 3 is_stmt 1 view .LVU406
 521:Drivers/STM32F7xx_HAL_Driver/Src/stm32f7xx_ll_sdmmc.c ****   
 1379              		.loc 1 521 3 view .LVU407
 524:Drivers/STM32F7xx_HAL_Driver/Src/stm32f7xx_ll_sdmmc.c ****   sdmmc_cmdinit.CmdIndex         = SDMMC_CMD_SET_BLOCKLEN;
 1380              		.loc 1 524 3 view .LVU408
 524:Drivers/STM32F7xx_HAL_Driver/Src/stm32f7xx_ll_sdmmc.c ****   sdmmc_cmdinit.CmdIndex         = SDMMC_CMD_SET_BLOCKLEN;
 1381              		.loc 1 524 34 is_stmt 0 view .LVU409
 1382 0006 0191     		str	r1, [sp, #4]
 525:Drivers/STM32F7xx_HAL_Driver/Src/stm32f7xx_ll_sdmmc.c ****   sdmmc_cmdinit.Response         = SDMMC_RESPONSE_SHORT;
 1383              		.loc 1 525 3 is_stmt 1 view .LVU410
 525:Drivers/STM32F7xx_HAL_Driver/Src/stm32f7xx_ll_sdmmc.c ****   sdmmc_cmdinit.Response         = SDMMC_RESPONSE_SHORT;
 1384              		.loc 1 525 34 is_stmt 0 view .LVU411
 1385 0008 1025     		movs	r5, #16
 1386 000a 0295     		str	r5, [sp, #8]
 526:Drivers/STM32F7xx_HAL_Driver/Src/stm32f7xx_ll_sdmmc.c ****   sdmmc_cmdinit.WaitForInterrupt = SDMMC_WAIT_NO;
 1387              		.loc 1 526 3 is_stmt 1 view .LVU412
 526:Drivers/STM32F7xx_HAL_Driver/Src/stm32f7xx_ll_sdmmc.c ****   sdmmc_cmdinit.WaitForInterrupt = SDMMC_WAIT_NO;
 1388              		.loc 1 526 34 is_stmt 0 view .LVU413
 1389 000c 4023     		movs	r3, #64
 1390 000e 0393     		str	r3, [sp, #12]
 527:Drivers/STM32F7xx_HAL_Driver/Src/stm32f7xx_ll_sdmmc.c ****   sdmmc_cmdinit.CPSM             = SDMMC_CPSM_ENABLE;
 1391              		.loc 1 527 3 is_stmt 1 view .LVU414
 527:Drivers/STM32F7xx_HAL_Driver/Src/stm32f7xx_ll_sdmmc.c ****   sdmmc_cmdinit.CPSM             = SDMMC_CPSM_ENABLE;
 1392              		.loc 1 527 34 is_stmt 0 view .LVU415
 1393 0010 0023     		movs	r3, #0
 1394 0012 0493     		str	r3, [sp, #16]
 528:Drivers/STM32F7xx_HAL_Driver/Src/stm32f7xx_ll_sdmmc.c ****   (void)SDMMC_SendCommand(SDMMCx, &sdmmc_cmdinit);
 1395              		.loc 1 528 3 is_stmt 1 view .LVU416
 528:Drivers/STM32F7xx_HAL_Driver/Src/stm32f7xx_ll_sdmmc.c ****   (void)SDMMC_SendCommand(SDMMCx, &sdmmc_cmdinit);
 1396              		.loc 1 528 34 is_stmt 0 view .LVU417
 1397 0014 4FF48063 		mov	r3, #1024
 1398 0018 0593     		str	r3, [sp, #20]
 529:Drivers/STM32F7xx_HAL_Driver/Src/stm32f7xx_ll_sdmmc.c ****   
 1399              		.loc 1 529 3 is_stmt 1 view .LVU418
ARM GAS  /tmp/ccPnSfMB.s 			page 57


 529:Drivers/STM32F7xx_HAL_Driver/Src/stm32f7xx_ll_sdmmc.c ****   
 1400              		.loc 1 529 9 is_stmt 0 view .LVU419
 1401 001a 01A9     		add	r1, sp, #4
 1402              	.LVL113:
 529:Drivers/STM32F7xx_HAL_Driver/Src/stm32f7xx_ll_sdmmc.c ****   
 1403              		.loc 1 529 9 view .LVU420
 1404 001c FFF7FEFF 		bl	SDMMC_SendCommand
 1405              	.LVL114:
 532:Drivers/STM32F7xx_HAL_Driver/Src/stm32f7xx_ll_sdmmc.c **** 
 1406              		.loc 1 532 3 is_stmt 1 view .LVU421
 532:Drivers/STM32F7xx_HAL_Driver/Src/stm32f7xx_ll_sdmmc.c **** 
 1407              		.loc 1 532 16 is_stmt 0 view .LVU422
 1408 0020 41F28832 		movw	r2, #5000
 1409 0024 2946     		mov	r1, r5
 1410 0026 2046     		mov	r0, r4
 1411 0028 FFF7FEFF 		bl	SDMMC_GetCmdResp1
 1412              	.LVL115:
 534:Drivers/STM32F7xx_HAL_Driver/Src/stm32f7xx_ll_sdmmc.c **** }
 1413              		.loc 1 534 3 is_stmt 1 view .LVU423
 535:Drivers/STM32F7xx_HAL_Driver/Src/stm32f7xx_ll_sdmmc.c **** 
 1414              		.loc 1 535 1 is_stmt 0 view .LVU424
 1415 002c 07B0     		add	sp, sp, #28
 1416              	.LCFI9:
 1417              		.cfi_def_cfa_offset 12
 1418              		@ sp needed
 1419 002e 30BD     		pop	{r4, r5, pc}
 535:Drivers/STM32F7xx_HAL_Driver/Src/stm32f7xx_ll_sdmmc.c **** 
 1420              		.loc 1 535 1 view .LVU425
 1421              		.cfi_endproc
 1422              	.LFE154:
 1424              		.section	.text.SDMMC_CmdReadSingleBlock,"ax",%progbits
 1425              		.align	1
 1426              		.global	SDMMC_CmdReadSingleBlock
 1427              		.syntax unified
 1428              		.thumb
 1429              		.thumb_func
 1430              		.fpu fpv5-d16
 1432              	SDMMC_CmdReadSingleBlock:
 1433              	.LVL116:
 1434              	.LFB155:
 543:Drivers/STM32F7xx_HAL_Driver/Src/stm32f7xx_ll_sdmmc.c ****   SDMMC_CmdInitTypeDef  sdmmc_cmdinit;
 1435              		.loc 1 543 1 is_stmt 1 view -0
 1436              		.cfi_startproc
 1437              		@ args = 0, pretend = 0, frame = 24
 1438              		@ frame_needed = 0, uses_anonymous_args = 0
 543:Drivers/STM32F7xx_HAL_Driver/Src/stm32f7xx_ll_sdmmc.c ****   SDMMC_CmdInitTypeDef  sdmmc_cmdinit;
 1439              		.loc 1 543 1 is_stmt 0 view .LVU427
 1440 0000 30B5     		push	{r4, r5, lr}
 1441              	.LCFI10:
 1442              		.cfi_def_cfa_offset 12
 1443              		.cfi_offset 4, -12
 1444              		.cfi_offset 5, -8
 1445              		.cfi_offset 14, -4
 1446 0002 87B0     		sub	sp, sp, #28
 1447              	.LCFI11:
 1448              		.cfi_def_cfa_offset 40
 1449 0004 0446     		mov	r4, r0
ARM GAS  /tmp/ccPnSfMB.s 			page 58


 544:Drivers/STM32F7xx_HAL_Driver/Src/stm32f7xx_ll_sdmmc.c ****   uint32_t errorstate;
 1450              		.loc 1 544 3 is_stmt 1 view .LVU428
 545:Drivers/STM32F7xx_HAL_Driver/Src/stm32f7xx_ll_sdmmc.c ****   
 1451              		.loc 1 545 3 view .LVU429
 548:Drivers/STM32F7xx_HAL_Driver/Src/stm32f7xx_ll_sdmmc.c ****   sdmmc_cmdinit.CmdIndex         = SDMMC_CMD_READ_SINGLE_BLOCK;
 1452              		.loc 1 548 3 view .LVU430
 548:Drivers/STM32F7xx_HAL_Driver/Src/stm32f7xx_ll_sdmmc.c ****   sdmmc_cmdinit.CmdIndex         = SDMMC_CMD_READ_SINGLE_BLOCK;
 1453              		.loc 1 548 34 is_stmt 0 view .LVU431
 1454 0006 0191     		str	r1, [sp, #4]
 549:Drivers/STM32F7xx_HAL_Driver/Src/stm32f7xx_ll_sdmmc.c ****   sdmmc_cmdinit.Response         = SDMMC_RESPONSE_SHORT;
 1455              		.loc 1 549 3 is_stmt 1 view .LVU432
 549:Drivers/STM32F7xx_HAL_Driver/Src/stm32f7xx_ll_sdmmc.c ****   sdmmc_cmdinit.Response         = SDMMC_RESPONSE_SHORT;
 1456              		.loc 1 549 34 is_stmt 0 view .LVU433
 1457 0008 1125     		movs	r5, #17
 1458 000a 0295     		str	r5, [sp, #8]
 550:Drivers/STM32F7xx_HAL_Driver/Src/stm32f7xx_ll_sdmmc.c ****   sdmmc_cmdinit.WaitForInterrupt = SDMMC_WAIT_NO;
 1459              		.loc 1 550 3 is_stmt 1 view .LVU434
 550:Drivers/STM32F7xx_HAL_Driver/Src/stm32f7xx_ll_sdmmc.c ****   sdmmc_cmdinit.WaitForInterrupt = SDMMC_WAIT_NO;
 1460              		.loc 1 550 34 is_stmt 0 view .LVU435
 1461 000c 4023     		movs	r3, #64
 1462 000e 0393     		str	r3, [sp, #12]
 551:Drivers/STM32F7xx_HAL_Driver/Src/stm32f7xx_ll_sdmmc.c ****   sdmmc_cmdinit.CPSM             = SDMMC_CPSM_ENABLE;
 1463              		.loc 1 551 3 is_stmt 1 view .LVU436
 551:Drivers/STM32F7xx_HAL_Driver/Src/stm32f7xx_ll_sdmmc.c ****   sdmmc_cmdinit.CPSM             = SDMMC_CPSM_ENABLE;
 1464              		.loc 1 551 34 is_stmt 0 view .LVU437
 1465 0010 0023     		movs	r3, #0
 1466 0012 0493     		str	r3, [sp, #16]
 552:Drivers/STM32F7xx_HAL_Driver/Src/stm32f7xx_ll_sdmmc.c ****   (void)SDMMC_SendCommand(SDMMCx, &sdmmc_cmdinit);
 1467              		.loc 1 552 3 is_stmt 1 view .LVU438
 552:Drivers/STM32F7xx_HAL_Driver/Src/stm32f7xx_ll_sdmmc.c ****   (void)SDMMC_SendCommand(SDMMCx, &sdmmc_cmdinit);
 1468              		.loc 1 552 34 is_stmt 0 view .LVU439
 1469 0014 4FF48063 		mov	r3, #1024
 1470 0018 0593     		str	r3, [sp, #20]
 553:Drivers/STM32F7xx_HAL_Driver/Src/stm32f7xx_ll_sdmmc.c ****   
 1471              		.loc 1 553 3 is_stmt 1 view .LVU440
 553:Drivers/STM32F7xx_HAL_Driver/Src/stm32f7xx_ll_sdmmc.c ****   
 1472              		.loc 1 553 9 is_stmt 0 view .LVU441
 1473 001a 01A9     		add	r1, sp, #4
 1474              	.LVL117:
 553:Drivers/STM32F7xx_HAL_Driver/Src/stm32f7xx_ll_sdmmc.c ****   
 1475              		.loc 1 553 9 view .LVU442
 1476 001c FFF7FEFF 		bl	SDMMC_SendCommand
 1477              	.LVL118:
 556:Drivers/STM32F7xx_HAL_Driver/Src/stm32f7xx_ll_sdmmc.c **** 
 1478              		.loc 1 556 3 is_stmt 1 view .LVU443
 556:Drivers/STM32F7xx_HAL_Driver/Src/stm32f7xx_ll_sdmmc.c **** 
 1479              		.loc 1 556 16 is_stmt 0 view .LVU444
 1480 0020 41F28832 		movw	r2, #5000
 1481 0024 2946     		mov	r1, r5
 1482 0026 2046     		mov	r0, r4
 1483 0028 FFF7FEFF 		bl	SDMMC_GetCmdResp1
 1484              	.LVL119:
 558:Drivers/STM32F7xx_HAL_Driver/Src/stm32f7xx_ll_sdmmc.c **** }
 1485              		.loc 1 558 3 is_stmt 1 view .LVU445
 559:Drivers/STM32F7xx_HAL_Driver/Src/stm32f7xx_ll_sdmmc.c **** 
 1486              		.loc 1 559 1 is_stmt 0 view .LVU446
 1487 002c 07B0     		add	sp, sp, #28
ARM GAS  /tmp/ccPnSfMB.s 			page 59


 1488              	.LCFI12:
 1489              		.cfi_def_cfa_offset 12
 1490              		@ sp needed
 1491 002e 30BD     		pop	{r4, r5, pc}
 559:Drivers/STM32F7xx_HAL_Driver/Src/stm32f7xx_ll_sdmmc.c **** 
 1492              		.loc 1 559 1 view .LVU447
 1493              		.cfi_endproc
 1494              	.LFE155:
 1496              		.section	.text.SDMMC_CmdReadMultiBlock,"ax",%progbits
 1497              		.align	1
 1498              		.global	SDMMC_CmdReadMultiBlock
 1499              		.syntax unified
 1500              		.thumb
 1501              		.thumb_func
 1502              		.fpu fpv5-d16
 1504              	SDMMC_CmdReadMultiBlock:
 1505              	.LVL120:
 1506              	.LFB156:
 567:Drivers/STM32F7xx_HAL_Driver/Src/stm32f7xx_ll_sdmmc.c ****   SDMMC_CmdInitTypeDef  sdmmc_cmdinit;
 1507              		.loc 1 567 1 is_stmt 1 view -0
 1508              		.cfi_startproc
 1509              		@ args = 0, pretend = 0, frame = 24
 1510              		@ frame_needed = 0, uses_anonymous_args = 0
 567:Drivers/STM32F7xx_HAL_Driver/Src/stm32f7xx_ll_sdmmc.c ****   SDMMC_CmdInitTypeDef  sdmmc_cmdinit;
 1511              		.loc 1 567 1 is_stmt 0 view .LVU449
 1512 0000 30B5     		push	{r4, r5, lr}
 1513              	.LCFI13:
 1514              		.cfi_def_cfa_offset 12
 1515              		.cfi_offset 4, -12
 1516              		.cfi_offset 5, -8
 1517              		.cfi_offset 14, -4
 1518 0002 87B0     		sub	sp, sp, #28
 1519              	.LCFI14:
 1520              		.cfi_def_cfa_offset 40
 1521 0004 0446     		mov	r4, r0
 568:Drivers/STM32F7xx_HAL_Driver/Src/stm32f7xx_ll_sdmmc.c ****   uint32_t errorstate;
 1522              		.loc 1 568 3 is_stmt 1 view .LVU450
 569:Drivers/STM32F7xx_HAL_Driver/Src/stm32f7xx_ll_sdmmc.c ****   
 1523              		.loc 1 569 3 view .LVU451
 572:Drivers/STM32F7xx_HAL_Driver/Src/stm32f7xx_ll_sdmmc.c ****   sdmmc_cmdinit.CmdIndex         = SDMMC_CMD_READ_MULT_BLOCK;
 1524              		.loc 1 572 3 view .LVU452
 572:Drivers/STM32F7xx_HAL_Driver/Src/stm32f7xx_ll_sdmmc.c ****   sdmmc_cmdinit.CmdIndex         = SDMMC_CMD_READ_MULT_BLOCK;
 1525              		.loc 1 572 34 is_stmt 0 view .LVU453
 1526 0006 0191     		str	r1, [sp, #4]
 573:Drivers/STM32F7xx_HAL_Driver/Src/stm32f7xx_ll_sdmmc.c ****   sdmmc_cmdinit.Response         = SDMMC_RESPONSE_SHORT;
 1527              		.loc 1 573 3 is_stmt 1 view .LVU454
 573:Drivers/STM32F7xx_HAL_Driver/Src/stm32f7xx_ll_sdmmc.c ****   sdmmc_cmdinit.Response         = SDMMC_RESPONSE_SHORT;
 1528              		.loc 1 573 34 is_stmt 0 view .LVU455
 1529 0008 1225     		movs	r5, #18
 1530 000a 0295     		str	r5, [sp, #8]
 574:Drivers/STM32F7xx_HAL_Driver/Src/stm32f7xx_ll_sdmmc.c ****   sdmmc_cmdinit.WaitForInterrupt = SDMMC_WAIT_NO;
 1531              		.loc 1 574 3 is_stmt 1 view .LVU456
 574:Drivers/STM32F7xx_HAL_Driver/Src/stm32f7xx_ll_sdmmc.c ****   sdmmc_cmdinit.WaitForInterrupt = SDMMC_WAIT_NO;
 1532              		.loc 1 574 34 is_stmt 0 view .LVU457
 1533 000c 4023     		movs	r3, #64
 1534 000e 0393     		str	r3, [sp, #12]
 575:Drivers/STM32F7xx_HAL_Driver/Src/stm32f7xx_ll_sdmmc.c ****   sdmmc_cmdinit.CPSM             = SDMMC_CPSM_ENABLE;
ARM GAS  /tmp/ccPnSfMB.s 			page 60


 1535              		.loc 1 575 3 is_stmt 1 view .LVU458
 575:Drivers/STM32F7xx_HAL_Driver/Src/stm32f7xx_ll_sdmmc.c ****   sdmmc_cmdinit.CPSM             = SDMMC_CPSM_ENABLE;
 1536              		.loc 1 575 34 is_stmt 0 view .LVU459
 1537 0010 0023     		movs	r3, #0
 1538 0012 0493     		str	r3, [sp, #16]
 576:Drivers/STM32F7xx_HAL_Driver/Src/stm32f7xx_ll_sdmmc.c ****   (void)SDMMC_SendCommand(SDMMCx, &sdmmc_cmdinit);
 1539              		.loc 1 576 3 is_stmt 1 view .LVU460
 576:Drivers/STM32F7xx_HAL_Driver/Src/stm32f7xx_ll_sdmmc.c ****   (void)SDMMC_SendCommand(SDMMCx, &sdmmc_cmdinit);
 1540              		.loc 1 576 34 is_stmt 0 view .LVU461
 1541 0014 4FF48063 		mov	r3, #1024
 1542 0018 0593     		str	r3, [sp, #20]
 577:Drivers/STM32F7xx_HAL_Driver/Src/stm32f7xx_ll_sdmmc.c ****   
 1543              		.loc 1 577 3 is_stmt 1 view .LVU462
 577:Drivers/STM32F7xx_HAL_Driver/Src/stm32f7xx_ll_sdmmc.c ****   
 1544              		.loc 1 577 9 is_stmt 0 view .LVU463
 1545 001a 01A9     		add	r1, sp, #4
 1546              	.LVL121:
 577:Drivers/STM32F7xx_HAL_Driver/Src/stm32f7xx_ll_sdmmc.c ****   
 1547              		.loc 1 577 9 view .LVU464
 1548 001c FFF7FEFF 		bl	SDMMC_SendCommand
 1549              	.LVL122:
 580:Drivers/STM32F7xx_HAL_Driver/Src/stm32f7xx_ll_sdmmc.c **** 
 1550              		.loc 1 580 3 is_stmt 1 view .LVU465
 580:Drivers/STM32F7xx_HAL_Driver/Src/stm32f7xx_ll_sdmmc.c **** 
 1551              		.loc 1 580 16 is_stmt 0 view .LVU466
 1552 0020 41F28832 		movw	r2, #5000
 1553 0024 2946     		mov	r1, r5
 1554 0026 2046     		mov	r0, r4
 1555 0028 FFF7FEFF 		bl	SDMMC_GetCmdResp1
 1556              	.LVL123:
 582:Drivers/STM32F7xx_HAL_Driver/Src/stm32f7xx_ll_sdmmc.c **** }
 1557              		.loc 1 582 3 is_stmt 1 view .LVU467
 583:Drivers/STM32F7xx_HAL_Driver/Src/stm32f7xx_ll_sdmmc.c **** 
 1558              		.loc 1 583 1 is_stmt 0 view .LVU468
 1559 002c 07B0     		add	sp, sp, #28
 1560              	.LCFI15:
 1561              		.cfi_def_cfa_offset 12
 1562              		@ sp needed
 1563 002e 30BD     		pop	{r4, r5, pc}
 583:Drivers/STM32F7xx_HAL_Driver/Src/stm32f7xx_ll_sdmmc.c **** 
 1564              		.loc 1 583 1 view .LVU469
 1565              		.cfi_endproc
 1566              	.LFE156:
 1568              		.section	.text.SDMMC_CmdWriteSingleBlock,"ax",%progbits
 1569              		.align	1
 1570              		.global	SDMMC_CmdWriteSingleBlock
 1571              		.syntax unified
 1572              		.thumb
 1573              		.thumb_func
 1574              		.fpu fpv5-d16
 1576              	SDMMC_CmdWriteSingleBlock:
 1577              	.LVL124:
 1578              	.LFB157:
 591:Drivers/STM32F7xx_HAL_Driver/Src/stm32f7xx_ll_sdmmc.c ****   SDMMC_CmdInitTypeDef  sdmmc_cmdinit;
 1579              		.loc 1 591 1 is_stmt 1 view -0
 1580              		.cfi_startproc
 1581              		@ args = 0, pretend = 0, frame = 24
ARM GAS  /tmp/ccPnSfMB.s 			page 61


 1582              		@ frame_needed = 0, uses_anonymous_args = 0
 591:Drivers/STM32F7xx_HAL_Driver/Src/stm32f7xx_ll_sdmmc.c ****   SDMMC_CmdInitTypeDef  sdmmc_cmdinit;
 1583              		.loc 1 591 1 is_stmt 0 view .LVU471
 1584 0000 30B5     		push	{r4, r5, lr}
 1585              	.LCFI16:
 1586              		.cfi_def_cfa_offset 12
 1587              		.cfi_offset 4, -12
 1588              		.cfi_offset 5, -8
 1589              		.cfi_offset 14, -4
 1590 0002 87B0     		sub	sp, sp, #28
 1591              	.LCFI17:
 1592              		.cfi_def_cfa_offset 40
 1593 0004 0446     		mov	r4, r0
 592:Drivers/STM32F7xx_HAL_Driver/Src/stm32f7xx_ll_sdmmc.c ****   uint32_t errorstate;
 1594              		.loc 1 592 3 is_stmt 1 view .LVU472
 593:Drivers/STM32F7xx_HAL_Driver/Src/stm32f7xx_ll_sdmmc.c ****   
 1595              		.loc 1 593 3 view .LVU473
 596:Drivers/STM32F7xx_HAL_Driver/Src/stm32f7xx_ll_sdmmc.c ****   sdmmc_cmdinit.CmdIndex         = SDMMC_CMD_WRITE_SINGLE_BLOCK;
 1596              		.loc 1 596 3 view .LVU474
 596:Drivers/STM32F7xx_HAL_Driver/Src/stm32f7xx_ll_sdmmc.c ****   sdmmc_cmdinit.CmdIndex         = SDMMC_CMD_WRITE_SINGLE_BLOCK;
 1597              		.loc 1 596 34 is_stmt 0 view .LVU475
 1598 0006 0191     		str	r1, [sp, #4]
 597:Drivers/STM32F7xx_HAL_Driver/Src/stm32f7xx_ll_sdmmc.c ****   sdmmc_cmdinit.Response         = SDMMC_RESPONSE_SHORT;
 1599              		.loc 1 597 3 is_stmt 1 view .LVU476
 597:Drivers/STM32F7xx_HAL_Driver/Src/stm32f7xx_ll_sdmmc.c ****   sdmmc_cmdinit.Response         = SDMMC_RESPONSE_SHORT;
 1600              		.loc 1 597 34 is_stmt 0 view .LVU477
 1601 0008 1825     		movs	r5, #24
 1602 000a 0295     		str	r5, [sp, #8]
 598:Drivers/STM32F7xx_HAL_Driver/Src/stm32f7xx_ll_sdmmc.c ****   sdmmc_cmdinit.WaitForInterrupt = SDMMC_WAIT_NO;
 1603              		.loc 1 598 3 is_stmt 1 view .LVU478
 598:Drivers/STM32F7xx_HAL_Driver/Src/stm32f7xx_ll_sdmmc.c ****   sdmmc_cmdinit.WaitForInterrupt = SDMMC_WAIT_NO;
 1604              		.loc 1 598 34 is_stmt 0 view .LVU479
 1605 000c 4023     		movs	r3, #64
 1606 000e 0393     		str	r3, [sp, #12]
 599:Drivers/STM32F7xx_HAL_Driver/Src/stm32f7xx_ll_sdmmc.c ****   sdmmc_cmdinit.CPSM             = SDMMC_CPSM_ENABLE;
 1607              		.loc 1 599 3 is_stmt 1 view .LVU480
 599:Drivers/STM32F7xx_HAL_Driver/Src/stm32f7xx_ll_sdmmc.c ****   sdmmc_cmdinit.CPSM             = SDMMC_CPSM_ENABLE;
 1608              		.loc 1 599 34 is_stmt 0 view .LVU481
 1609 0010 0023     		movs	r3, #0
 1610 0012 0493     		str	r3, [sp, #16]
 600:Drivers/STM32F7xx_HAL_Driver/Src/stm32f7xx_ll_sdmmc.c ****   (void)SDMMC_SendCommand(SDMMCx, &sdmmc_cmdinit);
 1611              		.loc 1 600 3 is_stmt 1 view .LVU482
 600:Drivers/STM32F7xx_HAL_Driver/Src/stm32f7xx_ll_sdmmc.c ****   (void)SDMMC_SendCommand(SDMMCx, &sdmmc_cmdinit);
 1612              		.loc 1 600 34 is_stmt 0 view .LVU483
 1613 0014 4FF48063 		mov	r3, #1024
 1614 0018 0593     		str	r3, [sp, #20]
 601:Drivers/STM32F7xx_HAL_Driver/Src/stm32f7xx_ll_sdmmc.c ****   
 1615              		.loc 1 601 3 is_stmt 1 view .LVU484
 601:Drivers/STM32F7xx_HAL_Driver/Src/stm32f7xx_ll_sdmmc.c ****   
 1616              		.loc 1 601 9 is_stmt 0 view .LVU485
 1617 001a 01A9     		add	r1, sp, #4
 1618              	.LVL125:
 601:Drivers/STM32F7xx_HAL_Driver/Src/stm32f7xx_ll_sdmmc.c ****   
 1619              		.loc 1 601 9 view .LVU486
 1620 001c FFF7FEFF 		bl	SDMMC_SendCommand
 1621              	.LVL126:
 604:Drivers/STM32F7xx_HAL_Driver/Src/stm32f7xx_ll_sdmmc.c **** 
ARM GAS  /tmp/ccPnSfMB.s 			page 62


 1622              		.loc 1 604 3 is_stmt 1 view .LVU487
 604:Drivers/STM32F7xx_HAL_Driver/Src/stm32f7xx_ll_sdmmc.c **** 
 1623              		.loc 1 604 16 is_stmt 0 view .LVU488
 1624 0020 41F28832 		movw	r2, #5000
 1625 0024 2946     		mov	r1, r5
 1626 0026 2046     		mov	r0, r4
 1627 0028 FFF7FEFF 		bl	SDMMC_GetCmdResp1
 1628              	.LVL127:
 606:Drivers/STM32F7xx_HAL_Driver/Src/stm32f7xx_ll_sdmmc.c **** }
 1629              		.loc 1 606 3 is_stmt 1 view .LVU489
 607:Drivers/STM32F7xx_HAL_Driver/Src/stm32f7xx_ll_sdmmc.c **** 
 1630              		.loc 1 607 1 is_stmt 0 view .LVU490
 1631 002c 07B0     		add	sp, sp, #28
 1632              	.LCFI18:
 1633              		.cfi_def_cfa_offset 12
 1634              		@ sp needed
 1635 002e 30BD     		pop	{r4, r5, pc}
 607:Drivers/STM32F7xx_HAL_Driver/Src/stm32f7xx_ll_sdmmc.c **** 
 1636              		.loc 1 607 1 view .LVU491
 1637              		.cfi_endproc
 1638              	.LFE157:
 1640              		.section	.text.SDMMC_CmdWriteMultiBlock,"ax",%progbits
 1641              		.align	1
 1642              		.global	SDMMC_CmdWriteMultiBlock
 1643              		.syntax unified
 1644              		.thumb
 1645              		.thumb_func
 1646              		.fpu fpv5-d16
 1648              	SDMMC_CmdWriteMultiBlock:
 1649              	.LVL128:
 1650              	.LFB158:
 615:Drivers/STM32F7xx_HAL_Driver/Src/stm32f7xx_ll_sdmmc.c ****   SDMMC_CmdInitTypeDef  sdmmc_cmdinit;
 1651              		.loc 1 615 1 is_stmt 1 view -0
 1652              		.cfi_startproc
 1653              		@ args = 0, pretend = 0, frame = 24
 1654              		@ frame_needed = 0, uses_anonymous_args = 0
 615:Drivers/STM32F7xx_HAL_Driver/Src/stm32f7xx_ll_sdmmc.c ****   SDMMC_CmdInitTypeDef  sdmmc_cmdinit;
 1655              		.loc 1 615 1 is_stmt 0 view .LVU493
 1656 0000 30B5     		push	{r4, r5, lr}
 1657              	.LCFI19:
 1658              		.cfi_def_cfa_offset 12
 1659              		.cfi_offset 4, -12
 1660              		.cfi_offset 5, -8
 1661              		.cfi_offset 14, -4
 1662 0002 87B0     		sub	sp, sp, #28
 1663              	.LCFI20:
 1664              		.cfi_def_cfa_offset 40
 1665 0004 0446     		mov	r4, r0
 616:Drivers/STM32F7xx_HAL_Driver/Src/stm32f7xx_ll_sdmmc.c ****   uint32_t errorstate;
 1666              		.loc 1 616 3 is_stmt 1 view .LVU494
 617:Drivers/STM32F7xx_HAL_Driver/Src/stm32f7xx_ll_sdmmc.c ****   
 1667              		.loc 1 617 3 view .LVU495
 620:Drivers/STM32F7xx_HAL_Driver/Src/stm32f7xx_ll_sdmmc.c ****   sdmmc_cmdinit.CmdIndex         = SDMMC_CMD_WRITE_MULT_BLOCK;
 1668              		.loc 1 620 3 view .LVU496
 620:Drivers/STM32F7xx_HAL_Driver/Src/stm32f7xx_ll_sdmmc.c ****   sdmmc_cmdinit.CmdIndex         = SDMMC_CMD_WRITE_MULT_BLOCK;
 1669              		.loc 1 620 34 is_stmt 0 view .LVU497
 1670 0006 0191     		str	r1, [sp, #4]
ARM GAS  /tmp/ccPnSfMB.s 			page 63


 621:Drivers/STM32F7xx_HAL_Driver/Src/stm32f7xx_ll_sdmmc.c ****   sdmmc_cmdinit.Response         = SDMMC_RESPONSE_SHORT;
 1671              		.loc 1 621 3 is_stmt 1 view .LVU498
 621:Drivers/STM32F7xx_HAL_Driver/Src/stm32f7xx_ll_sdmmc.c ****   sdmmc_cmdinit.Response         = SDMMC_RESPONSE_SHORT;
 1672              		.loc 1 621 34 is_stmt 0 view .LVU499
 1673 0008 1925     		movs	r5, #25
 1674 000a 0295     		str	r5, [sp, #8]
 622:Drivers/STM32F7xx_HAL_Driver/Src/stm32f7xx_ll_sdmmc.c ****   sdmmc_cmdinit.WaitForInterrupt = SDMMC_WAIT_NO;
 1675              		.loc 1 622 3 is_stmt 1 view .LVU500
 622:Drivers/STM32F7xx_HAL_Driver/Src/stm32f7xx_ll_sdmmc.c ****   sdmmc_cmdinit.WaitForInterrupt = SDMMC_WAIT_NO;
 1676              		.loc 1 622 34 is_stmt 0 view .LVU501
 1677 000c 4023     		movs	r3, #64
 1678 000e 0393     		str	r3, [sp, #12]
 623:Drivers/STM32F7xx_HAL_Driver/Src/stm32f7xx_ll_sdmmc.c ****   sdmmc_cmdinit.CPSM             = SDMMC_CPSM_ENABLE;
 1679              		.loc 1 623 3 is_stmt 1 view .LVU502
 623:Drivers/STM32F7xx_HAL_Driver/Src/stm32f7xx_ll_sdmmc.c ****   sdmmc_cmdinit.CPSM             = SDMMC_CPSM_ENABLE;
 1680              		.loc 1 623 34 is_stmt 0 view .LVU503
 1681 0010 0023     		movs	r3, #0
 1682 0012 0493     		str	r3, [sp, #16]
 624:Drivers/STM32F7xx_HAL_Driver/Src/stm32f7xx_ll_sdmmc.c ****   (void)SDMMC_SendCommand(SDMMCx, &sdmmc_cmdinit);
 1683              		.loc 1 624 3 is_stmt 1 view .LVU504
 624:Drivers/STM32F7xx_HAL_Driver/Src/stm32f7xx_ll_sdmmc.c ****   (void)SDMMC_SendCommand(SDMMCx, &sdmmc_cmdinit);
 1684              		.loc 1 624 34 is_stmt 0 view .LVU505
 1685 0014 4FF48063 		mov	r3, #1024
 1686 0018 0593     		str	r3, [sp, #20]
 625:Drivers/STM32F7xx_HAL_Driver/Src/stm32f7xx_ll_sdmmc.c ****   
 1687              		.loc 1 625 3 is_stmt 1 view .LVU506
 625:Drivers/STM32F7xx_HAL_Driver/Src/stm32f7xx_ll_sdmmc.c ****   
 1688              		.loc 1 625 9 is_stmt 0 view .LVU507
 1689 001a 01A9     		add	r1, sp, #4
 1690              	.LVL129:
 625:Drivers/STM32F7xx_HAL_Driver/Src/stm32f7xx_ll_sdmmc.c ****   
 1691              		.loc 1 625 9 view .LVU508
 1692 001c FFF7FEFF 		bl	SDMMC_SendCommand
 1693              	.LVL130:
 628:Drivers/STM32F7xx_HAL_Driver/Src/stm32f7xx_ll_sdmmc.c **** 
 1694              		.loc 1 628 3 is_stmt 1 view .LVU509
 628:Drivers/STM32F7xx_HAL_Driver/Src/stm32f7xx_ll_sdmmc.c **** 
 1695              		.loc 1 628 16 is_stmt 0 view .LVU510
 1696 0020 41F28832 		movw	r2, #5000
 1697 0024 2946     		mov	r1, r5
 1698 0026 2046     		mov	r0, r4
 1699 0028 FFF7FEFF 		bl	SDMMC_GetCmdResp1
 1700              	.LVL131:
 630:Drivers/STM32F7xx_HAL_Driver/Src/stm32f7xx_ll_sdmmc.c **** }
 1701              		.loc 1 630 3 is_stmt 1 view .LVU511
 631:Drivers/STM32F7xx_HAL_Driver/Src/stm32f7xx_ll_sdmmc.c **** 
 1702              		.loc 1 631 1 is_stmt 0 view .LVU512
 1703 002c 07B0     		add	sp, sp, #28
 1704              	.LCFI21:
 1705              		.cfi_def_cfa_offset 12
 1706              		@ sp needed
 1707 002e 30BD     		pop	{r4, r5, pc}
 631:Drivers/STM32F7xx_HAL_Driver/Src/stm32f7xx_ll_sdmmc.c **** 
 1708              		.loc 1 631 1 view .LVU513
 1709              		.cfi_endproc
 1710              	.LFE158:
 1712              		.section	.text.SDMMC_CmdSDEraseStartAdd,"ax",%progbits
ARM GAS  /tmp/ccPnSfMB.s 			page 64


 1713              		.align	1
 1714              		.global	SDMMC_CmdSDEraseStartAdd
 1715              		.syntax unified
 1716              		.thumb
 1717              		.thumb_func
 1718              		.fpu fpv5-d16
 1720              	SDMMC_CmdSDEraseStartAdd:
 1721              	.LVL132:
 1722              	.LFB159:
 639:Drivers/STM32F7xx_HAL_Driver/Src/stm32f7xx_ll_sdmmc.c ****   SDMMC_CmdInitTypeDef  sdmmc_cmdinit;
 1723              		.loc 1 639 1 is_stmt 1 view -0
 1724              		.cfi_startproc
 1725              		@ args = 0, pretend = 0, frame = 24
 1726              		@ frame_needed = 0, uses_anonymous_args = 0
 639:Drivers/STM32F7xx_HAL_Driver/Src/stm32f7xx_ll_sdmmc.c ****   SDMMC_CmdInitTypeDef  sdmmc_cmdinit;
 1727              		.loc 1 639 1 is_stmt 0 view .LVU515
 1728 0000 30B5     		push	{r4, r5, lr}
 1729              	.LCFI22:
 1730              		.cfi_def_cfa_offset 12
 1731              		.cfi_offset 4, -12
 1732              		.cfi_offset 5, -8
 1733              		.cfi_offset 14, -4
 1734 0002 87B0     		sub	sp, sp, #28
 1735              	.LCFI23:
 1736              		.cfi_def_cfa_offset 40
 1737 0004 0446     		mov	r4, r0
 640:Drivers/STM32F7xx_HAL_Driver/Src/stm32f7xx_ll_sdmmc.c ****   uint32_t errorstate;
 1738              		.loc 1 640 3 is_stmt 1 view .LVU516
 641:Drivers/STM32F7xx_HAL_Driver/Src/stm32f7xx_ll_sdmmc.c ****   
 1739              		.loc 1 641 3 view .LVU517
 644:Drivers/STM32F7xx_HAL_Driver/Src/stm32f7xx_ll_sdmmc.c ****   sdmmc_cmdinit.CmdIndex         = SDMMC_CMD_SD_ERASE_GRP_START;
 1740              		.loc 1 644 3 view .LVU518
 644:Drivers/STM32F7xx_HAL_Driver/Src/stm32f7xx_ll_sdmmc.c ****   sdmmc_cmdinit.CmdIndex         = SDMMC_CMD_SD_ERASE_GRP_START;
 1741              		.loc 1 644 34 is_stmt 0 view .LVU519
 1742 0006 0191     		str	r1, [sp, #4]
 645:Drivers/STM32F7xx_HAL_Driver/Src/stm32f7xx_ll_sdmmc.c ****   sdmmc_cmdinit.Response         = SDMMC_RESPONSE_SHORT;
 1743              		.loc 1 645 3 is_stmt 1 view .LVU520
 645:Drivers/STM32F7xx_HAL_Driver/Src/stm32f7xx_ll_sdmmc.c ****   sdmmc_cmdinit.Response         = SDMMC_RESPONSE_SHORT;
 1744              		.loc 1 645 34 is_stmt 0 view .LVU521
 1745 0008 2025     		movs	r5, #32
 1746 000a 0295     		str	r5, [sp, #8]
 646:Drivers/STM32F7xx_HAL_Driver/Src/stm32f7xx_ll_sdmmc.c ****   sdmmc_cmdinit.WaitForInterrupt = SDMMC_WAIT_NO;
 1747              		.loc 1 646 3 is_stmt 1 view .LVU522
 646:Drivers/STM32F7xx_HAL_Driver/Src/stm32f7xx_ll_sdmmc.c ****   sdmmc_cmdinit.WaitForInterrupt = SDMMC_WAIT_NO;
 1748              		.loc 1 646 34 is_stmt 0 view .LVU523
 1749 000c 4023     		movs	r3, #64
 1750 000e 0393     		str	r3, [sp, #12]
 647:Drivers/STM32F7xx_HAL_Driver/Src/stm32f7xx_ll_sdmmc.c ****   sdmmc_cmdinit.CPSM             = SDMMC_CPSM_ENABLE;
 1751              		.loc 1 647 3 is_stmt 1 view .LVU524
 647:Drivers/STM32F7xx_HAL_Driver/Src/stm32f7xx_ll_sdmmc.c ****   sdmmc_cmdinit.CPSM             = SDMMC_CPSM_ENABLE;
 1752              		.loc 1 647 34 is_stmt 0 view .LVU525
 1753 0010 0023     		movs	r3, #0
 1754 0012 0493     		str	r3, [sp, #16]
 648:Drivers/STM32F7xx_HAL_Driver/Src/stm32f7xx_ll_sdmmc.c ****   (void)SDMMC_SendCommand(SDMMCx, &sdmmc_cmdinit);
 1755              		.loc 1 648 3 is_stmt 1 view .LVU526
 648:Drivers/STM32F7xx_HAL_Driver/Src/stm32f7xx_ll_sdmmc.c ****   (void)SDMMC_SendCommand(SDMMCx, &sdmmc_cmdinit);
 1756              		.loc 1 648 34 is_stmt 0 view .LVU527
ARM GAS  /tmp/ccPnSfMB.s 			page 65


 1757 0014 4FF48063 		mov	r3, #1024
 1758 0018 0593     		str	r3, [sp, #20]
 649:Drivers/STM32F7xx_HAL_Driver/Src/stm32f7xx_ll_sdmmc.c ****   
 1759              		.loc 1 649 3 is_stmt 1 view .LVU528
 649:Drivers/STM32F7xx_HAL_Driver/Src/stm32f7xx_ll_sdmmc.c ****   
 1760              		.loc 1 649 9 is_stmt 0 view .LVU529
 1761 001a 01A9     		add	r1, sp, #4
 1762              	.LVL133:
 649:Drivers/STM32F7xx_HAL_Driver/Src/stm32f7xx_ll_sdmmc.c ****   
 1763              		.loc 1 649 9 view .LVU530
 1764 001c FFF7FEFF 		bl	SDMMC_SendCommand
 1765              	.LVL134:
 652:Drivers/STM32F7xx_HAL_Driver/Src/stm32f7xx_ll_sdmmc.c **** 
 1766              		.loc 1 652 3 is_stmt 1 view .LVU531
 652:Drivers/STM32F7xx_HAL_Driver/Src/stm32f7xx_ll_sdmmc.c **** 
 1767              		.loc 1 652 16 is_stmt 0 view .LVU532
 1768 0020 41F28832 		movw	r2, #5000
 1769 0024 2946     		mov	r1, r5
 1770 0026 2046     		mov	r0, r4
 1771 0028 FFF7FEFF 		bl	SDMMC_GetCmdResp1
 1772              	.LVL135:
 654:Drivers/STM32F7xx_HAL_Driver/Src/stm32f7xx_ll_sdmmc.c **** }
 1773              		.loc 1 654 3 is_stmt 1 view .LVU533
 655:Drivers/STM32F7xx_HAL_Driver/Src/stm32f7xx_ll_sdmmc.c **** 
 1774              		.loc 1 655 1 is_stmt 0 view .LVU534
 1775 002c 07B0     		add	sp, sp, #28
 1776              	.LCFI24:
 1777              		.cfi_def_cfa_offset 12
 1778              		@ sp needed
 1779 002e 30BD     		pop	{r4, r5, pc}
 655:Drivers/STM32F7xx_HAL_Driver/Src/stm32f7xx_ll_sdmmc.c **** 
 1780              		.loc 1 655 1 view .LVU535
 1781              		.cfi_endproc
 1782              	.LFE159:
 1784              		.section	.text.SDMMC_CmdSDEraseEndAdd,"ax",%progbits
 1785              		.align	1
 1786              		.global	SDMMC_CmdSDEraseEndAdd
 1787              		.syntax unified
 1788              		.thumb
 1789              		.thumb_func
 1790              		.fpu fpv5-d16
 1792              	SDMMC_CmdSDEraseEndAdd:
 1793              	.LVL136:
 1794              	.LFB160:
 663:Drivers/STM32F7xx_HAL_Driver/Src/stm32f7xx_ll_sdmmc.c ****   SDMMC_CmdInitTypeDef  sdmmc_cmdinit;
 1795              		.loc 1 663 1 is_stmt 1 view -0
 1796              		.cfi_startproc
 1797              		@ args = 0, pretend = 0, frame = 24
 1798              		@ frame_needed = 0, uses_anonymous_args = 0
 663:Drivers/STM32F7xx_HAL_Driver/Src/stm32f7xx_ll_sdmmc.c ****   SDMMC_CmdInitTypeDef  sdmmc_cmdinit;
 1799              		.loc 1 663 1 is_stmt 0 view .LVU537
 1800 0000 30B5     		push	{r4, r5, lr}
 1801              	.LCFI25:
 1802              		.cfi_def_cfa_offset 12
 1803              		.cfi_offset 4, -12
 1804              		.cfi_offset 5, -8
 1805              		.cfi_offset 14, -4
ARM GAS  /tmp/ccPnSfMB.s 			page 66


 1806 0002 87B0     		sub	sp, sp, #28
 1807              	.LCFI26:
 1808              		.cfi_def_cfa_offset 40
 1809 0004 0446     		mov	r4, r0
 664:Drivers/STM32F7xx_HAL_Driver/Src/stm32f7xx_ll_sdmmc.c ****   uint32_t errorstate;
 1810              		.loc 1 664 3 is_stmt 1 view .LVU538
 665:Drivers/STM32F7xx_HAL_Driver/Src/stm32f7xx_ll_sdmmc.c ****   
 1811              		.loc 1 665 3 view .LVU539
 668:Drivers/STM32F7xx_HAL_Driver/Src/stm32f7xx_ll_sdmmc.c ****   sdmmc_cmdinit.CmdIndex         = SDMMC_CMD_SD_ERASE_GRP_END;
 1812              		.loc 1 668 3 view .LVU540
 668:Drivers/STM32F7xx_HAL_Driver/Src/stm32f7xx_ll_sdmmc.c ****   sdmmc_cmdinit.CmdIndex         = SDMMC_CMD_SD_ERASE_GRP_END;
 1813              		.loc 1 668 34 is_stmt 0 view .LVU541
 1814 0006 0191     		str	r1, [sp, #4]
 669:Drivers/STM32F7xx_HAL_Driver/Src/stm32f7xx_ll_sdmmc.c ****   sdmmc_cmdinit.Response         = SDMMC_RESPONSE_SHORT;
 1815              		.loc 1 669 3 is_stmt 1 view .LVU542
 669:Drivers/STM32F7xx_HAL_Driver/Src/stm32f7xx_ll_sdmmc.c ****   sdmmc_cmdinit.Response         = SDMMC_RESPONSE_SHORT;
 1816              		.loc 1 669 34 is_stmt 0 view .LVU543
 1817 0008 2125     		movs	r5, #33
 1818 000a 0295     		str	r5, [sp, #8]
 670:Drivers/STM32F7xx_HAL_Driver/Src/stm32f7xx_ll_sdmmc.c ****   sdmmc_cmdinit.WaitForInterrupt = SDMMC_WAIT_NO;
 1819              		.loc 1 670 3 is_stmt 1 view .LVU544
 670:Drivers/STM32F7xx_HAL_Driver/Src/stm32f7xx_ll_sdmmc.c ****   sdmmc_cmdinit.WaitForInterrupt = SDMMC_WAIT_NO;
 1820              		.loc 1 670 34 is_stmt 0 view .LVU545
 1821 000c 4023     		movs	r3, #64
 1822 000e 0393     		str	r3, [sp, #12]
 671:Drivers/STM32F7xx_HAL_Driver/Src/stm32f7xx_ll_sdmmc.c ****   sdmmc_cmdinit.CPSM             = SDMMC_CPSM_ENABLE;
 1823              		.loc 1 671 3 is_stmt 1 view .LVU546
 671:Drivers/STM32F7xx_HAL_Driver/Src/stm32f7xx_ll_sdmmc.c ****   sdmmc_cmdinit.CPSM             = SDMMC_CPSM_ENABLE;
 1824              		.loc 1 671 34 is_stmt 0 view .LVU547
 1825 0010 0023     		movs	r3, #0
 1826 0012 0493     		str	r3, [sp, #16]
 672:Drivers/STM32F7xx_HAL_Driver/Src/stm32f7xx_ll_sdmmc.c ****   (void)SDMMC_SendCommand(SDMMCx, &sdmmc_cmdinit);
 1827              		.loc 1 672 3 is_stmt 1 view .LVU548
 672:Drivers/STM32F7xx_HAL_Driver/Src/stm32f7xx_ll_sdmmc.c ****   (void)SDMMC_SendCommand(SDMMCx, &sdmmc_cmdinit);
 1828              		.loc 1 672 34 is_stmt 0 view .LVU549
 1829 0014 4FF48063 		mov	r3, #1024
 1830 0018 0593     		str	r3, [sp, #20]
 673:Drivers/STM32F7xx_HAL_Driver/Src/stm32f7xx_ll_sdmmc.c ****   
 1831              		.loc 1 673 3 is_stmt 1 view .LVU550
 673:Drivers/STM32F7xx_HAL_Driver/Src/stm32f7xx_ll_sdmmc.c ****   
 1832              		.loc 1 673 9 is_stmt 0 view .LVU551
 1833 001a 01A9     		add	r1, sp, #4
 1834              	.LVL137:
 673:Drivers/STM32F7xx_HAL_Driver/Src/stm32f7xx_ll_sdmmc.c ****   
 1835              		.loc 1 673 9 view .LVU552
 1836 001c FFF7FEFF 		bl	SDMMC_SendCommand
 1837              	.LVL138:
 676:Drivers/STM32F7xx_HAL_Driver/Src/stm32f7xx_ll_sdmmc.c **** 
 1838              		.loc 1 676 3 is_stmt 1 view .LVU553
 676:Drivers/STM32F7xx_HAL_Driver/Src/stm32f7xx_ll_sdmmc.c **** 
 1839              		.loc 1 676 16 is_stmt 0 view .LVU554
 1840 0020 41F28832 		movw	r2, #5000
 1841 0024 2946     		mov	r1, r5
 1842 0026 2046     		mov	r0, r4
 1843 0028 FFF7FEFF 		bl	SDMMC_GetCmdResp1
 1844              	.LVL139:
 678:Drivers/STM32F7xx_HAL_Driver/Src/stm32f7xx_ll_sdmmc.c **** }
ARM GAS  /tmp/ccPnSfMB.s 			page 67


 1845              		.loc 1 678 3 is_stmt 1 view .LVU555
 679:Drivers/STM32F7xx_HAL_Driver/Src/stm32f7xx_ll_sdmmc.c **** 
 1846              		.loc 1 679 1 is_stmt 0 view .LVU556
 1847 002c 07B0     		add	sp, sp, #28
 1848              	.LCFI27:
 1849              		.cfi_def_cfa_offset 12
 1850              		@ sp needed
 1851 002e 30BD     		pop	{r4, r5, pc}
 679:Drivers/STM32F7xx_HAL_Driver/Src/stm32f7xx_ll_sdmmc.c **** 
 1852              		.loc 1 679 1 view .LVU557
 1853              		.cfi_endproc
 1854              	.LFE160:
 1856              		.section	.text.SDMMC_CmdEraseStartAdd,"ax",%progbits
 1857              		.align	1
 1858              		.global	SDMMC_CmdEraseStartAdd
 1859              		.syntax unified
 1860              		.thumb
 1861              		.thumb_func
 1862              		.fpu fpv5-d16
 1864              	SDMMC_CmdEraseStartAdd:
 1865              	.LVL140:
 1866              	.LFB161:
 687:Drivers/STM32F7xx_HAL_Driver/Src/stm32f7xx_ll_sdmmc.c ****   SDMMC_CmdInitTypeDef  sdmmc_cmdinit;
 1867              		.loc 1 687 1 is_stmt 1 view -0
 1868              		.cfi_startproc
 1869              		@ args = 0, pretend = 0, frame = 24
 1870              		@ frame_needed = 0, uses_anonymous_args = 0
 687:Drivers/STM32F7xx_HAL_Driver/Src/stm32f7xx_ll_sdmmc.c ****   SDMMC_CmdInitTypeDef  sdmmc_cmdinit;
 1871              		.loc 1 687 1 is_stmt 0 view .LVU559
 1872 0000 30B5     		push	{r4, r5, lr}
 1873              	.LCFI28:
 1874              		.cfi_def_cfa_offset 12
 1875              		.cfi_offset 4, -12
 1876              		.cfi_offset 5, -8
 1877              		.cfi_offset 14, -4
 1878 0002 87B0     		sub	sp, sp, #28
 1879              	.LCFI29:
 1880              		.cfi_def_cfa_offset 40
 1881 0004 0446     		mov	r4, r0
 688:Drivers/STM32F7xx_HAL_Driver/Src/stm32f7xx_ll_sdmmc.c ****   uint32_t errorstate;
 1882              		.loc 1 688 3 is_stmt 1 view .LVU560
 689:Drivers/STM32F7xx_HAL_Driver/Src/stm32f7xx_ll_sdmmc.c ****   
 1883              		.loc 1 689 3 view .LVU561
 692:Drivers/STM32F7xx_HAL_Driver/Src/stm32f7xx_ll_sdmmc.c ****   sdmmc_cmdinit.CmdIndex         = SDMMC_CMD_ERASE_GRP_START;
 1884              		.loc 1 692 3 view .LVU562
 692:Drivers/STM32F7xx_HAL_Driver/Src/stm32f7xx_ll_sdmmc.c ****   sdmmc_cmdinit.CmdIndex         = SDMMC_CMD_ERASE_GRP_START;
 1885              		.loc 1 692 34 is_stmt 0 view .LVU563
 1886 0006 0191     		str	r1, [sp, #4]
 693:Drivers/STM32F7xx_HAL_Driver/Src/stm32f7xx_ll_sdmmc.c ****   sdmmc_cmdinit.Response         = SDMMC_RESPONSE_SHORT;
 1887              		.loc 1 693 3 is_stmt 1 view .LVU564
 693:Drivers/STM32F7xx_HAL_Driver/Src/stm32f7xx_ll_sdmmc.c ****   sdmmc_cmdinit.Response         = SDMMC_RESPONSE_SHORT;
 1888              		.loc 1 693 34 is_stmt 0 view .LVU565
 1889 0008 2325     		movs	r5, #35
 1890 000a 0295     		str	r5, [sp, #8]
 694:Drivers/STM32F7xx_HAL_Driver/Src/stm32f7xx_ll_sdmmc.c ****   sdmmc_cmdinit.WaitForInterrupt = SDMMC_WAIT_NO;
 1891              		.loc 1 694 3 is_stmt 1 view .LVU566
 694:Drivers/STM32F7xx_HAL_Driver/Src/stm32f7xx_ll_sdmmc.c ****   sdmmc_cmdinit.WaitForInterrupt = SDMMC_WAIT_NO;
ARM GAS  /tmp/ccPnSfMB.s 			page 68


 1892              		.loc 1 694 34 is_stmt 0 view .LVU567
 1893 000c 4023     		movs	r3, #64
 1894 000e 0393     		str	r3, [sp, #12]
 695:Drivers/STM32F7xx_HAL_Driver/Src/stm32f7xx_ll_sdmmc.c ****   sdmmc_cmdinit.CPSM             = SDMMC_CPSM_ENABLE;
 1895              		.loc 1 695 3 is_stmt 1 view .LVU568
 695:Drivers/STM32F7xx_HAL_Driver/Src/stm32f7xx_ll_sdmmc.c ****   sdmmc_cmdinit.CPSM             = SDMMC_CPSM_ENABLE;
 1896              		.loc 1 695 34 is_stmt 0 view .LVU569
 1897 0010 0023     		movs	r3, #0
 1898 0012 0493     		str	r3, [sp, #16]
 696:Drivers/STM32F7xx_HAL_Driver/Src/stm32f7xx_ll_sdmmc.c ****   (void)SDMMC_SendCommand(SDMMCx, &sdmmc_cmdinit);
 1899              		.loc 1 696 3 is_stmt 1 view .LVU570
 696:Drivers/STM32F7xx_HAL_Driver/Src/stm32f7xx_ll_sdmmc.c ****   (void)SDMMC_SendCommand(SDMMCx, &sdmmc_cmdinit);
 1900              		.loc 1 696 34 is_stmt 0 view .LVU571
 1901 0014 4FF48063 		mov	r3, #1024
 1902 0018 0593     		str	r3, [sp, #20]
 697:Drivers/STM32F7xx_HAL_Driver/Src/stm32f7xx_ll_sdmmc.c ****   
 1903              		.loc 1 697 3 is_stmt 1 view .LVU572
 697:Drivers/STM32F7xx_HAL_Driver/Src/stm32f7xx_ll_sdmmc.c ****   
 1904              		.loc 1 697 9 is_stmt 0 view .LVU573
 1905 001a 01A9     		add	r1, sp, #4
 1906              	.LVL141:
 697:Drivers/STM32F7xx_HAL_Driver/Src/stm32f7xx_ll_sdmmc.c ****   
 1907              		.loc 1 697 9 view .LVU574
 1908 001c FFF7FEFF 		bl	SDMMC_SendCommand
 1909              	.LVL142:
 700:Drivers/STM32F7xx_HAL_Driver/Src/stm32f7xx_ll_sdmmc.c **** 
 1910              		.loc 1 700 3 is_stmt 1 view .LVU575
 700:Drivers/STM32F7xx_HAL_Driver/Src/stm32f7xx_ll_sdmmc.c **** 
 1911              		.loc 1 700 16 is_stmt 0 view .LVU576
 1912 0020 41F28832 		movw	r2, #5000
 1913 0024 2946     		mov	r1, r5
 1914 0026 2046     		mov	r0, r4
 1915 0028 FFF7FEFF 		bl	SDMMC_GetCmdResp1
 1916              	.LVL143:
 702:Drivers/STM32F7xx_HAL_Driver/Src/stm32f7xx_ll_sdmmc.c **** }
 1917              		.loc 1 702 3 is_stmt 1 view .LVU577
 703:Drivers/STM32F7xx_HAL_Driver/Src/stm32f7xx_ll_sdmmc.c **** 
 1918              		.loc 1 703 1 is_stmt 0 view .LVU578
 1919 002c 07B0     		add	sp, sp, #28
 1920              	.LCFI30:
 1921              		.cfi_def_cfa_offset 12
 1922              		@ sp needed
 1923 002e 30BD     		pop	{r4, r5, pc}
 703:Drivers/STM32F7xx_HAL_Driver/Src/stm32f7xx_ll_sdmmc.c **** 
 1924              		.loc 1 703 1 view .LVU579
 1925              		.cfi_endproc
 1926              	.LFE161:
 1928              		.section	.text.SDMMC_CmdEraseEndAdd,"ax",%progbits
 1929              		.align	1
 1930              		.global	SDMMC_CmdEraseEndAdd
 1931              		.syntax unified
 1932              		.thumb
 1933              		.thumb_func
 1934              		.fpu fpv5-d16
 1936              	SDMMC_CmdEraseEndAdd:
 1937              	.LVL144:
 1938              	.LFB162:
ARM GAS  /tmp/ccPnSfMB.s 			page 69


 711:Drivers/STM32F7xx_HAL_Driver/Src/stm32f7xx_ll_sdmmc.c ****   SDMMC_CmdInitTypeDef  sdmmc_cmdinit;
 1939              		.loc 1 711 1 is_stmt 1 view -0
 1940              		.cfi_startproc
 1941              		@ args = 0, pretend = 0, frame = 24
 1942              		@ frame_needed = 0, uses_anonymous_args = 0
 711:Drivers/STM32F7xx_HAL_Driver/Src/stm32f7xx_ll_sdmmc.c ****   SDMMC_CmdInitTypeDef  sdmmc_cmdinit;
 1943              		.loc 1 711 1 is_stmt 0 view .LVU581
 1944 0000 30B5     		push	{r4, r5, lr}
 1945              	.LCFI31:
 1946              		.cfi_def_cfa_offset 12
 1947              		.cfi_offset 4, -12
 1948              		.cfi_offset 5, -8
 1949              		.cfi_offset 14, -4
 1950 0002 87B0     		sub	sp, sp, #28
 1951              	.LCFI32:
 1952              		.cfi_def_cfa_offset 40
 1953 0004 0446     		mov	r4, r0
 712:Drivers/STM32F7xx_HAL_Driver/Src/stm32f7xx_ll_sdmmc.c ****   uint32_t errorstate;
 1954              		.loc 1 712 3 is_stmt 1 view .LVU582
 713:Drivers/STM32F7xx_HAL_Driver/Src/stm32f7xx_ll_sdmmc.c ****   
 1955              		.loc 1 713 3 view .LVU583
 716:Drivers/STM32F7xx_HAL_Driver/Src/stm32f7xx_ll_sdmmc.c ****   sdmmc_cmdinit.CmdIndex         = SDMMC_CMD_ERASE_GRP_END;
 1956              		.loc 1 716 3 view .LVU584
 716:Drivers/STM32F7xx_HAL_Driver/Src/stm32f7xx_ll_sdmmc.c ****   sdmmc_cmdinit.CmdIndex         = SDMMC_CMD_ERASE_GRP_END;
 1957              		.loc 1 716 34 is_stmt 0 view .LVU585
 1958 0006 0191     		str	r1, [sp, #4]
 717:Drivers/STM32F7xx_HAL_Driver/Src/stm32f7xx_ll_sdmmc.c ****   sdmmc_cmdinit.Response         = SDMMC_RESPONSE_SHORT;
 1959              		.loc 1 717 3 is_stmt 1 view .LVU586
 717:Drivers/STM32F7xx_HAL_Driver/Src/stm32f7xx_ll_sdmmc.c ****   sdmmc_cmdinit.Response         = SDMMC_RESPONSE_SHORT;
 1960              		.loc 1 717 34 is_stmt 0 view .LVU587
 1961 0008 2425     		movs	r5, #36
 1962 000a 0295     		str	r5, [sp, #8]
 718:Drivers/STM32F7xx_HAL_Driver/Src/stm32f7xx_ll_sdmmc.c ****   sdmmc_cmdinit.WaitForInterrupt = SDMMC_WAIT_NO;
 1963              		.loc 1 718 3 is_stmt 1 view .LVU588
 718:Drivers/STM32F7xx_HAL_Driver/Src/stm32f7xx_ll_sdmmc.c ****   sdmmc_cmdinit.WaitForInterrupt = SDMMC_WAIT_NO;
 1964              		.loc 1 718 34 is_stmt 0 view .LVU589
 1965 000c 4023     		movs	r3, #64
 1966 000e 0393     		str	r3, [sp, #12]
 719:Drivers/STM32F7xx_HAL_Driver/Src/stm32f7xx_ll_sdmmc.c ****   sdmmc_cmdinit.CPSM             = SDMMC_CPSM_ENABLE;
 1967              		.loc 1 719 3 is_stmt 1 view .LVU590
 719:Drivers/STM32F7xx_HAL_Driver/Src/stm32f7xx_ll_sdmmc.c ****   sdmmc_cmdinit.CPSM             = SDMMC_CPSM_ENABLE;
 1968              		.loc 1 719 34 is_stmt 0 view .LVU591
 1969 0010 0023     		movs	r3, #0
 1970 0012 0493     		str	r3, [sp, #16]
 720:Drivers/STM32F7xx_HAL_Driver/Src/stm32f7xx_ll_sdmmc.c ****   (void)SDMMC_SendCommand(SDMMCx, &sdmmc_cmdinit);
 1971              		.loc 1 720 3 is_stmt 1 view .LVU592
 720:Drivers/STM32F7xx_HAL_Driver/Src/stm32f7xx_ll_sdmmc.c ****   (void)SDMMC_SendCommand(SDMMCx, &sdmmc_cmdinit);
 1972              		.loc 1 720 34 is_stmt 0 view .LVU593
 1973 0014 4FF48063 		mov	r3, #1024
 1974 0018 0593     		str	r3, [sp, #20]
 721:Drivers/STM32F7xx_HAL_Driver/Src/stm32f7xx_ll_sdmmc.c ****   
 1975              		.loc 1 721 3 is_stmt 1 view .LVU594
 721:Drivers/STM32F7xx_HAL_Driver/Src/stm32f7xx_ll_sdmmc.c ****   
 1976              		.loc 1 721 9 is_stmt 0 view .LVU595
 1977 001a 01A9     		add	r1, sp, #4
 1978              	.LVL145:
 721:Drivers/STM32F7xx_HAL_Driver/Src/stm32f7xx_ll_sdmmc.c ****   
ARM GAS  /tmp/ccPnSfMB.s 			page 70


 1979              		.loc 1 721 9 view .LVU596
 1980 001c FFF7FEFF 		bl	SDMMC_SendCommand
 1981              	.LVL146:
 724:Drivers/STM32F7xx_HAL_Driver/Src/stm32f7xx_ll_sdmmc.c **** 
 1982              		.loc 1 724 3 is_stmt 1 view .LVU597
 724:Drivers/STM32F7xx_HAL_Driver/Src/stm32f7xx_ll_sdmmc.c **** 
 1983              		.loc 1 724 16 is_stmt 0 view .LVU598
 1984 0020 41F28832 		movw	r2, #5000
 1985 0024 2946     		mov	r1, r5
 1986 0026 2046     		mov	r0, r4
 1987 0028 FFF7FEFF 		bl	SDMMC_GetCmdResp1
 1988              	.LVL147:
 726:Drivers/STM32F7xx_HAL_Driver/Src/stm32f7xx_ll_sdmmc.c **** }
 1989              		.loc 1 726 3 is_stmt 1 view .LVU599
 727:Drivers/STM32F7xx_HAL_Driver/Src/stm32f7xx_ll_sdmmc.c **** 
 1990              		.loc 1 727 1 is_stmt 0 view .LVU600
 1991 002c 07B0     		add	sp, sp, #28
 1992              	.LCFI33:
 1993              		.cfi_def_cfa_offset 12
 1994              		@ sp needed
 1995 002e 30BD     		pop	{r4, r5, pc}
 727:Drivers/STM32F7xx_HAL_Driver/Src/stm32f7xx_ll_sdmmc.c **** 
 1996              		.loc 1 727 1 view .LVU601
 1997              		.cfi_endproc
 1998              	.LFE162:
 2000              		.section	.text.SDMMC_CmdErase,"ax",%progbits
 2001              		.align	1
 2002              		.global	SDMMC_CmdErase
 2003              		.syntax unified
 2004              		.thumb
 2005              		.thumb_func
 2006              		.fpu fpv5-d16
 2008              	SDMMC_CmdErase:
 2009              	.LVL148:
 2010              	.LFB163:
 735:Drivers/STM32F7xx_HAL_Driver/Src/stm32f7xx_ll_sdmmc.c ****   SDMMC_CmdInitTypeDef  sdmmc_cmdinit;
 2011              		.loc 1 735 1 is_stmt 1 view -0
 2012              		.cfi_startproc
 2013              		@ args = 0, pretend = 0, frame = 24
 2014              		@ frame_needed = 0, uses_anonymous_args = 0
 735:Drivers/STM32F7xx_HAL_Driver/Src/stm32f7xx_ll_sdmmc.c ****   SDMMC_CmdInitTypeDef  sdmmc_cmdinit;
 2015              		.loc 1 735 1 is_stmt 0 view .LVU603
 2016 0000 30B5     		push	{r4, r5, lr}
 2017              	.LCFI34:
 2018              		.cfi_def_cfa_offset 12
 2019              		.cfi_offset 4, -12
 2020              		.cfi_offset 5, -8
 2021              		.cfi_offset 14, -4
 2022 0002 87B0     		sub	sp, sp, #28
 2023              	.LCFI35:
 2024              		.cfi_def_cfa_offset 40
 2025 0004 0446     		mov	r4, r0
 736:Drivers/STM32F7xx_HAL_Driver/Src/stm32f7xx_ll_sdmmc.c ****   uint32_t errorstate;
 2026              		.loc 1 736 3 is_stmt 1 view .LVU604
 737:Drivers/STM32F7xx_HAL_Driver/Src/stm32f7xx_ll_sdmmc.c ****   
 2027              		.loc 1 737 3 view .LVU605
 740:Drivers/STM32F7xx_HAL_Driver/Src/stm32f7xx_ll_sdmmc.c ****   sdmmc_cmdinit.CmdIndex         = SDMMC_CMD_ERASE;
ARM GAS  /tmp/ccPnSfMB.s 			page 71


 2028              		.loc 1 740 3 view .LVU606
 740:Drivers/STM32F7xx_HAL_Driver/Src/stm32f7xx_ll_sdmmc.c ****   sdmmc_cmdinit.CmdIndex         = SDMMC_CMD_ERASE;
 2029              		.loc 1 740 34 is_stmt 0 view .LVU607
 2030 0006 0023     		movs	r3, #0
 2031 0008 0193     		str	r3, [sp, #4]
 741:Drivers/STM32F7xx_HAL_Driver/Src/stm32f7xx_ll_sdmmc.c ****   sdmmc_cmdinit.Response         = SDMMC_RESPONSE_SHORT;
 2032              		.loc 1 741 3 is_stmt 1 view .LVU608
 741:Drivers/STM32F7xx_HAL_Driver/Src/stm32f7xx_ll_sdmmc.c ****   sdmmc_cmdinit.Response         = SDMMC_RESPONSE_SHORT;
 2033              		.loc 1 741 34 is_stmt 0 view .LVU609
 2034 000a 2625     		movs	r5, #38
 2035 000c 0295     		str	r5, [sp, #8]
 742:Drivers/STM32F7xx_HAL_Driver/Src/stm32f7xx_ll_sdmmc.c ****   sdmmc_cmdinit.WaitForInterrupt = SDMMC_WAIT_NO;
 2036              		.loc 1 742 3 is_stmt 1 view .LVU610
 742:Drivers/STM32F7xx_HAL_Driver/Src/stm32f7xx_ll_sdmmc.c ****   sdmmc_cmdinit.WaitForInterrupt = SDMMC_WAIT_NO;
 2037              		.loc 1 742 34 is_stmt 0 view .LVU611
 2038 000e 4022     		movs	r2, #64
 2039 0010 0392     		str	r2, [sp, #12]
 743:Drivers/STM32F7xx_HAL_Driver/Src/stm32f7xx_ll_sdmmc.c ****   sdmmc_cmdinit.CPSM             = SDMMC_CPSM_ENABLE;
 2040              		.loc 1 743 3 is_stmt 1 view .LVU612
 743:Drivers/STM32F7xx_HAL_Driver/Src/stm32f7xx_ll_sdmmc.c ****   sdmmc_cmdinit.CPSM             = SDMMC_CPSM_ENABLE;
 2041              		.loc 1 743 34 is_stmt 0 view .LVU613
 2042 0012 0493     		str	r3, [sp, #16]
 744:Drivers/STM32F7xx_HAL_Driver/Src/stm32f7xx_ll_sdmmc.c ****   (void)SDMMC_SendCommand(SDMMCx, &sdmmc_cmdinit);
 2043              		.loc 1 744 3 is_stmt 1 view .LVU614
 744:Drivers/STM32F7xx_HAL_Driver/Src/stm32f7xx_ll_sdmmc.c ****   (void)SDMMC_SendCommand(SDMMCx, &sdmmc_cmdinit);
 2044              		.loc 1 744 34 is_stmt 0 view .LVU615
 2045 0014 4FF48063 		mov	r3, #1024
 2046 0018 0593     		str	r3, [sp, #20]
 745:Drivers/STM32F7xx_HAL_Driver/Src/stm32f7xx_ll_sdmmc.c ****   
 2047              		.loc 1 745 3 is_stmt 1 view .LVU616
 745:Drivers/STM32F7xx_HAL_Driver/Src/stm32f7xx_ll_sdmmc.c ****   
 2048              		.loc 1 745 9 is_stmt 0 view .LVU617
 2049 001a 01A9     		add	r1, sp, #4
 2050 001c FFF7FEFF 		bl	SDMMC_SendCommand
 2051              	.LVL149:
 748:Drivers/STM32F7xx_HAL_Driver/Src/stm32f7xx_ll_sdmmc.c **** 
 2052              		.loc 1 748 3 is_stmt 1 view .LVU618
 748:Drivers/STM32F7xx_HAL_Driver/Src/stm32f7xx_ll_sdmmc.c **** 
 2053              		.loc 1 748 16 is_stmt 0 view .LVU619
 2054 0020 4FF21862 		movw	r2, #63000
 2055 0024 2946     		mov	r1, r5
 2056 0026 2046     		mov	r0, r4
 2057 0028 FFF7FEFF 		bl	SDMMC_GetCmdResp1
 2058              	.LVL150:
 750:Drivers/STM32F7xx_HAL_Driver/Src/stm32f7xx_ll_sdmmc.c **** }
 2059              		.loc 1 750 3 is_stmt 1 view .LVU620
 751:Drivers/STM32F7xx_HAL_Driver/Src/stm32f7xx_ll_sdmmc.c **** 
 2060              		.loc 1 751 1 is_stmt 0 view .LVU621
 2061 002c 07B0     		add	sp, sp, #28
 2062              	.LCFI36:
 2063              		.cfi_def_cfa_offset 12
 2064              		@ sp needed
 2065 002e 30BD     		pop	{r4, r5, pc}
 751:Drivers/STM32F7xx_HAL_Driver/Src/stm32f7xx_ll_sdmmc.c **** 
 2066              		.loc 1 751 1 view .LVU622
 2067              		.cfi_endproc
 2068              	.LFE163:
ARM GAS  /tmp/ccPnSfMB.s 			page 72


 2070              		.section	.text.SDMMC_CmdStopTransfer,"ax",%progbits
 2071              		.align	1
 2072              		.global	SDMMC_CmdStopTransfer
 2073              		.syntax unified
 2074              		.thumb
 2075              		.thumb_func
 2076              		.fpu fpv5-d16
 2078              	SDMMC_CmdStopTransfer:
 2079              	.LVL151:
 2080              	.LFB164:
 759:Drivers/STM32F7xx_HAL_Driver/Src/stm32f7xx_ll_sdmmc.c ****   SDMMC_CmdInitTypeDef  sdmmc_cmdinit;
 2081              		.loc 1 759 1 is_stmt 1 view -0
 2082              		.cfi_startproc
 2083              		@ args = 0, pretend = 0, frame = 24
 2084              		@ frame_needed = 0, uses_anonymous_args = 0
 759:Drivers/STM32F7xx_HAL_Driver/Src/stm32f7xx_ll_sdmmc.c ****   SDMMC_CmdInitTypeDef  sdmmc_cmdinit;
 2085              		.loc 1 759 1 is_stmt 0 view .LVU624
 2086 0000 30B5     		push	{r4, r5, lr}
 2087              	.LCFI37:
 2088              		.cfi_def_cfa_offset 12
 2089              		.cfi_offset 4, -12
 2090              		.cfi_offset 5, -8
 2091              		.cfi_offset 14, -4
 2092 0002 87B0     		sub	sp, sp, #28
 2093              	.LCFI38:
 2094              		.cfi_def_cfa_offset 40
 2095 0004 0446     		mov	r4, r0
 760:Drivers/STM32F7xx_HAL_Driver/Src/stm32f7xx_ll_sdmmc.c ****   uint32_t errorstate;
 2096              		.loc 1 760 3 is_stmt 1 view .LVU625
 761:Drivers/STM32F7xx_HAL_Driver/Src/stm32f7xx_ll_sdmmc.c ****   
 2097              		.loc 1 761 3 view .LVU626
 764:Drivers/STM32F7xx_HAL_Driver/Src/stm32f7xx_ll_sdmmc.c ****   sdmmc_cmdinit.CmdIndex         = SDMMC_CMD_STOP_TRANSMISSION;
 2098              		.loc 1 764 3 view .LVU627
 764:Drivers/STM32F7xx_HAL_Driver/Src/stm32f7xx_ll_sdmmc.c ****   sdmmc_cmdinit.CmdIndex         = SDMMC_CMD_STOP_TRANSMISSION;
 2099              		.loc 1 764 34 is_stmt 0 view .LVU628
 2100 0006 0023     		movs	r3, #0
 2101 0008 0193     		str	r3, [sp, #4]
 765:Drivers/STM32F7xx_HAL_Driver/Src/stm32f7xx_ll_sdmmc.c ****   sdmmc_cmdinit.Response         = SDMMC_RESPONSE_SHORT;
 2102              		.loc 1 765 3 is_stmt 1 view .LVU629
 765:Drivers/STM32F7xx_HAL_Driver/Src/stm32f7xx_ll_sdmmc.c ****   sdmmc_cmdinit.Response         = SDMMC_RESPONSE_SHORT;
 2103              		.loc 1 765 34 is_stmt 0 view .LVU630
 2104 000a 0C25     		movs	r5, #12
 2105 000c 0295     		str	r5, [sp, #8]
 766:Drivers/STM32F7xx_HAL_Driver/Src/stm32f7xx_ll_sdmmc.c ****   sdmmc_cmdinit.WaitForInterrupt = SDMMC_WAIT_NO;
 2106              		.loc 1 766 3 is_stmt 1 view .LVU631
 766:Drivers/STM32F7xx_HAL_Driver/Src/stm32f7xx_ll_sdmmc.c ****   sdmmc_cmdinit.WaitForInterrupt = SDMMC_WAIT_NO;
 2107              		.loc 1 766 34 is_stmt 0 view .LVU632
 2108 000e 4022     		movs	r2, #64
 2109 0010 0392     		str	r2, [sp, #12]
 767:Drivers/STM32F7xx_HAL_Driver/Src/stm32f7xx_ll_sdmmc.c ****   sdmmc_cmdinit.CPSM             = SDMMC_CPSM_ENABLE;
 2110              		.loc 1 767 3 is_stmt 1 view .LVU633
 767:Drivers/STM32F7xx_HAL_Driver/Src/stm32f7xx_ll_sdmmc.c ****   sdmmc_cmdinit.CPSM             = SDMMC_CPSM_ENABLE;
 2111              		.loc 1 767 34 is_stmt 0 view .LVU634
 2112 0012 0493     		str	r3, [sp, #16]
 768:Drivers/STM32F7xx_HAL_Driver/Src/stm32f7xx_ll_sdmmc.c ****   (void)SDMMC_SendCommand(SDMMCx, &sdmmc_cmdinit);
 2113              		.loc 1 768 3 is_stmt 1 view .LVU635
 768:Drivers/STM32F7xx_HAL_Driver/Src/stm32f7xx_ll_sdmmc.c ****   (void)SDMMC_SendCommand(SDMMCx, &sdmmc_cmdinit);
ARM GAS  /tmp/ccPnSfMB.s 			page 73


 2114              		.loc 1 768 34 is_stmt 0 view .LVU636
 2115 0014 4FF48063 		mov	r3, #1024
 2116 0018 0593     		str	r3, [sp, #20]
 769:Drivers/STM32F7xx_HAL_Driver/Src/stm32f7xx_ll_sdmmc.c ****   
 2117              		.loc 1 769 3 is_stmt 1 view .LVU637
 769:Drivers/STM32F7xx_HAL_Driver/Src/stm32f7xx_ll_sdmmc.c ****   
 2118              		.loc 1 769 9 is_stmt 0 view .LVU638
 2119 001a 01A9     		add	r1, sp, #4
 2120 001c FFF7FEFF 		bl	SDMMC_SendCommand
 2121              	.LVL152:
 772:Drivers/STM32F7xx_HAL_Driver/Src/stm32f7xx_ll_sdmmc.c **** 
 2122              		.loc 1 772 3 is_stmt 1 view .LVU639
 772:Drivers/STM32F7xx_HAL_Driver/Src/stm32f7xx_ll_sdmmc.c **** 
 2123              		.loc 1 772 16 is_stmt 0 view .LVU640
 2124 0020 034A     		ldr	r2, .L122
 2125 0022 2946     		mov	r1, r5
 2126 0024 2046     		mov	r0, r4
 2127 0026 FFF7FEFF 		bl	SDMMC_GetCmdResp1
 2128              	.LVL153:
 774:Drivers/STM32F7xx_HAL_Driver/Src/stm32f7xx_ll_sdmmc.c **** }
 2129              		.loc 1 774 3 is_stmt 1 view .LVU641
 775:Drivers/STM32F7xx_HAL_Driver/Src/stm32f7xx_ll_sdmmc.c **** 
 2130              		.loc 1 775 1 is_stmt 0 view .LVU642
 2131 002a 07B0     		add	sp, sp, #28
 2132              	.LCFI39:
 2133              		.cfi_def_cfa_offset 12
 2134              		@ sp needed
 2135 002c 30BD     		pop	{r4, r5, pc}
 2136              	.LVL154:
 2137              	.L123:
 775:Drivers/STM32F7xx_HAL_Driver/Src/stm32f7xx_ll_sdmmc.c **** 
 2138              		.loc 1 775 1 view .LVU643
 2139 002e 00BF     		.align	2
 2140              	.L122:
 2141 0030 00E1F505 		.word	100000000
 2142              		.cfi_endproc
 2143              	.LFE164:
 2145              		.section	.text.SDMMC_CmdSelDesel,"ax",%progbits
 2146              		.align	1
 2147              		.global	SDMMC_CmdSelDesel
 2148              		.syntax unified
 2149              		.thumb
 2150              		.thumb_func
 2151              		.fpu fpv5-d16
 2153              	SDMMC_CmdSelDesel:
 2154              	.LVL155:
 2155              	.LFB165:
 784:Drivers/STM32F7xx_HAL_Driver/Src/stm32f7xx_ll_sdmmc.c ****   SDMMC_CmdInitTypeDef  sdmmc_cmdinit;
 2156              		.loc 1 784 1 is_stmt 1 view -0
 2157              		.cfi_startproc
 2158              		@ args = 0, pretend = 0, frame = 24
 2159              		@ frame_needed = 0, uses_anonymous_args = 0
 784:Drivers/STM32F7xx_HAL_Driver/Src/stm32f7xx_ll_sdmmc.c ****   SDMMC_CmdInitTypeDef  sdmmc_cmdinit;
 2160              		.loc 1 784 1 is_stmt 0 view .LVU645
 2161 0000 30B5     		push	{r4, r5, lr}
 2162              	.LCFI40:
 2163              		.cfi_def_cfa_offset 12
ARM GAS  /tmp/ccPnSfMB.s 			page 74


 2164              		.cfi_offset 4, -12
 2165              		.cfi_offset 5, -8
 2166              		.cfi_offset 14, -4
 2167 0002 87B0     		sub	sp, sp, #28
 2168              	.LCFI41:
 2169              		.cfi_def_cfa_offset 40
 2170 0004 0446     		mov	r4, r0
 785:Drivers/STM32F7xx_HAL_Driver/Src/stm32f7xx_ll_sdmmc.c ****   uint32_t errorstate;
 2171              		.loc 1 785 3 is_stmt 1 view .LVU646
 786:Drivers/STM32F7xx_HAL_Driver/Src/stm32f7xx_ll_sdmmc.c ****   
 2172              		.loc 1 786 3 view .LVU647
 789:Drivers/STM32F7xx_HAL_Driver/Src/stm32f7xx_ll_sdmmc.c ****   sdmmc_cmdinit.CmdIndex         = SDMMC_CMD_SEL_DESEL_CARD;
 2173              		.loc 1 789 3 view .LVU648
 789:Drivers/STM32F7xx_HAL_Driver/Src/stm32f7xx_ll_sdmmc.c ****   sdmmc_cmdinit.CmdIndex         = SDMMC_CMD_SEL_DESEL_CARD;
 2174              		.loc 1 789 34 is_stmt 0 view .LVU649
 2175 0006 0192     		str	r2, [sp, #4]
 790:Drivers/STM32F7xx_HAL_Driver/Src/stm32f7xx_ll_sdmmc.c ****   sdmmc_cmdinit.Response         = SDMMC_RESPONSE_SHORT;
 2176              		.loc 1 790 3 is_stmt 1 view .LVU650
 790:Drivers/STM32F7xx_HAL_Driver/Src/stm32f7xx_ll_sdmmc.c ****   sdmmc_cmdinit.Response         = SDMMC_RESPONSE_SHORT;
 2177              		.loc 1 790 34 is_stmt 0 view .LVU651
 2178 0008 0725     		movs	r5, #7
 2179 000a 0295     		str	r5, [sp, #8]
 791:Drivers/STM32F7xx_HAL_Driver/Src/stm32f7xx_ll_sdmmc.c ****   sdmmc_cmdinit.WaitForInterrupt = SDMMC_WAIT_NO;
 2180              		.loc 1 791 3 is_stmt 1 view .LVU652
 791:Drivers/STM32F7xx_HAL_Driver/Src/stm32f7xx_ll_sdmmc.c ****   sdmmc_cmdinit.WaitForInterrupt = SDMMC_WAIT_NO;
 2181              		.loc 1 791 34 is_stmt 0 view .LVU653
 2182 000c 4023     		movs	r3, #64
 2183 000e 0393     		str	r3, [sp, #12]
 792:Drivers/STM32F7xx_HAL_Driver/Src/stm32f7xx_ll_sdmmc.c ****   sdmmc_cmdinit.CPSM             = SDMMC_CPSM_ENABLE;
 2184              		.loc 1 792 3 is_stmt 1 view .LVU654
 792:Drivers/STM32F7xx_HAL_Driver/Src/stm32f7xx_ll_sdmmc.c ****   sdmmc_cmdinit.CPSM             = SDMMC_CPSM_ENABLE;
 2185              		.loc 1 792 34 is_stmt 0 view .LVU655
 2186 0010 0023     		movs	r3, #0
 2187 0012 0493     		str	r3, [sp, #16]
 793:Drivers/STM32F7xx_HAL_Driver/Src/stm32f7xx_ll_sdmmc.c ****   (void)SDMMC_SendCommand(SDMMCx, &sdmmc_cmdinit);
 2188              		.loc 1 793 3 is_stmt 1 view .LVU656
 793:Drivers/STM32F7xx_HAL_Driver/Src/stm32f7xx_ll_sdmmc.c ****   (void)SDMMC_SendCommand(SDMMCx, &sdmmc_cmdinit);
 2189              		.loc 1 793 34 is_stmt 0 view .LVU657
 2190 0014 4FF48063 		mov	r3, #1024
 2191 0018 0593     		str	r3, [sp, #20]
 794:Drivers/STM32F7xx_HAL_Driver/Src/stm32f7xx_ll_sdmmc.c ****   
 2192              		.loc 1 794 3 is_stmt 1 view .LVU658
 794:Drivers/STM32F7xx_HAL_Driver/Src/stm32f7xx_ll_sdmmc.c ****   
 2193              		.loc 1 794 9 is_stmt 0 view .LVU659
 2194 001a 01A9     		add	r1, sp, #4
 2195 001c FFF7FEFF 		bl	SDMMC_SendCommand
 2196              	.LVL156:
 797:Drivers/STM32F7xx_HAL_Driver/Src/stm32f7xx_ll_sdmmc.c **** 
 2197              		.loc 1 797 3 is_stmt 1 view .LVU660
 797:Drivers/STM32F7xx_HAL_Driver/Src/stm32f7xx_ll_sdmmc.c **** 
 2198              		.loc 1 797 16 is_stmt 0 view .LVU661
 2199 0020 41F28832 		movw	r2, #5000
 2200 0024 2946     		mov	r1, r5
 2201 0026 2046     		mov	r0, r4
 2202 0028 FFF7FEFF 		bl	SDMMC_GetCmdResp1
 2203              	.LVL157:
 799:Drivers/STM32F7xx_HAL_Driver/Src/stm32f7xx_ll_sdmmc.c **** }
ARM GAS  /tmp/ccPnSfMB.s 			page 75


 2204              		.loc 1 799 3 is_stmt 1 view .LVU662
 800:Drivers/STM32F7xx_HAL_Driver/Src/stm32f7xx_ll_sdmmc.c **** 
 2205              		.loc 1 800 1 is_stmt 0 view .LVU663
 2206 002c 07B0     		add	sp, sp, #28
 2207              	.LCFI42:
 2208              		.cfi_def_cfa_offset 12
 2209              		@ sp needed
 2210 002e 30BD     		pop	{r4, r5, pc}
 800:Drivers/STM32F7xx_HAL_Driver/Src/stm32f7xx_ll_sdmmc.c **** 
 2211              		.loc 1 800 1 view .LVU664
 2212              		.cfi_endproc
 2213              	.LFE165:
 2215              		.section	.text.SDMMC_CmdGoIdleState,"ax",%progbits
 2216              		.align	1
 2217              		.global	SDMMC_CmdGoIdleState
 2218              		.syntax unified
 2219              		.thumb
 2220              		.thumb_func
 2221              		.fpu fpv5-d16
 2223              	SDMMC_CmdGoIdleState:
 2224              	.LVL158:
 2225              	.LFB166:
 808:Drivers/STM32F7xx_HAL_Driver/Src/stm32f7xx_ll_sdmmc.c ****   SDMMC_CmdInitTypeDef  sdmmc_cmdinit;
 2226              		.loc 1 808 1 is_stmt 1 view -0
 2227              		.cfi_startproc
 2228              		@ args = 0, pretend = 0, frame = 24
 2229              		@ frame_needed = 0, uses_anonymous_args = 0
 808:Drivers/STM32F7xx_HAL_Driver/Src/stm32f7xx_ll_sdmmc.c ****   SDMMC_CmdInitTypeDef  sdmmc_cmdinit;
 2230              		.loc 1 808 1 is_stmt 0 view .LVU666
 2231 0000 10B5     		push	{r4, lr}
 2232              	.LCFI43:
 2233              		.cfi_def_cfa_offset 8
 2234              		.cfi_offset 4, -8
 2235              		.cfi_offset 14, -4
 2236 0002 86B0     		sub	sp, sp, #24
 2237              	.LCFI44:
 2238              		.cfi_def_cfa_offset 32
 2239 0004 0446     		mov	r4, r0
 809:Drivers/STM32F7xx_HAL_Driver/Src/stm32f7xx_ll_sdmmc.c ****   uint32_t errorstate;
 2240              		.loc 1 809 3 is_stmt 1 view .LVU667
 810:Drivers/STM32F7xx_HAL_Driver/Src/stm32f7xx_ll_sdmmc.c ****   
 2241              		.loc 1 810 3 view .LVU668
 812:Drivers/STM32F7xx_HAL_Driver/Src/stm32f7xx_ll_sdmmc.c ****   sdmmc_cmdinit.CmdIndex         = SDMMC_CMD_GO_IDLE_STATE;
 2242              		.loc 1 812 3 view .LVU669
 812:Drivers/STM32F7xx_HAL_Driver/Src/stm32f7xx_ll_sdmmc.c ****   sdmmc_cmdinit.CmdIndex         = SDMMC_CMD_GO_IDLE_STATE;
 2243              		.loc 1 812 34 is_stmt 0 view .LVU670
 2244 0006 0023     		movs	r3, #0
 2245 0008 0193     		str	r3, [sp, #4]
 813:Drivers/STM32F7xx_HAL_Driver/Src/stm32f7xx_ll_sdmmc.c ****   sdmmc_cmdinit.Response         = SDMMC_RESPONSE_NO;
 2246              		.loc 1 813 3 is_stmt 1 view .LVU671
 813:Drivers/STM32F7xx_HAL_Driver/Src/stm32f7xx_ll_sdmmc.c ****   sdmmc_cmdinit.Response         = SDMMC_RESPONSE_NO;
 2247              		.loc 1 813 34 is_stmt 0 view .LVU672
 2248 000a 0293     		str	r3, [sp, #8]
 814:Drivers/STM32F7xx_HAL_Driver/Src/stm32f7xx_ll_sdmmc.c ****   sdmmc_cmdinit.WaitForInterrupt = SDMMC_WAIT_NO;
 2249              		.loc 1 814 3 is_stmt 1 view .LVU673
 814:Drivers/STM32F7xx_HAL_Driver/Src/stm32f7xx_ll_sdmmc.c ****   sdmmc_cmdinit.WaitForInterrupt = SDMMC_WAIT_NO;
 2250              		.loc 1 814 34 is_stmt 0 view .LVU674
ARM GAS  /tmp/ccPnSfMB.s 			page 76


 2251 000c 0393     		str	r3, [sp, #12]
 815:Drivers/STM32F7xx_HAL_Driver/Src/stm32f7xx_ll_sdmmc.c ****   sdmmc_cmdinit.CPSM             = SDMMC_CPSM_ENABLE;
 2252              		.loc 1 815 3 is_stmt 1 view .LVU675
 815:Drivers/STM32F7xx_HAL_Driver/Src/stm32f7xx_ll_sdmmc.c ****   sdmmc_cmdinit.CPSM             = SDMMC_CPSM_ENABLE;
 2253              		.loc 1 815 34 is_stmt 0 view .LVU676
 2254 000e 0493     		str	r3, [sp, #16]
 816:Drivers/STM32F7xx_HAL_Driver/Src/stm32f7xx_ll_sdmmc.c ****   (void)SDMMC_SendCommand(SDMMCx, &sdmmc_cmdinit);
 2255              		.loc 1 816 3 is_stmt 1 view .LVU677
 816:Drivers/STM32F7xx_HAL_Driver/Src/stm32f7xx_ll_sdmmc.c ****   (void)SDMMC_SendCommand(SDMMCx, &sdmmc_cmdinit);
 2256              		.loc 1 816 34 is_stmt 0 view .LVU678
 2257 0010 4FF48063 		mov	r3, #1024
 2258 0014 0593     		str	r3, [sp, #20]
 817:Drivers/STM32F7xx_HAL_Driver/Src/stm32f7xx_ll_sdmmc.c ****   
 2259              		.loc 1 817 3 is_stmt 1 view .LVU679
 817:Drivers/STM32F7xx_HAL_Driver/Src/stm32f7xx_ll_sdmmc.c ****   
 2260              		.loc 1 817 9 is_stmt 0 view .LVU680
 2261 0016 01A9     		add	r1, sp, #4
 2262 0018 FFF7FEFF 		bl	SDMMC_SendCommand
 2263              	.LVL159:
 820:Drivers/STM32F7xx_HAL_Driver/Src/stm32f7xx_ll_sdmmc.c **** 
 2264              		.loc 1 820 3 is_stmt 1 view .LVU681
 820:Drivers/STM32F7xx_HAL_Driver/Src/stm32f7xx_ll_sdmmc.c **** 
 2265              		.loc 1 820 16 is_stmt 0 view .LVU682
 2266 001c 2046     		mov	r0, r4
 2267 001e FFF7FEFF 		bl	SDMMC_GetCmdError
 2268              	.LVL160:
 822:Drivers/STM32F7xx_HAL_Driver/Src/stm32f7xx_ll_sdmmc.c **** }
 2269              		.loc 1 822 3 is_stmt 1 view .LVU683
 823:Drivers/STM32F7xx_HAL_Driver/Src/stm32f7xx_ll_sdmmc.c **** 
 2270              		.loc 1 823 1 is_stmt 0 view .LVU684
 2271 0022 06B0     		add	sp, sp, #24
 2272              	.LCFI45:
 2273              		.cfi_def_cfa_offset 8
 2274              		@ sp needed
 2275 0024 10BD     		pop	{r4, pc}
 823:Drivers/STM32F7xx_HAL_Driver/Src/stm32f7xx_ll_sdmmc.c **** 
 2276              		.loc 1 823 1 view .LVU685
 2277              		.cfi_endproc
 2278              	.LFE166:
 2280              		.section	.text.SDMMC_CmdOperCond,"ax",%progbits
 2281              		.align	1
 2282              		.global	SDMMC_CmdOperCond
 2283              		.syntax unified
 2284              		.thumb
 2285              		.thumb_func
 2286              		.fpu fpv5-d16
 2288              	SDMMC_CmdOperCond:
 2289              	.LVL161:
 2290              	.LFB167:
 831:Drivers/STM32F7xx_HAL_Driver/Src/stm32f7xx_ll_sdmmc.c ****   SDMMC_CmdInitTypeDef  sdmmc_cmdinit;
 2291              		.loc 1 831 1 is_stmt 1 view -0
 2292              		.cfi_startproc
 2293              		@ args = 0, pretend = 0, frame = 24
 2294              		@ frame_needed = 0, uses_anonymous_args = 0
 831:Drivers/STM32F7xx_HAL_Driver/Src/stm32f7xx_ll_sdmmc.c ****   SDMMC_CmdInitTypeDef  sdmmc_cmdinit;
 2295              		.loc 1 831 1 is_stmt 0 view .LVU687
 2296 0000 10B5     		push	{r4, lr}
ARM GAS  /tmp/ccPnSfMB.s 			page 77


 2297              	.LCFI46:
 2298              		.cfi_def_cfa_offset 8
 2299              		.cfi_offset 4, -8
 2300              		.cfi_offset 14, -4
 2301 0002 86B0     		sub	sp, sp, #24
 2302              	.LCFI47:
 2303              		.cfi_def_cfa_offset 32
 2304 0004 0446     		mov	r4, r0
 832:Drivers/STM32F7xx_HAL_Driver/Src/stm32f7xx_ll_sdmmc.c ****   uint32_t errorstate;
 2305              		.loc 1 832 3 is_stmt 1 view .LVU688
 833:Drivers/STM32F7xx_HAL_Driver/Src/stm32f7xx_ll_sdmmc.c ****   
 2306              		.loc 1 833 3 view .LVU689
 840:Drivers/STM32F7xx_HAL_Driver/Src/stm32f7xx_ll_sdmmc.c ****   sdmmc_cmdinit.CmdIndex         = SDMMC_CMD_HS_SEND_EXT_CSD;
 2307              		.loc 1 840 3 view .LVU690
 840:Drivers/STM32F7xx_HAL_Driver/Src/stm32f7xx_ll_sdmmc.c ****   sdmmc_cmdinit.CmdIndex         = SDMMC_CMD_HS_SEND_EXT_CSD;
 2308              		.loc 1 840 34 is_stmt 0 view .LVU691
 2309 0006 4FF4D573 		mov	r3, #426
 2310 000a 0193     		str	r3, [sp, #4]
 841:Drivers/STM32F7xx_HAL_Driver/Src/stm32f7xx_ll_sdmmc.c ****   sdmmc_cmdinit.Response         = SDMMC_RESPONSE_SHORT;
 2311              		.loc 1 841 3 is_stmt 1 view .LVU692
 841:Drivers/STM32F7xx_HAL_Driver/Src/stm32f7xx_ll_sdmmc.c ****   sdmmc_cmdinit.Response         = SDMMC_RESPONSE_SHORT;
 2312              		.loc 1 841 34 is_stmt 0 view .LVU693
 2313 000c 0823     		movs	r3, #8
 2314 000e 0293     		str	r3, [sp, #8]
 842:Drivers/STM32F7xx_HAL_Driver/Src/stm32f7xx_ll_sdmmc.c ****   sdmmc_cmdinit.WaitForInterrupt = SDMMC_WAIT_NO;
 2315              		.loc 1 842 3 is_stmt 1 view .LVU694
 842:Drivers/STM32F7xx_HAL_Driver/Src/stm32f7xx_ll_sdmmc.c ****   sdmmc_cmdinit.WaitForInterrupt = SDMMC_WAIT_NO;
 2316              		.loc 1 842 34 is_stmt 0 view .LVU695
 2317 0010 4023     		movs	r3, #64
 2318 0012 0393     		str	r3, [sp, #12]
 843:Drivers/STM32F7xx_HAL_Driver/Src/stm32f7xx_ll_sdmmc.c ****   sdmmc_cmdinit.CPSM             = SDMMC_CPSM_ENABLE;
 2319              		.loc 1 843 3 is_stmt 1 view .LVU696
 843:Drivers/STM32F7xx_HAL_Driver/Src/stm32f7xx_ll_sdmmc.c ****   sdmmc_cmdinit.CPSM             = SDMMC_CPSM_ENABLE;
 2320              		.loc 1 843 34 is_stmt 0 view .LVU697
 2321 0014 0023     		movs	r3, #0
 2322 0016 0493     		str	r3, [sp, #16]
 844:Drivers/STM32F7xx_HAL_Driver/Src/stm32f7xx_ll_sdmmc.c ****   (void)SDMMC_SendCommand(SDMMCx, &sdmmc_cmdinit);
 2323              		.loc 1 844 3 is_stmt 1 view .LVU698
 844:Drivers/STM32F7xx_HAL_Driver/Src/stm32f7xx_ll_sdmmc.c ****   (void)SDMMC_SendCommand(SDMMCx, &sdmmc_cmdinit);
 2324              		.loc 1 844 34 is_stmt 0 view .LVU699
 2325 0018 4FF48063 		mov	r3, #1024
 2326 001c 0593     		str	r3, [sp, #20]
 845:Drivers/STM32F7xx_HAL_Driver/Src/stm32f7xx_ll_sdmmc.c ****   
 2327              		.loc 1 845 3 is_stmt 1 view .LVU700
 845:Drivers/STM32F7xx_HAL_Driver/Src/stm32f7xx_ll_sdmmc.c ****   
 2328              		.loc 1 845 9 is_stmt 0 view .LVU701
 2329 001e 01A9     		add	r1, sp, #4
 2330 0020 FFF7FEFF 		bl	SDMMC_SendCommand
 2331              	.LVL162:
 848:Drivers/STM32F7xx_HAL_Driver/Src/stm32f7xx_ll_sdmmc.c **** 
 2332              		.loc 1 848 3 is_stmt 1 view .LVU702
 848:Drivers/STM32F7xx_HAL_Driver/Src/stm32f7xx_ll_sdmmc.c **** 
 2333              		.loc 1 848 16 is_stmt 0 view .LVU703
 2334 0024 2046     		mov	r0, r4
 2335 0026 FFF7FEFF 		bl	SDMMC_GetCmdResp7
 2336              	.LVL163:
 850:Drivers/STM32F7xx_HAL_Driver/Src/stm32f7xx_ll_sdmmc.c **** }
ARM GAS  /tmp/ccPnSfMB.s 			page 78


 2337              		.loc 1 850 3 is_stmt 1 view .LVU704
 851:Drivers/STM32F7xx_HAL_Driver/Src/stm32f7xx_ll_sdmmc.c **** 
 2338              		.loc 1 851 1 is_stmt 0 view .LVU705
 2339 002a 06B0     		add	sp, sp, #24
 2340              	.LCFI48:
 2341              		.cfi_def_cfa_offset 8
 2342              		@ sp needed
 2343 002c 10BD     		pop	{r4, pc}
 851:Drivers/STM32F7xx_HAL_Driver/Src/stm32f7xx_ll_sdmmc.c **** 
 2344              		.loc 1 851 1 view .LVU706
 2345              		.cfi_endproc
 2346              	.LFE167:
 2348              		.section	.text.SDMMC_CmdAppCommand,"ax",%progbits
 2349              		.align	1
 2350              		.global	SDMMC_CmdAppCommand
 2351              		.syntax unified
 2352              		.thumb
 2353              		.thumb_func
 2354              		.fpu fpv5-d16
 2356              	SDMMC_CmdAppCommand:
 2357              	.LVL164:
 2358              	.LFB168:
 862:Drivers/STM32F7xx_HAL_Driver/Src/stm32f7xx_ll_sdmmc.c ****   SDMMC_CmdInitTypeDef  sdmmc_cmdinit;
 2359              		.loc 1 862 1 is_stmt 1 view -0
 2360              		.cfi_startproc
 2361              		@ args = 0, pretend = 0, frame = 24
 2362              		@ frame_needed = 0, uses_anonymous_args = 0
 862:Drivers/STM32F7xx_HAL_Driver/Src/stm32f7xx_ll_sdmmc.c ****   SDMMC_CmdInitTypeDef  sdmmc_cmdinit;
 2363              		.loc 1 862 1 is_stmt 0 view .LVU708
 2364 0000 30B5     		push	{r4, r5, lr}
 2365              	.LCFI49:
 2366              		.cfi_def_cfa_offset 12
 2367              		.cfi_offset 4, -12
 2368              		.cfi_offset 5, -8
 2369              		.cfi_offset 14, -4
 2370 0002 87B0     		sub	sp, sp, #28
 2371              	.LCFI50:
 2372              		.cfi_def_cfa_offset 40
 2373 0004 0446     		mov	r4, r0
 863:Drivers/STM32F7xx_HAL_Driver/Src/stm32f7xx_ll_sdmmc.c ****   uint32_t errorstate;
 2374              		.loc 1 863 3 is_stmt 1 view .LVU709
 864:Drivers/STM32F7xx_HAL_Driver/Src/stm32f7xx_ll_sdmmc.c ****   
 2375              		.loc 1 864 3 view .LVU710
 866:Drivers/STM32F7xx_HAL_Driver/Src/stm32f7xx_ll_sdmmc.c ****   sdmmc_cmdinit.CmdIndex         = SDMMC_CMD_APP_CMD;
 2376              		.loc 1 866 3 view .LVU711
 866:Drivers/STM32F7xx_HAL_Driver/Src/stm32f7xx_ll_sdmmc.c ****   sdmmc_cmdinit.CmdIndex         = SDMMC_CMD_APP_CMD;
 2377              		.loc 1 866 34 is_stmt 0 view .LVU712
 2378 0006 0191     		str	r1, [sp, #4]
 867:Drivers/STM32F7xx_HAL_Driver/Src/stm32f7xx_ll_sdmmc.c ****   sdmmc_cmdinit.Response         = SDMMC_RESPONSE_SHORT;
 2379              		.loc 1 867 3 is_stmt 1 view .LVU713
 867:Drivers/STM32F7xx_HAL_Driver/Src/stm32f7xx_ll_sdmmc.c ****   sdmmc_cmdinit.Response         = SDMMC_RESPONSE_SHORT;
 2380              		.loc 1 867 34 is_stmt 0 view .LVU714
 2381 0008 3725     		movs	r5, #55
 2382 000a 0295     		str	r5, [sp, #8]
 868:Drivers/STM32F7xx_HAL_Driver/Src/stm32f7xx_ll_sdmmc.c ****   sdmmc_cmdinit.WaitForInterrupt = SDMMC_WAIT_NO;
 2383              		.loc 1 868 3 is_stmt 1 view .LVU715
 868:Drivers/STM32F7xx_HAL_Driver/Src/stm32f7xx_ll_sdmmc.c ****   sdmmc_cmdinit.WaitForInterrupt = SDMMC_WAIT_NO;
ARM GAS  /tmp/ccPnSfMB.s 			page 79


 2384              		.loc 1 868 34 is_stmt 0 view .LVU716
 2385 000c 4023     		movs	r3, #64
 2386 000e 0393     		str	r3, [sp, #12]
 869:Drivers/STM32F7xx_HAL_Driver/Src/stm32f7xx_ll_sdmmc.c ****   sdmmc_cmdinit.CPSM             = SDMMC_CPSM_ENABLE;
 2387              		.loc 1 869 3 is_stmt 1 view .LVU717
 869:Drivers/STM32F7xx_HAL_Driver/Src/stm32f7xx_ll_sdmmc.c ****   sdmmc_cmdinit.CPSM             = SDMMC_CPSM_ENABLE;
 2388              		.loc 1 869 34 is_stmt 0 view .LVU718
 2389 0010 0023     		movs	r3, #0
 2390 0012 0493     		str	r3, [sp, #16]
 870:Drivers/STM32F7xx_HAL_Driver/Src/stm32f7xx_ll_sdmmc.c ****   (void)SDMMC_SendCommand(SDMMCx, &sdmmc_cmdinit);
 2391              		.loc 1 870 3 is_stmt 1 view .LVU719
 870:Drivers/STM32F7xx_HAL_Driver/Src/stm32f7xx_ll_sdmmc.c ****   (void)SDMMC_SendCommand(SDMMCx, &sdmmc_cmdinit);
 2392              		.loc 1 870 34 is_stmt 0 view .LVU720
 2393 0014 4FF48063 		mov	r3, #1024
 2394 0018 0593     		str	r3, [sp, #20]
 871:Drivers/STM32F7xx_HAL_Driver/Src/stm32f7xx_ll_sdmmc.c ****   
 2395              		.loc 1 871 3 is_stmt 1 view .LVU721
 871:Drivers/STM32F7xx_HAL_Driver/Src/stm32f7xx_ll_sdmmc.c ****   
 2396              		.loc 1 871 9 is_stmt 0 view .LVU722
 2397 001a 01A9     		add	r1, sp, #4
 2398              	.LVL165:
 871:Drivers/STM32F7xx_HAL_Driver/Src/stm32f7xx_ll_sdmmc.c ****   
 2399              		.loc 1 871 9 view .LVU723
 2400 001c FFF7FEFF 		bl	SDMMC_SendCommand
 2401              	.LVL166:
 877:Drivers/STM32F7xx_HAL_Driver/Src/stm32f7xx_ll_sdmmc.c **** 
 2402              		.loc 1 877 3 is_stmt 1 view .LVU724
 877:Drivers/STM32F7xx_HAL_Driver/Src/stm32f7xx_ll_sdmmc.c **** 
 2403              		.loc 1 877 16 is_stmt 0 view .LVU725
 2404 0020 41F28832 		movw	r2, #5000
 2405 0024 2946     		mov	r1, r5
 2406 0026 2046     		mov	r0, r4
 2407 0028 FFF7FEFF 		bl	SDMMC_GetCmdResp1
 2408              	.LVL167:
 879:Drivers/STM32F7xx_HAL_Driver/Src/stm32f7xx_ll_sdmmc.c **** }
 2409              		.loc 1 879 3 is_stmt 1 view .LVU726
 880:Drivers/STM32F7xx_HAL_Driver/Src/stm32f7xx_ll_sdmmc.c **** 
 2410              		.loc 1 880 1 is_stmt 0 view .LVU727
 2411 002c 07B0     		add	sp, sp, #28
 2412              	.LCFI51:
 2413              		.cfi_def_cfa_offset 12
 2414              		@ sp needed
 2415 002e 30BD     		pop	{r4, r5, pc}
 880:Drivers/STM32F7xx_HAL_Driver/Src/stm32f7xx_ll_sdmmc.c **** 
 2416              		.loc 1 880 1 view .LVU728
 2417              		.cfi_endproc
 2418              	.LFE168:
 2420              		.section	.text.SDMMC_CmdAppOperCommand,"ax",%progbits
 2421              		.align	1
 2422              		.global	SDMMC_CmdAppOperCommand
 2423              		.syntax unified
 2424              		.thumb
 2425              		.thumb_func
 2426              		.fpu fpv5-d16
 2428              	SDMMC_CmdAppOperCommand:
 2429              	.LVL168:
 2430              	.LFB169:
ARM GAS  /tmp/ccPnSfMB.s 			page 80


 890:Drivers/STM32F7xx_HAL_Driver/Src/stm32f7xx_ll_sdmmc.c ****   SDMMC_CmdInitTypeDef  sdmmc_cmdinit;
 2431              		.loc 1 890 1 is_stmt 1 view -0
 2432              		.cfi_startproc
 2433              		@ args = 0, pretend = 0, frame = 24
 2434              		@ frame_needed = 0, uses_anonymous_args = 0
 890:Drivers/STM32F7xx_HAL_Driver/Src/stm32f7xx_ll_sdmmc.c ****   SDMMC_CmdInitTypeDef  sdmmc_cmdinit;
 2435              		.loc 1 890 1 is_stmt 0 view .LVU730
 2436 0000 10B5     		push	{r4, lr}
 2437              	.LCFI52:
 2438              		.cfi_def_cfa_offset 8
 2439              		.cfi_offset 4, -8
 2440              		.cfi_offset 14, -4
 2441 0002 86B0     		sub	sp, sp, #24
 2442              	.LCFI53:
 2443              		.cfi_def_cfa_offset 32
 2444 0004 0446     		mov	r4, r0
 891:Drivers/STM32F7xx_HAL_Driver/Src/stm32f7xx_ll_sdmmc.c ****   uint32_t errorstate;
 2445              		.loc 1 891 3 is_stmt 1 view .LVU731
 892:Drivers/STM32F7xx_HAL_Driver/Src/stm32f7xx_ll_sdmmc.c ****   
 2446              		.loc 1 892 3 view .LVU732
 894:Drivers/STM32F7xx_HAL_Driver/Src/stm32f7xx_ll_sdmmc.c ****   sdmmc_cmdinit.CmdIndex         = SDMMC_CMD_SD_APP_OP_COND;
 2447              		.loc 1 894 3 view .LVU733
 894:Drivers/STM32F7xx_HAL_Driver/Src/stm32f7xx_ll_sdmmc.c ****   sdmmc_cmdinit.CmdIndex         = SDMMC_CMD_SD_APP_OP_COND;
 2448              		.loc 1 894 60 is_stmt 0 view .LVU734
 2449 0006 0A4B     		ldr	r3, .L134
 2450 0008 0B43     		orrs	r3, r3, r1
 894:Drivers/STM32F7xx_HAL_Driver/Src/stm32f7xx_ll_sdmmc.c ****   sdmmc_cmdinit.CmdIndex         = SDMMC_CMD_SD_APP_OP_COND;
 2451              		.loc 1 894 34 view .LVU735
 2452 000a 0193     		str	r3, [sp, #4]
 895:Drivers/STM32F7xx_HAL_Driver/Src/stm32f7xx_ll_sdmmc.c ****   sdmmc_cmdinit.Response         = SDMMC_RESPONSE_SHORT;
 2453              		.loc 1 895 3 is_stmt 1 view .LVU736
 895:Drivers/STM32F7xx_HAL_Driver/Src/stm32f7xx_ll_sdmmc.c ****   sdmmc_cmdinit.Response         = SDMMC_RESPONSE_SHORT;
 2454              		.loc 1 895 34 is_stmt 0 view .LVU737
 2455 000c 2923     		movs	r3, #41
 2456 000e 0293     		str	r3, [sp, #8]
 896:Drivers/STM32F7xx_HAL_Driver/Src/stm32f7xx_ll_sdmmc.c ****   sdmmc_cmdinit.WaitForInterrupt = SDMMC_WAIT_NO;
 2457              		.loc 1 896 3 is_stmt 1 view .LVU738
 896:Drivers/STM32F7xx_HAL_Driver/Src/stm32f7xx_ll_sdmmc.c ****   sdmmc_cmdinit.WaitForInterrupt = SDMMC_WAIT_NO;
 2458              		.loc 1 896 34 is_stmt 0 view .LVU739
 2459 0010 4023     		movs	r3, #64
 2460 0012 0393     		str	r3, [sp, #12]
 897:Drivers/STM32F7xx_HAL_Driver/Src/stm32f7xx_ll_sdmmc.c ****   sdmmc_cmdinit.CPSM             = SDMMC_CPSM_ENABLE;
 2461              		.loc 1 897 3 is_stmt 1 view .LVU740
 897:Drivers/STM32F7xx_HAL_Driver/Src/stm32f7xx_ll_sdmmc.c ****   sdmmc_cmdinit.CPSM             = SDMMC_CPSM_ENABLE;
 2462              		.loc 1 897 34 is_stmt 0 view .LVU741
 2463 0014 0023     		movs	r3, #0
 2464 0016 0493     		str	r3, [sp, #16]
 898:Drivers/STM32F7xx_HAL_Driver/Src/stm32f7xx_ll_sdmmc.c ****   (void)SDMMC_SendCommand(SDMMCx, &sdmmc_cmdinit);
 2465              		.loc 1 898 3 is_stmt 1 view .LVU742
 898:Drivers/STM32F7xx_HAL_Driver/Src/stm32f7xx_ll_sdmmc.c ****   (void)SDMMC_SendCommand(SDMMCx, &sdmmc_cmdinit);
 2466              		.loc 1 898 34 is_stmt 0 view .LVU743
 2467 0018 4FF48063 		mov	r3, #1024
 2468 001c 0593     		str	r3, [sp, #20]
 899:Drivers/STM32F7xx_HAL_Driver/Src/stm32f7xx_ll_sdmmc.c ****   
 2469              		.loc 1 899 3 is_stmt 1 view .LVU744
 899:Drivers/STM32F7xx_HAL_Driver/Src/stm32f7xx_ll_sdmmc.c ****   
 2470              		.loc 1 899 9 is_stmt 0 view .LVU745
ARM GAS  /tmp/ccPnSfMB.s 			page 81


 2471 001e 01A9     		add	r1, sp, #4
 2472              	.LVL169:
 899:Drivers/STM32F7xx_HAL_Driver/Src/stm32f7xx_ll_sdmmc.c ****   
 2473              		.loc 1 899 9 view .LVU746
 2474 0020 FFF7FEFF 		bl	SDMMC_SendCommand
 2475              	.LVL170:
 902:Drivers/STM32F7xx_HAL_Driver/Src/stm32f7xx_ll_sdmmc.c **** 
 2476              		.loc 1 902 3 is_stmt 1 view .LVU747
 902:Drivers/STM32F7xx_HAL_Driver/Src/stm32f7xx_ll_sdmmc.c **** 
 2477              		.loc 1 902 16 is_stmt 0 view .LVU748
 2478 0024 2046     		mov	r0, r4
 2479 0026 FFF7FEFF 		bl	SDMMC_GetCmdResp3
 2480              	.LVL171:
 904:Drivers/STM32F7xx_HAL_Driver/Src/stm32f7xx_ll_sdmmc.c **** }
 2481              		.loc 1 904 3 is_stmt 1 view .LVU749
 905:Drivers/STM32F7xx_HAL_Driver/Src/stm32f7xx_ll_sdmmc.c **** 
 2482              		.loc 1 905 1 is_stmt 0 view .LVU750
 2483 002a 06B0     		add	sp, sp, #24
 2484              	.LCFI54:
 2485              		.cfi_def_cfa_offset 8
 2486              		@ sp needed
 2487 002c 10BD     		pop	{r4, pc}
 2488              	.LVL172:
 2489              	.L135:
 905:Drivers/STM32F7xx_HAL_Driver/Src/stm32f7xx_ll_sdmmc.c **** 
 2490              		.loc 1 905 1 view .LVU751
 2491 002e 00BF     		.align	2
 2492              	.L134:
 2493 0030 00001080 		.word	-2146435072
 2494              		.cfi_endproc
 2495              	.LFE169:
 2497              		.section	.text.SDMMC_CmdBusWidth,"ax",%progbits
 2498              		.align	1
 2499              		.global	SDMMC_CmdBusWidth
 2500              		.syntax unified
 2501              		.thumb
 2502              		.thumb_func
 2503              		.fpu fpv5-d16
 2505              	SDMMC_CmdBusWidth:
 2506              	.LVL173:
 2507              	.LFB170:
 914:Drivers/STM32F7xx_HAL_Driver/Src/stm32f7xx_ll_sdmmc.c ****   SDMMC_CmdInitTypeDef  sdmmc_cmdinit;
 2508              		.loc 1 914 1 is_stmt 1 view -0
 2509              		.cfi_startproc
 2510              		@ args = 0, pretend = 0, frame = 24
 2511              		@ frame_needed = 0, uses_anonymous_args = 0
 914:Drivers/STM32F7xx_HAL_Driver/Src/stm32f7xx_ll_sdmmc.c ****   SDMMC_CmdInitTypeDef  sdmmc_cmdinit;
 2512              		.loc 1 914 1 is_stmt 0 view .LVU753
 2513 0000 30B5     		push	{r4, r5, lr}
 2514              	.LCFI55:
 2515              		.cfi_def_cfa_offset 12
 2516              		.cfi_offset 4, -12
 2517              		.cfi_offset 5, -8
 2518              		.cfi_offset 14, -4
 2519 0002 87B0     		sub	sp, sp, #28
 2520              	.LCFI56:
 2521              		.cfi_def_cfa_offset 40
ARM GAS  /tmp/ccPnSfMB.s 			page 82


 2522 0004 0446     		mov	r4, r0
 915:Drivers/STM32F7xx_HAL_Driver/Src/stm32f7xx_ll_sdmmc.c ****   uint32_t errorstate;
 2523              		.loc 1 915 3 is_stmt 1 view .LVU754
 916:Drivers/STM32F7xx_HAL_Driver/Src/stm32f7xx_ll_sdmmc.c ****   
 2524              		.loc 1 916 3 view .LVU755
 918:Drivers/STM32F7xx_HAL_Driver/Src/stm32f7xx_ll_sdmmc.c ****   sdmmc_cmdinit.CmdIndex         = SDMMC_CMD_APP_SD_SET_BUSWIDTH;
 2525              		.loc 1 918 3 view .LVU756
 918:Drivers/STM32F7xx_HAL_Driver/Src/stm32f7xx_ll_sdmmc.c ****   sdmmc_cmdinit.CmdIndex         = SDMMC_CMD_APP_SD_SET_BUSWIDTH;
 2526              		.loc 1 918 34 is_stmt 0 view .LVU757
 2527 0006 0191     		str	r1, [sp, #4]
 919:Drivers/STM32F7xx_HAL_Driver/Src/stm32f7xx_ll_sdmmc.c ****   sdmmc_cmdinit.Response         = SDMMC_RESPONSE_SHORT;
 2528              		.loc 1 919 3 is_stmt 1 view .LVU758
 919:Drivers/STM32F7xx_HAL_Driver/Src/stm32f7xx_ll_sdmmc.c ****   sdmmc_cmdinit.Response         = SDMMC_RESPONSE_SHORT;
 2529              		.loc 1 919 34 is_stmt 0 view .LVU759
 2530 0008 0625     		movs	r5, #6
 2531 000a 0295     		str	r5, [sp, #8]
 920:Drivers/STM32F7xx_HAL_Driver/Src/stm32f7xx_ll_sdmmc.c ****   sdmmc_cmdinit.WaitForInterrupt = SDMMC_WAIT_NO;
 2532              		.loc 1 920 3 is_stmt 1 view .LVU760
 920:Drivers/STM32F7xx_HAL_Driver/Src/stm32f7xx_ll_sdmmc.c ****   sdmmc_cmdinit.WaitForInterrupt = SDMMC_WAIT_NO;
 2533              		.loc 1 920 34 is_stmt 0 view .LVU761
 2534 000c 4023     		movs	r3, #64
 2535 000e 0393     		str	r3, [sp, #12]
 921:Drivers/STM32F7xx_HAL_Driver/Src/stm32f7xx_ll_sdmmc.c ****   sdmmc_cmdinit.CPSM             = SDMMC_CPSM_ENABLE;
 2536              		.loc 1 921 3 is_stmt 1 view .LVU762
 921:Drivers/STM32F7xx_HAL_Driver/Src/stm32f7xx_ll_sdmmc.c ****   sdmmc_cmdinit.CPSM             = SDMMC_CPSM_ENABLE;
 2537              		.loc 1 921 34 is_stmt 0 view .LVU763
 2538 0010 0023     		movs	r3, #0
 2539 0012 0493     		str	r3, [sp, #16]
 922:Drivers/STM32F7xx_HAL_Driver/Src/stm32f7xx_ll_sdmmc.c ****   (void)SDMMC_SendCommand(SDMMCx, &sdmmc_cmdinit);
 2540              		.loc 1 922 3 is_stmt 1 view .LVU764
 922:Drivers/STM32F7xx_HAL_Driver/Src/stm32f7xx_ll_sdmmc.c ****   (void)SDMMC_SendCommand(SDMMCx, &sdmmc_cmdinit);
 2541              		.loc 1 922 34 is_stmt 0 view .LVU765
 2542 0014 4FF48063 		mov	r3, #1024
 2543 0018 0593     		str	r3, [sp, #20]
 923:Drivers/STM32F7xx_HAL_Driver/Src/stm32f7xx_ll_sdmmc.c ****   
 2544              		.loc 1 923 3 is_stmt 1 view .LVU766
 923:Drivers/STM32F7xx_HAL_Driver/Src/stm32f7xx_ll_sdmmc.c ****   
 2545              		.loc 1 923 9 is_stmt 0 view .LVU767
 2546 001a 01A9     		add	r1, sp, #4
 2547              	.LVL174:
 923:Drivers/STM32F7xx_HAL_Driver/Src/stm32f7xx_ll_sdmmc.c ****   
 2548              		.loc 1 923 9 view .LVU768
 2549 001c FFF7FEFF 		bl	SDMMC_SendCommand
 2550              	.LVL175:
 926:Drivers/STM32F7xx_HAL_Driver/Src/stm32f7xx_ll_sdmmc.c **** 
 2551              		.loc 1 926 3 is_stmt 1 view .LVU769
 926:Drivers/STM32F7xx_HAL_Driver/Src/stm32f7xx_ll_sdmmc.c **** 
 2552              		.loc 1 926 16 is_stmt 0 view .LVU770
 2553 0020 41F28832 		movw	r2, #5000
 2554 0024 2946     		mov	r1, r5
 2555 0026 2046     		mov	r0, r4
 2556 0028 FFF7FEFF 		bl	SDMMC_GetCmdResp1
 2557              	.LVL176:
 928:Drivers/STM32F7xx_HAL_Driver/Src/stm32f7xx_ll_sdmmc.c **** }
 2558              		.loc 1 928 3 is_stmt 1 view .LVU771
 929:Drivers/STM32F7xx_HAL_Driver/Src/stm32f7xx_ll_sdmmc.c **** 
 2559              		.loc 1 929 1 is_stmt 0 view .LVU772
ARM GAS  /tmp/ccPnSfMB.s 			page 83


 2560 002c 07B0     		add	sp, sp, #28
 2561              	.LCFI57:
 2562              		.cfi_def_cfa_offset 12
 2563              		@ sp needed
 2564 002e 30BD     		pop	{r4, r5, pc}
 929:Drivers/STM32F7xx_HAL_Driver/Src/stm32f7xx_ll_sdmmc.c **** 
 2565              		.loc 1 929 1 view .LVU773
 2566              		.cfi_endproc
 2567              	.LFE170:
 2569              		.section	.text.SDMMC_CmdSendSCR,"ax",%progbits
 2570              		.align	1
 2571              		.global	SDMMC_CmdSendSCR
 2572              		.syntax unified
 2573              		.thumb
 2574              		.thumb_func
 2575              		.fpu fpv5-d16
 2577              	SDMMC_CmdSendSCR:
 2578              	.LVL177:
 2579              	.LFB171:
 937:Drivers/STM32F7xx_HAL_Driver/Src/stm32f7xx_ll_sdmmc.c ****   SDMMC_CmdInitTypeDef  sdmmc_cmdinit;
 2580              		.loc 1 937 1 is_stmt 1 view -0
 2581              		.cfi_startproc
 2582              		@ args = 0, pretend = 0, frame = 24
 2583              		@ frame_needed = 0, uses_anonymous_args = 0
 937:Drivers/STM32F7xx_HAL_Driver/Src/stm32f7xx_ll_sdmmc.c ****   SDMMC_CmdInitTypeDef  sdmmc_cmdinit;
 2584              		.loc 1 937 1 is_stmt 0 view .LVU775
 2585 0000 30B5     		push	{r4, r5, lr}
 2586              	.LCFI58:
 2587              		.cfi_def_cfa_offset 12
 2588              		.cfi_offset 4, -12
 2589              		.cfi_offset 5, -8
 2590              		.cfi_offset 14, -4
 2591 0002 87B0     		sub	sp, sp, #28
 2592              	.LCFI59:
 2593              		.cfi_def_cfa_offset 40
 2594 0004 0446     		mov	r4, r0
 938:Drivers/STM32F7xx_HAL_Driver/Src/stm32f7xx_ll_sdmmc.c ****   uint32_t errorstate;
 2595              		.loc 1 938 3 is_stmt 1 view .LVU776
 939:Drivers/STM32F7xx_HAL_Driver/Src/stm32f7xx_ll_sdmmc.c ****   
 2596              		.loc 1 939 3 view .LVU777
 942:Drivers/STM32F7xx_HAL_Driver/Src/stm32f7xx_ll_sdmmc.c ****   sdmmc_cmdinit.CmdIndex         = SDMMC_CMD_SD_APP_SEND_SCR;
 2597              		.loc 1 942 3 view .LVU778
 942:Drivers/STM32F7xx_HAL_Driver/Src/stm32f7xx_ll_sdmmc.c ****   sdmmc_cmdinit.CmdIndex         = SDMMC_CMD_SD_APP_SEND_SCR;
 2598              		.loc 1 942 34 is_stmt 0 view .LVU779
 2599 0006 0023     		movs	r3, #0
 2600 0008 0193     		str	r3, [sp, #4]
 943:Drivers/STM32F7xx_HAL_Driver/Src/stm32f7xx_ll_sdmmc.c ****   sdmmc_cmdinit.Response         = SDMMC_RESPONSE_SHORT;
 2601              		.loc 1 943 3 is_stmt 1 view .LVU780
 943:Drivers/STM32F7xx_HAL_Driver/Src/stm32f7xx_ll_sdmmc.c ****   sdmmc_cmdinit.Response         = SDMMC_RESPONSE_SHORT;
 2602              		.loc 1 943 34 is_stmt 0 view .LVU781
 2603 000a 3325     		movs	r5, #51
 2604 000c 0295     		str	r5, [sp, #8]
 944:Drivers/STM32F7xx_HAL_Driver/Src/stm32f7xx_ll_sdmmc.c ****   sdmmc_cmdinit.WaitForInterrupt = SDMMC_WAIT_NO;
 2605              		.loc 1 944 3 is_stmt 1 view .LVU782
 944:Drivers/STM32F7xx_HAL_Driver/Src/stm32f7xx_ll_sdmmc.c ****   sdmmc_cmdinit.WaitForInterrupt = SDMMC_WAIT_NO;
 2606              		.loc 1 944 34 is_stmt 0 view .LVU783
 2607 000e 4022     		movs	r2, #64
ARM GAS  /tmp/ccPnSfMB.s 			page 84


 2608 0010 0392     		str	r2, [sp, #12]
 945:Drivers/STM32F7xx_HAL_Driver/Src/stm32f7xx_ll_sdmmc.c ****   sdmmc_cmdinit.CPSM             = SDMMC_CPSM_ENABLE;
 2609              		.loc 1 945 3 is_stmt 1 view .LVU784
 945:Drivers/STM32F7xx_HAL_Driver/Src/stm32f7xx_ll_sdmmc.c ****   sdmmc_cmdinit.CPSM             = SDMMC_CPSM_ENABLE;
 2610              		.loc 1 945 34 is_stmt 0 view .LVU785
 2611 0012 0493     		str	r3, [sp, #16]
 946:Drivers/STM32F7xx_HAL_Driver/Src/stm32f7xx_ll_sdmmc.c ****   (void)SDMMC_SendCommand(SDMMCx, &sdmmc_cmdinit);
 2612              		.loc 1 946 3 is_stmt 1 view .LVU786
 946:Drivers/STM32F7xx_HAL_Driver/Src/stm32f7xx_ll_sdmmc.c ****   (void)SDMMC_SendCommand(SDMMCx, &sdmmc_cmdinit);
 2613              		.loc 1 946 34 is_stmt 0 view .LVU787
 2614 0014 4FF48063 		mov	r3, #1024
 2615 0018 0593     		str	r3, [sp, #20]
 947:Drivers/STM32F7xx_HAL_Driver/Src/stm32f7xx_ll_sdmmc.c ****   
 2616              		.loc 1 947 3 is_stmt 1 view .LVU788
 947:Drivers/STM32F7xx_HAL_Driver/Src/stm32f7xx_ll_sdmmc.c ****   
 2617              		.loc 1 947 9 is_stmt 0 view .LVU789
 2618 001a 01A9     		add	r1, sp, #4
 2619 001c FFF7FEFF 		bl	SDMMC_SendCommand
 2620              	.LVL178:
 950:Drivers/STM32F7xx_HAL_Driver/Src/stm32f7xx_ll_sdmmc.c **** 
 2621              		.loc 1 950 3 is_stmt 1 view .LVU790
 950:Drivers/STM32F7xx_HAL_Driver/Src/stm32f7xx_ll_sdmmc.c **** 
 2622              		.loc 1 950 16 is_stmt 0 view .LVU791
 2623 0020 41F28832 		movw	r2, #5000
 2624 0024 2946     		mov	r1, r5
 2625 0026 2046     		mov	r0, r4
 2626 0028 FFF7FEFF 		bl	SDMMC_GetCmdResp1
 2627              	.LVL179:
 952:Drivers/STM32F7xx_HAL_Driver/Src/stm32f7xx_ll_sdmmc.c **** }
 2628              		.loc 1 952 3 is_stmt 1 view .LVU792
 953:Drivers/STM32F7xx_HAL_Driver/Src/stm32f7xx_ll_sdmmc.c **** 
 2629              		.loc 1 953 1 is_stmt 0 view .LVU793
 2630 002c 07B0     		add	sp, sp, #28
 2631              	.LCFI60:
 2632              		.cfi_def_cfa_offset 12
 2633              		@ sp needed
 2634 002e 30BD     		pop	{r4, r5, pc}
 953:Drivers/STM32F7xx_HAL_Driver/Src/stm32f7xx_ll_sdmmc.c **** 
 2635              		.loc 1 953 1 view .LVU794
 2636              		.cfi_endproc
 2637              	.LFE171:
 2639              		.section	.text.SDMMC_CmdSendCID,"ax",%progbits
 2640              		.align	1
 2641              		.global	SDMMC_CmdSendCID
 2642              		.syntax unified
 2643              		.thumb
 2644              		.thumb_func
 2645              		.fpu fpv5-d16
 2647              	SDMMC_CmdSendCID:
 2648              	.LVL180:
 2649              	.LFB172:
 961:Drivers/STM32F7xx_HAL_Driver/Src/stm32f7xx_ll_sdmmc.c ****   SDMMC_CmdInitTypeDef  sdmmc_cmdinit;
 2650              		.loc 1 961 1 is_stmt 1 view -0
 2651              		.cfi_startproc
 2652              		@ args = 0, pretend = 0, frame = 24
 2653              		@ frame_needed = 0, uses_anonymous_args = 0
 961:Drivers/STM32F7xx_HAL_Driver/Src/stm32f7xx_ll_sdmmc.c ****   SDMMC_CmdInitTypeDef  sdmmc_cmdinit;
ARM GAS  /tmp/ccPnSfMB.s 			page 85


 2654              		.loc 1 961 1 is_stmt 0 view .LVU796
 2655 0000 10B5     		push	{r4, lr}
 2656              	.LCFI61:
 2657              		.cfi_def_cfa_offset 8
 2658              		.cfi_offset 4, -8
 2659              		.cfi_offset 14, -4
 2660 0002 86B0     		sub	sp, sp, #24
 2661              	.LCFI62:
 2662              		.cfi_def_cfa_offset 32
 2663 0004 0446     		mov	r4, r0
 962:Drivers/STM32F7xx_HAL_Driver/Src/stm32f7xx_ll_sdmmc.c ****   uint32_t errorstate;
 2664              		.loc 1 962 3 is_stmt 1 view .LVU797
 963:Drivers/STM32F7xx_HAL_Driver/Src/stm32f7xx_ll_sdmmc.c ****   
 2665              		.loc 1 963 3 view .LVU798
 966:Drivers/STM32F7xx_HAL_Driver/Src/stm32f7xx_ll_sdmmc.c ****   sdmmc_cmdinit.CmdIndex         = SDMMC_CMD_ALL_SEND_CID;
 2666              		.loc 1 966 3 view .LVU799
 966:Drivers/STM32F7xx_HAL_Driver/Src/stm32f7xx_ll_sdmmc.c ****   sdmmc_cmdinit.CmdIndex         = SDMMC_CMD_ALL_SEND_CID;
 2667              		.loc 1 966 34 is_stmt 0 view .LVU800
 2668 0006 0023     		movs	r3, #0
 2669 0008 0193     		str	r3, [sp, #4]
 967:Drivers/STM32F7xx_HAL_Driver/Src/stm32f7xx_ll_sdmmc.c ****   sdmmc_cmdinit.Response         = SDMMC_RESPONSE_LONG;
 2670              		.loc 1 967 3 is_stmt 1 view .LVU801
 967:Drivers/STM32F7xx_HAL_Driver/Src/stm32f7xx_ll_sdmmc.c ****   sdmmc_cmdinit.Response         = SDMMC_RESPONSE_LONG;
 2671              		.loc 1 967 34 is_stmt 0 view .LVU802
 2672 000a 0222     		movs	r2, #2
 2673 000c 0292     		str	r2, [sp, #8]
 968:Drivers/STM32F7xx_HAL_Driver/Src/stm32f7xx_ll_sdmmc.c ****   sdmmc_cmdinit.WaitForInterrupt = SDMMC_WAIT_NO;
 2674              		.loc 1 968 3 is_stmt 1 view .LVU803
 968:Drivers/STM32F7xx_HAL_Driver/Src/stm32f7xx_ll_sdmmc.c ****   sdmmc_cmdinit.WaitForInterrupt = SDMMC_WAIT_NO;
 2675              		.loc 1 968 34 is_stmt 0 view .LVU804
 2676 000e C022     		movs	r2, #192
 2677 0010 0392     		str	r2, [sp, #12]
 969:Drivers/STM32F7xx_HAL_Driver/Src/stm32f7xx_ll_sdmmc.c ****   sdmmc_cmdinit.CPSM             = SDMMC_CPSM_ENABLE;
 2678              		.loc 1 969 3 is_stmt 1 view .LVU805
 969:Drivers/STM32F7xx_HAL_Driver/Src/stm32f7xx_ll_sdmmc.c ****   sdmmc_cmdinit.CPSM             = SDMMC_CPSM_ENABLE;
 2679              		.loc 1 969 34 is_stmt 0 view .LVU806
 2680 0012 0493     		str	r3, [sp, #16]
 970:Drivers/STM32F7xx_HAL_Driver/Src/stm32f7xx_ll_sdmmc.c ****   (void)SDMMC_SendCommand(SDMMCx, &sdmmc_cmdinit);
 2681              		.loc 1 970 3 is_stmt 1 view .LVU807
 970:Drivers/STM32F7xx_HAL_Driver/Src/stm32f7xx_ll_sdmmc.c ****   (void)SDMMC_SendCommand(SDMMCx, &sdmmc_cmdinit);
 2682              		.loc 1 970 34 is_stmt 0 view .LVU808
 2683 0014 4FF48063 		mov	r3, #1024
 2684 0018 0593     		str	r3, [sp, #20]
 971:Drivers/STM32F7xx_HAL_Driver/Src/stm32f7xx_ll_sdmmc.c ****   
 2685              		.loc 1 971 3 is_stmt 1 view .LVU809
 971:Drivers/STM32F7xx_HAL_Driver/Src/stm32f7xx_ll_sdmmc.c ****   
 2686              		.loc 1 971 9 is_stmt 0 view .LVU810
 2687 001a 01A9     		add	r1, sp, #4
 2688 001c FFF7FEFF 		bl	SDMMC_SendCommand
 2689              	.LVL181:
 974:Drivers/STM32F7xx_HAL_Driver/Src/stm32f7xx_ll_sdmmc.c **** 
 2690              		.loc 1 974 3 is_stmt 1 view .LVU811
 974:Drivers/STM32F7xx_HAL_Driver/Src/stm32f7xx_ll_sdmmc.c **** 
 2691              		.loc 1 974 16 is_stmt 0 view .LVU812
 2692 0020 2046     		mov	r0, r4
 2693 0022 FFF7FEFF 		bl	SDMMC_GetCmdResp2
 2694              	.LVL182:
ARM GAS  /tmp/ccPnSfMB.s 			page 86


 976:Drivers/STM32F7xx_HAL_Driver/Src/stm32f7xx_ll_sdmmc.c **** }
 2695              		.loc 1 976 3 is_stmt 1 view .LVU813
 977:Drivers/STM32F7xx_HAL_Driver/Src/stm32f7xx_ll_sdmmc.c **** 
 2696              		.loc 1 977 1 is_stmt 0 view .LVU814
 2697 0026 06B0     		add	sp, sp, #24
 2698              	.LCFI63:
 2699              		.cfi_def_cfa_offset 8
 2700              		@ sp needed
 2701 0028 10BD     		pop	{r4, pc}
 977:Drivers/STM32F7xx_HAL_Driver/Src/stm32f7xx_ll_sdmmc.c **** 
 2702              		.loc 1 977 1 view .LVU815
 2703              		.cfi_endproc
 2704              	.LFE172:
 2706              		.section	.text.SDMMC_CmdSendCSD,"ax",%progbits
 2707              		.align	1
 2708              		.global	SDMMC_CmdSendCSD
 2709              		.syntax unified
 2710              		.thumb
 2711              		.thumb_func
 2712              		.fpu fpv5-d16
 2714              	SDMMC_CmdSendCSD:
 2715              	.LVL183:
 2716              	.LFB173:
 986:Drivers/STM32F7xx_HAL_Driver/Src/stm32f7xx_ll_sdmmc.c ****   SDMMC_CmdInitTypeDef  sdmmc_cmdinit;
 2717              		.loc 1 986 1 is_stmt 1 view -0
 2718              		.cfi_startproc
 2719              		@ args = 0, pretend = 0, frame = 24
 2720              		@ frame_needed = 0, uses_anonymous_args = 0
 986:Drivers/STM32F7xx_HAL_Driver/Src/stm32f7xx_ll_sdmmc.c ****   SDMMC_CmdInitTypeDef  sdmmc_cmdinit;
 2721              		.loc 1 986 1 is_stmt 0 view .LVU817
 2722 0000 10B5     		push	{r4, lr}
 2723              	.LCFI64:
 2724              		.cfi_def_cfa_offset 8
 2725              		.cfi_offset 4, -8
 2726              		.cfi_offset 14, -4
 2727 0002 86B0     		sub	sp, sp, #24
 2728              	.LCFI65:
 2729              		.cfi_def_cfa_offset 32
 2730 0004 0446     		mov	r4, r0
 987:Drivers/STM32F7xx_HAL_Driver/Src/stm32f7xx_ll_sdmmc.c ****   uint32_t errorstate;
 2731              		.loc 1 987 3 is_stmt 1 view .LVU818
 988:Drivers/STM32F7xx_HAL_Driver/Src/stm32f7xx_ll_sdmmc.c ****   
 2732              		.loc 1 988 3 view .LVU819
 991:Drivers/STM32F7xx_HAL_Driver/Src/stm32f7xx_ll_sdmmc.c ****   sdmmc_cmdinit.CmdIndex         = SDMMC_CMD_SEND_CSD;
 2733              		.loc 1 991 3 view .LVU820
 991:Drivers/STM32F7xx_HAL_Driver/Src/stm32f7xx_ll_sdmmc.c ****   sdmmc_cmdinit.CmdIndex         = SDMMC_CMD_SEND_CSD;
 2734              		.loc 1 991 34 is_stmt 0 view .LVU821
 2735 0006 0191     		str	r1, [sp, #4]
 992:Drivers/STM32F7xx_HAL_Driver/Src/stm32f7xx_ll_sdmmc.c ****   sdmmc_cmdinit.Response         = SDMMC_RESPONSE_LONG;
 2736              		.loc 1 992 3 is_stmt 1 view .LVU822
 992:Drivers/STM32F7xx_HAL_Driver/Src/stm32f7xx_ll_sdmmc.c ****   sdmmc_cmdinit.Response         = SDMMC_RESPONSE_LONG;
 2737              		.loc 1 992 34 is_stmt 0 view .LVU823
 2738 0008 0923     		movs	r3, #9
 2739 000a 0293     		str	r3, [sp, #8]
 993:Drivers/STM32F7xx_HAL_Driver/Src/stm32f7xx_ll_sdmmc.c ****   sdmmc_cmdinit.WaitForInterrupt = SDMMC_WAIT_NO;
 2740              		.loc 1 993 3 is_stmt 1 view .LVU824
 993:Drivers/STM32F7xx_HAL_Driver/Src/stm32f7xx_ll_sdmmc.c ****   sdmmc_cmdinit.WaitForInterrupt = SDMMC_WAIT_NO;
ARM GAS  /tmp/ccPnSfMB.s 			page 87


 2741              		.loc 1 993 34 is_stmt 0 view .LVU825
 2742 000c C023     		movs	r3, #192
 2743 000e 0393     		str	r3, [sp, #12]
 994:Drivers/STM32F7xx_HAL_Driver/Src/stm32f7xx_ll_sdmmc.c ****   sdmmc_cmdinit.CPSM             = SDMMC_CPSM_ENABLE;
 2744              		.loc 1 994 3 is_stmt 1 view .LVU826
 994:Drivers/STM32F7xx_HAL_Driver/Src/stm32f7xx_ll_sdmmc.c ****   sdmmc_cmdinit.CPSM             = SDMMC_CPSM_ENABLE;
 2745              		.loc 1 994 34 is_stmt 0 view .LVU827
 2746 0010 0023     		movs	r3, #0
 2747 0012 0493     		str	r3, [sp, #16]
 995:Drivers/STM32F7xx_HAL_Driver/Src/stm32f7xx_ll_sdmmc.c ****   (void)SDMMC_SendCommand(SDMMCx, &sdmmc_cmdinit);
 2748              		.loc 1 995 3 is_stmt 1 view .LVU828
 995:Drivers/STM32F7xx_HAL_Driver/Src/stm32f7xx_ll_sdmmc.c ****   (void)SDMMC_SendCommand(SDMMCx, &sdmmc_cmdinit);
 2749              		.loc 1 995 34 is_stmt 0 view .LVU829
 2750 0014 4FF48063 		mov	r3, #1024
 2751 0018 0593     		str	r3, [sp, #20]
 996:Drivers/STM32F7xx_HAL_Driver/Src/stm32f7xx_ll_sdmmc.c ****   
 2752              		.loc 1 996 3 is_stmt 1 view .LVU830
 996:Drivers/STM32F7xx_HAL_Driver/Src/stm32f7xx_ll_sdmmc.c ****   
 2753              		.loc 1 996 9 is_stmt 0 view .LVU831
 2754 001a 01A9     		add	r1, sp, #4
 2755              	.LVL184:
 996:Drivers/STM32F7xx_HAL_Driver/Src/stm32f7xx_ll_sdmmc.c ****   
 2756              		.loc 1 996 9 view .LVU832
 2757 001c FFF7FEFF 		bl	SDMMC_SendCommand
 2758              	.LVL185:
 999:Drivers/STM32F7xx_HAL_Driver/Src/stm32f7xx_ll_sdmmc.c **** 
 2759              		.loc 1 999 3 is_stmt 1 view .LVU833
 999:Drivers/STM32F7xx_HAL_Driver/Src/stm32f7xx_ll_sdmmc.c **** 
 2760              		.loc 1 999 16 is_stmt 0 view .LVU834
 2761 0020 2046     		mov	r0, r4
 2762 0022 FFF7FEFF 		bl	SDMMC_GetCmdResp2
 2763              	.LVL186:
1001:Drivers/STM32F7xx_HAL_Driver/Src/stm32f7xx_ll_sdmmc.c **** }
 2764              		.loc 1 1001 3 is_stmt 1 view .LVU835
1002:Drivers/STM32F7xx_HAL_Driver/Src/stm32f7xx_ll_sdmmc.c **** 
 2765              		.loc 1 1002 1 is_stmt 0 view .LVU836
 2766 0026 06B0     		add	sp, sp, #24
 2767              	.LCFI66:
 2768              		.cfi_def_cfa_offset 8
 2769              		@ sp needed
 2770 0028 10BD     		pop	{r4, pc}
1002:Drivers/STM32F7xx_HAL_Driver/Src/stm32f7xx_ll_sdmmc.c **** 
 2771              		.loc 1 1002 1 view .LVU837
 2772              		.cfi_endproc
 2773              	.LFE173:
 2775              		.section	.text.SDMMC_CmdSetRelAdd,"ax",%progbits
 2776              		.align	1
 2777              		.global	SDMMC_CmdSetRelAdd
 2778              		.syntax unified
 2779              		.thumb
 2780              		.thumb_func
 2781              		.fpu fpv5-d16
 2783              	SDMMC_CmdSetRelAdd:
 2784              	.LVL187:
 2785              	.LFB174:
1011:Drivers/STM32F7xx_HAL_Driver/Src/stm32f7xx_ll_sdmmc.c ****   SDMMC_CmdInitTypeDef  sdmmc_cmdinit;
 2786              		.loc 1 1011 1 is_stmt 1 view -0
ARM GAS  /tmp/ccPnSfMB.s 			page 88


 2787              		.cfi_startproc
 2788              		@ args = 0, pretend = 0, frame = 24
 2789              		@ frame_needed = 0, uses_anonymous_args = 0
1011:Drivers/STM32F7xx_HAL_Driver/Src/stm32f7xx_ll_sdmmc.c ****   SDMMC_CmdInitTypeDef  sdmmc_cmdinit;
 2790              		.loc 1 1011 1 is_stmt 0 view .LVU839
 2791 0000 70B5     		push	{r4, r5, r6, lr}
 2792              	.LCFI67:
 2793              		.cfi_def_cfa_offset 16
 2794              		.cfi_offset 4, -16
 2795              		.cfi_offset 5, -12
 2796              		.cfi_offset 6, -8
 2797              		.cfi_offset 14, -4
 2798 0002 86B0     		sub	sp, sp, #24
 2799              	.LCFI68:
 2800              		.cfi_def_cfa_offset 40
 2801 0004 0446     		mov	r4, r0
 2802 0006 0D46     		mov	r5, r1
1012:Drivers/STM32F7xx_HAL_Driver/Src/stm32f7xx_ll_sdmmc.c ****   uint32_t errorstate;
 2803              		.loc 1 1012 3 is_stmt 1 view .LVU840
1013:Drivers/STM32F7xx_HAL_Driver/Src/stm32f7xx_ll_sdmmc.c ****   
 2804              		.loc 1 1013 3 view .LVU841
1016:Drivers/STM32F7xx_HAL_Driver/Src/stm32f7xx_ll_sdmmc.c ****   sdmmc_cmdinit.CmdIndex         = SDMMC_CMD_SET_REL_ADDR;
 2805              		.loc 1 1016 3 view .LVU842
1016:Drivers/STM32F7xx_HAL_Driver/Src/stm32f7xx_ll_sdmmc.c ****   sdmmc_cmdinit.CmdIndex         = SDMMC_CMD_SET_REL_ADDR;
 2806              		.loc 1 1016 34 is_stmt 0 view .LVU843
 2807 0008 0023     		movs	r3, #0
 2808 000a 0193     		str	r3, [sp, #4]
1017:Drivers/STM32F7xx_HAL_Driver/Src/stm32f7xx_ll_sdmmc.c ****   sdmmc_cmdinit.Response         = SDMMC_RESPONSE_SHORT;
 2809              		.loc 1 1017 3 is_stmt 1 view .LVU844
1017:Drivers/STM32F7xx_HAL_Driver/Src/stm32f7xx_ll_sdmmc.c ****   sdmmc_cmdinit.Response         = SDMMC_RESPONSE_SHORT;
 2810              		.loc 1 1017 34 is_stmt 0 view .LVU845
 2811 000c 0326     		movs	r6, #3
 2812 000e 0296     		str	r6, [sp, #8]
1018:Drivers/STM32F7xx_HAL_Driver/Src/stm32f7xx_ll_sdmmc.c ****   sdmmc_cmdinit.WaitForInterrupt = SDMMC_WAIT_NO;
 2813              		.loc 1 1018 3 is_stmt 1 view .LVU846
1018:Drivers/STM32F7xx_HAL_Driver/Src/stm32f7xx_ll_sdmmc.c ****   sdmmc_cmdinit.WaitForInterrupt = SDMMC_WAIT_NO;
 2814              		.loc 1 1018 34 is_stmt 0 view .LVU847
 2815 0010 4022     		movs	r2, #64
 2816 0012 0392     		str	r2, [sp, #12]
1019:Drivers/STM32F7xx_HAL_Driver/Src/stm32f7xx_ll_sdmmc.c ****   sdmmc_cmdinit.CPSM             = SDMMC_CPSM_ENABLE;
 2817              		.loc 1 1019 3 is_stmt 1 view .LVU848
1019:Drivers/STM32F7xx_HAL_Driver/Src/stm32f7xx_ll_sdmmc.c ****   sdmmc_cmdinit.CPSM             = SDMMC_CPSM_ENABLE;
 2818              		.loc 1 1019 34 is_stmt 0 view .LVU849
 2819 0014 0493     		str	r3, [sp, #16]
1020:Drivers/STM32F7xx_HAL_Driver/Src/stm32f7xx_ll_sdmmc.c ****   (void)SDMMC_SendCommand(SDMMCx, &sdmmc_cmdinit);
 2820              		.loc 1 1020 3 is_stmt 1 view .LVU850
1020:Drivers/STM32F7xx_HAL_Driver/Src/stm32f7xx_ll_sdmmc.c ****   (void)SDMMC_SendCommand(SDMMCx, &sdmmc_cmdinit);
 2821              		.loc 1 1020 34 is_stmt 0 view .LVU851
 2822 0016 4FF48063 		mov	r3, #1024
 2823 001a 0593     		str	r3, [sp, #20]
1021:Drivers/STM32F7xx_HAL_Driver/Src/stm32f7xx_ll_sdmmc.c ****   
 2824              		.loc 1 1021 3 is_stmt 1 view .LVU852
1021:Drivers/STM32F7xx_HAL_Driver/Src/stm32f7xx_ll_sdmmc.c ****   
 2825              		.loc 1 1021 9 is_stmt 0 view .LVU853
 2826 001c 01A9     		add	r1, sp, #4
 2827              	.LVL188:
1021:Drivers/STM32F7xx_HAL_Driver/Src/stm32f7xx_ll_sdmmc.c ****   
ARM GAS  /tmp/ccPnSfMB.s 			page 89


 2828              		.loc 1 1021 9 view .LVU854
 2829 001e FFF7FEFF 		bl	SDMMC_SendCommand
 2830              	.LVL189:
1024:Drivers/STM32F7xx_HAL_Driver/Src/stm32f7xx_ll_sdmmc.c **** 
 2831              		.loc 1 1024 3 is_stmt 1 view .LVU855
1024:Drivers/STM32F7xx_HAL_Driver/Src/stm32f7xx_ll_sdmmc.c **** 
 2832              		.loc 1 1024 16 is_stmt 0 view .LVU856
 2833 0022 2A46     		mov	r2, r5
 2834 0024 3146     		mov	r1, r6
 2835 0026 2046     		mov	r0, r4
 2836 0028 FFF7FEFF 		bl	SDMMC_GetCmdResp6
 2837              	.LVL190:
1026:Drivers/STM32F7xx_HAL_Driver/Src/stm32f7xx_ll_sdmmc.c **** }
 2838              		.loc 1 1026 3 is_stmt 1 view .LVU857
1027:Drivers/STM32F7xx_HAL_Driver/Src/stm32f7xx_ll_sdmmc.c **** 
 2839              		.loc 1 1027 1 is_stmt 0 view .LVU858
 2840 002c 06B0     		add	sp, sp, #24
 2841              	.LCFI69:
 2842              		.cfi_def_cfa_offset 16
 2843              		@ sp needed
 2844 002e 70BD     		pop	{r4, r5, r6, pc}
1027:Drivers/STM32F7xx_HAL_Driver/Src/stm32f7xx_ll_sdmmc.c **** 
 2845              		.loc 1 1027 1 view .LVU859
 2846              		.cfi_endproc
 2847              	.LFE174:
 2849              		.section	.text.SDMMC_CmdSendStatus,"ax",%progbits
 2850              		.align	1
 2851              		.global	SDMMC_CmdSendStatus
 2852              		.syntax unified
 2853              		.thumb
 2854              		.thumb_func
 2855              		.fpu fpv5-d16
 2857              	SDMMC_CmdSendStatus:
 2858              	.LVL191:
 2859              	.LFB175:
1036:Drivers/STM32F7xx_HAL_Driver/Src/stm32f7xx_ll_sdmmc.c ****   SDMMC_CmdInitTypeDef  sdmmc_cmdinit;
 2860              		.loc 1 1036 1 is_stmt 1 view -0
 2861              		.cfi_startproc
 2862              		@ args = 0, pretend = 0, frame = 24
 2863              		@ frame_needed = 0, uses_anonymous_args = 0
1036:Drivers/STM32F7xx_HAL_Driver/Src/stm32f7xx_ll_sdmmc.c ****   SDMMC_CmdInitTypeDef  sdmmc_cmdinit;
 2864              		.loc 1 1036 1 is_stmt 0 view .LVU861
 2865 0000 30B5     		push	{r4, r5, lr}
 2866              	.LCFI70:
 2867              		.cfi_def_cfa_offset 12
 2868              		.cfi_offset 4, -12
 2869              		.cfi_offset 5, -8
 2870              		.cfi_offset 14, -4
 2871 0002 87B0     		sub	sp, sp, #28
 2872              	.LCFI71:
 2873              		.cfi_def_cfa_offset 40
 2874 0004 0446     		mov	r4, r0
1037:Drivers/STM32F7xx_HAL_Driver/Src/stm32f7xx_ll_sdmmc.c ****   uint32_t errorstate;
 2875              		.loc 1 1037 3 is_stmt 1 view .LVU862
1038:Drivers/STM32F7xx_HAL_Driver/Src/stm32f7xx_ll_sdmmc.c ****   
 2876              		.loc 1 1038 3 view .LVU863
1040:Drivers/STM32F7xx_HAL_Driver/Src/stm32f7xx_ll_sdmmc.c ****   sdmmc_cmdinit.CmdIndex         = SDMMC_CMD_SEND_STATUS;
ARM GAS  /tmp/ccPnSfMB.s 			page 90


 2877              		.loc 1 1040 3 view .LVU864
1040:Drivers/STM32F7xx_HAL_Driver/Src/stm32f7xx_ll_sdmmc.c ****   sdmmc_cmdinit.CmdIndex         = SDMMC_CMD_SEND_STATUS;
 2878              		.loc 1 1040 34 is_stmt 0 view .LVU865
 2879 0006 0191     		str	r1, [sp, #4]
1041:Drivers/STM32F7xx_HAL_Driver/Src/stm32f7xx_ll_sdmmc.c ****   sdmmc_cmdinit.Response         = SDMMC_RESPONSE_SHORT;
 2880              		.loc 1 1041 3 is_stmt 1 view .LVU866
1041:Drivers/STM32F7xx_HAL_Driver/Src/stm32f7xx_ll_sdmmc.c ****   sdmmc_cmdinit.Response         = SDMMC_RESPONSE_SHORT;
 2881              		.loc 1 1041 34 is_stmt 0 view .LVU867
 2882 0008 0D25     		movs	r5, #13
 2883 000a 0295     		str	r5, [sp, #8]
1042:Drivers/STM32F7xx_HAL_Driver/Src/stm32f7xx_ll_sdmmc.c ****   sdmmc_cmdinit.WaitForInterrupt = SDMMC_WAIT_NO;
 2884              		.loc 1 1042 3 is_stmt 1 view .LVU868
1042:Drivers/STM32F7xx_HAL_Driver/Src/stm32f7xx_ll_sdmmc.c ****   sdmmc_cmdinit.WaitForInterrupt = SDMMC_WAIT_NO;
 2885              		.loc 1 1042 34 is_stmt 0 view .LVU869
 2886 000c 4023     		movs	r3, #64
 2887 000e 0393     		str	r3, [sp, #12]
1043:Drivers/STM32F7xx_HAL_Driver/Src/stm32f7xx_ll_sdmmc.c ****   sdmmc_cmdinit.CPSM             = SDMMC_CPSM_ENABLE;
 2888              		.loc 1 1043 3 is_stmt 1 view .LVU870
1043:Drivers/STM32F7xx_HAL_Driver/Src/stm32f7xx_ll_sdmmc.c ****   sdmmc_cmdinit.CPSM             = SDMMC_CPSM_ENABLE;
 2889              		.loc 1 1043 34 is_stmt 0 view .LVU871
 2890 0010 0023     		movs	r3, #0
 2891 0012 0493     		str	r3, [sp, #16]
1044:Drivers/STM32F7xx_HAL_Driver/Src/stm32f7xx_ll_sdmmc.c ****   (void)SDMMC_SendCommand(SDMMCx, &sdmmc_cmdinit);
 2892              		.loc 1 1044 3 is_stmt 1 view .LVU872
1044:Drivers/STM32F7xx_HAL_Driver/Src/stm32f7xx_ll_sdmmc.c ****   (void)SDMMC_SendCommand(SDMMCx, &sdmmc_cmdinit);
 2893              		.loc 1 1044 34 is_stmt 0 view .LVU873
 2894 0014 4FF48063 		mov	r3, #1024
 2895 0018 0593     		str	r3, [sp, #20]
1045:Drivers/STM32F7xx_HAL_Driver/Src/stm32f7xx_ll_sdmmc.c ****   
 2896              		.loc 1 1045 3 is_stmt 1 view .LVU874
1045:Drivers/STM32F7xx_HAL_Driver/Src/stm32f7xx_ll_sdmmc.c ****   
 2897              		.loc 1 1045 9 is_stmt 0 view .LVU875
 2898 001a 01A9     		add	r1, sp, #4
 2899              	.LVL192:
1045:Drivers/STM32F7xx_HAL_Driver/Src/stm32f7xx_ll_sdmmc.c ****   
 2900              		.loc 1 1045 9 view .LVU876
 2901 001c FFF7FEFF 		bl	SDMMC_SendCommand
 2902              	.LVL193:
1048:Drivers/STM32F7xx_HAL_Driver/Src/stm32f7xx_ll_sdmmc.c **** 
 2903              		.loc 1 1048 3 is_stmt 1 view .LVU877
1048:Drivers/STM32F7xx_HAL_Driver/Src/stm32f7xx_ll_sdmmc.c **** 
 2904              		.loc 1 1048 16 is_stmt 0 view .LVU878
 2905 0020 41F28832 		movw	r2, #5000
 2906 0024 2946     		mov	r1, r5
 2907 0026 2046     		mov	r0, r4
 2908 0028 FFF7FEFF 		bl	SDMMC_GetCmdResp1
 2909              	.LVL194:
1050:Drivers/STM32F7xx_HAL_Driver/Src/stm32f7xx_ll_sdmmc.c **** }
 2910              		.loc 1 1050 3 is_stmt 1 view .LVU879
1051:Drivers/STM32F7xx_HAL_Driver/Src/stm32f7xx_ll_sdmmc.c **** 
 2911              		.loc 1 1051 1 is_stmt 0 view .LVU880
 2912 002c 07B0     		add	sp, sp, #28
 2913              	.LCFI72:
 2914              		.cfi_def_cfa_offset 12
 2915              		@ sp needed
 2916 002e 30BD     		pop	{r4, r5, pc}
1051:Drivers/STM32F7xx_HAL_Driver/Src/stm32f7xx_ll_sdmmc.c **** 
ARM GAS  /tmp/ccPnSfMB.s 			page 91


 2917              		.loc 1 1051 1 view .LVU881
 2918              		.cfi_endproc
 2919              	.LFE175:
 2921              		.section	.text.SDMMC_CmdStatusRegister,"ax",%progbits
 2922              		.align	1
 2923              		.global	SDMMC_CmdStatusRegister
 2924              		.syntax unified
 2925              		.thumb
 2926              		.thumb_func
 2927              		.fpu fpv5-d16
 2929              	SDMMC_CmdStatusRegister:
 2930              	.LVL195:
 2931              	.LFB176:
1059:Drivers/STM32F7xx_HAL_Driver/Src/stm32f7xx_ll_sdmmc.c ****   SDMMC_CmdInitTypeDef  sdmmc_cmdinit;
 2932              		.loc 1 1059 1 is_stmt 1 view -0
 2933              		.cfi_startproc
 2934              		@ args = 0, pretend = 0, frame = 24
 2935              		@ frame_needed = 0, uses_anonymous_args = 0
1059:Drivers/STM32F7xx_HAL_Driver/Src/stm32f7xx_ll_sdmmc.c ****   SDMMC_CmdInitTypeDef  sdmmc_cmdinit;
 2936              		.loc 1 1059 1 is_stmt 0 view .LVU883
 2937 0000 30B5     		push	{r4, r5, lr}
 2938              	.LCFI73:
 2939              		.cfi_def_cfa_offset 12
 2940              		.cfi_offset 4, -12
 2941              		.cfi_offset 5, -8
 2942              		.cfi_offset 14, -4
 2943 0002 87B0     		sub	sp, sp, #28
 2944              	.LCFI74:
 2945              		.cfi_def_cfa_offset 40
 2946 0004 0446     		mov	r4, r0
1060:Drivers/STM32F7xx_HAL_Driver/Src/stm32f7xx_ll_sdmmc.c ****   uint32_t errorstate;
 2947              		.loc 1 1060 3 is_stmt 1 view .LVU884
1061:Drivers/STM32F7xx_HAL_Driver/Src/stm32f7xx_ll_sdmmc.c ****   
 2948              		.loc 1 1061 3 view .LVU885
1063:Drivers/STM32F7xx_HAL_Driver/Src/stm32f7xx_ll_sdmmc.c ****   sdmmc_cmdinit.CmdIndex         = SDMMC_CMD_SD_APP_STATUS;
 2949              		.loc 1 1063 3 view .LVU886
1063:Drivers/STM32F7xx_HAL_Driver/Src/stm32f7xx_ll_sdmmc.c ****   sdmmc_cmdinit.CmdIndex         = SDMMC_CMD_SD_APP_STATUS;
 2950              		.loc 1 1063 34 is_stmt 0 view .LVU887
 2951 0006 0023     		movs	r3, #0
 2952 0008 0193     		str	r3, [sp, #4]
1064:Drivers/STM32F7xx_HAL_Driver/Src/stm32f7xx_ll_sdmmc.c ****   sdmmc_cmdinit.Response         = SDMMC_RESPONSE_SHORT;
 2953              		.loc 1 1064 3 is_stmt 1 view .LVU888
1064:Drivers/STM32F7xx_HAL_Driver/Src/stm32f7xx_ll_sdmmc.c ****   sdmmc_cmdinit.Response         = SDMMC_RESPONSE_SHORT;
 2954              		.loc 1 1064 34 is_stmt 0 view .LVU889
 2955 000a 0D25     		movs	r5, #13
 2956 000c 0295     		str	r5, [sp, #8]
1065:Drivers/STM32F7xx_HAL_Driver/Src/stm32f7xx_ll_sdmmc.c ****   sdmmc_cmdinit.WaitForInterrupt = SDMMC_WAIT_NO;
 2957              		.loc 1 1065 3 is_stmt 1 view .LVU890
1065:Drivers/STM32F7xx_HAL_Driver/Src/stm32f7xx_ll_sdmmc.c ****   sdmmc_cmdinit.WaitForInterrupt = SDMMC_WAIT_NO;
 2958              		.loc 1 1065 34 is_stmt 0 view .LVU891
 2959 000e 4022     		movs	r2, #64
 2960 0010 0392     		str	r2, [sp, #12]
1066:Drivers/STM32F7xx_HAL_Driver/Src/stm32f7xx_ll_sdmmc.c ****   sdmmc_cmdinit.CPSM             = SDMMC_CPSM_ENABLE;
 2961              		.loc 1 1066 3 is_stmt 1 view .LVU892
1066:Drivers/STM32F7xx_HAL_Driver/Src/stm32f7xx_ll_sdmmc.c ****   sdmmc_cmdinit.CPSM             = SDMMC_CPSM_ENABLE;
 2962              		.loc 1 1066 34 is_stmt 0 view .LVU893
 2963 0012 0493     		str	r3, [sp, #16]
ARM GAS  /tmp/ccPnSfMB.s 			page 92


1067:Drivers/STM32F7xx_HAL_Driver/Src/stm32f7xx_ll_sdmmc.c ****   (void)SDMMC_SendCommand(SDMMCx, &sdmmc_cmdinit);
 2964              		.loc 1 1067 3 is_stmt 1 view .LVU894
1067:Drivers/STM32F7xx_HAL_Driver/Src/stm32f7xx_ll_sdmmc.c ****   (void)SDMMC_SendCommand(SDMMCx, &sdmmc_cmdinit);
 2965              		.loc 1 1067 34 is_stmt 0 view .LVU895
 2966 0014 4FF48063 		mov	r3, #1024
 2967 0018 0593     		str	r3, [sp, #20]
1068:Drivers/STM32F7xx_HAL_Driver/Src/stm32f7xx_ll_sdmmc.c ****   
 2968              		.loc 1 1068 3 is_stmt 1 view .LVU896
1068:Drivers/STM32F7xx_HAL_Driver/Src/stm32f7xx_ll_sdmmc.c ****   
 2969              		.loc 1 1068 9 is_stmt 0 view .LVU897
 2970 001a 01A9     		add	r1, sp, #4
 2971 001c FFF7FEFF 		bl	SDMMC_SendCommand
 2972              	.LVL196:
1071:Drivers/STM32F7xx_HAL_Driver/Src/stm32f7xx_ll_sdmmc.c **** 
 2973              		.loc 1 1071 3 is_stmt 1 view .LVU898
1071:Drivers/STM32F7xx_HAL_Driver/Src/stm32f7xx_ll_sdmmc.c **** 
 2974              		.loc 1 1071 16 is_stmt 0 view .LVU899
 2975 0020 41F28832 		movw	r2, #5000
 2976 0024 2946     		mov	r1, r5
 2977 0026 2046     		mov	r0, r4
 2978 0028 FFF7FEFF 		bl	SDMMC_GetCmdResp1
 2979              	.LVL197:
1073:Drivers/STM32F7xx_HAL_Driver/Src/stm32f7xx_ll_sdmmc.c **** }
 2980              		.loc 1 1073 3 is_stmt 1 view .LVU900
1074:Drivers/STM32F7xx_HAL_Driver/Src/stm32f7xx_ll_sdmmc.c **** 
 2981              		.loc 1 1074 1 is_stmt 0 view .LVU901
 2982 002c 07B0     		add	sp, sp, #28
 2983              	.LCFI75:
 2984              		.cfi_def_cfa_offset 12
 2985              		@ sp needed
 2986 002e 30BD     		pop	{r4, r5, pc}
1074:Drivers/STM32F7xx_HAL_Driver/Src/stm32f7xx_ll_sdmmc.c **** 
 2987              		.loc 1 1074 1 view .LVU902
 2988              		.cfi_endproc
 2989              	.LFE176:
 2991              		.section	.text.SDMMC_CmdOpCondition,"ax",%progbits
 2992              		.align	1
 2993              		.global	SDMMC_CmdOpCondition
 2994              		.syntax unified
 2995              		.thumb
 2996              		.thumb_func
 2997              		.fpu fpv5-d16
 2999              	SDMMC_CmdOpCondition:
 3000              	.LVL198:
 3001              	.LFB177:
1084:Drivers/STM32F7xx_HAL_Driver/Src/stm32f7xx_ll_sdmmc.c ****   SDMMC_CmdInitTypeDef  sdmmc_cmdinit;
 3002              		.loc 1 1084 1 is_stmt 1 view -0
 3003              		.cfi_startproc
 3004              		@ args = 0, pretend = 0, frame = 24
 3005              		@ frame_needed = 0, uses_anonymous_args = 0
1084:Drivers/STM32F7xx_HAL_Driver/Src/stm32f7xx_ll_sdmmc.c ****   SDMMC_CmdInitTypeDef  sdmmc_cmdinit;
 3006              		.loc 1 1084 1 is_stmt 0 view .LVU904
 3007 0000 10B5     		push	{r4, lr}
 3008              	.LCFI76:
 3009              		.cfi_def_cfa_offset 8
 3010              		.cfi_offset 4, -8
 3011              		.cfi_offset 14, -4
ARM GAS  /tmp/ccPnSfMB.s 			page 93


 3012 0002 86B0     		sub	sp, sp, #24
 3013              	.LCFI77:
 3014              		.cfi_def_cfa_offset 32
 3015 0004 0446     		mov	r4, r0
1085:Drivers/STM32F7xx_HAL_Driver/Src/stm32f7xx_ll_sdmmc.c ****   uint32_t errorstate;
 3016              		.loc 1 1085 3 is_stmt 1 view .LVU905
1086:Drivers/STM32F7xx_HAL_Driver/Src/stm32f7xx_ll_sdmmc.c ****   
 3017              		.loc 1 1086 3 view .LVU906
1088:Drivers/STM32F7xx_HAL_Driver/Src/stm32f7xx_ll_sdmmc.c ****   sdmmc_cmdinit.CmdIndex         = SDMMC_CMD_SEND_OP_COND;
 3018              		.loc 1 1088 3 view .LVU907
1088:Drivers/STM32F7xx_HAL_Driver/Src/stm32f7xx_ll_sdmmc.c ****   sdmmc_cmdinit.CmdIndex         = SDMMC_CMD_SEND_OP_COND;
 3019              		.loc 1 1088 34 is_stmt 0 view .LVU908
 3020 0006 0191     		str	r1, [sp, #4]
1089:Drivers/STM32F7xx_HAL_Driver/Src/stm32f7xx_ll_sdmmc.c ****   sdmmc_cmdinit.Response         = SDMMC_RESPONSE_SHORT;
 3021              		.loc 1 1089 3 is_stmt 1 view .LVU909
1089:Drivers/STM32F7xx_HAL_Driver/Src/stm32f7xx_ll_sdmmc.c ****   sdmmc_cmdinit.Response         = SDMMC_RESPONSE_SHORT;
 3022              		.loc 1 1089 34 is_stmt 0 view .LVU910
 3023 0008 0123     		movs	r3, #1
 3024 000a 0293     		str	r3, [sp, #8]
1090:Drivers/STM32F7xx_HAL_Driver/Src/stm32f7xx_ll_sdmmc.c ****   sdmmc_cmdinit.WaitForInterrupt = SDMMC_WAIT_NO;
 3025              		.loc 1 1090 3 is_stmt 1 view .LVU911
1090:Drivers/STM32F7xx_HAL_Driver/Src/stm32f7xx_ll_sdmmc.c ****   sdmmc_cmdinit.WaitForInterrupt = SDMMC_WAIT_NO;
 3026              		.loc 1 1090 34 is_stmt 0 view .LVU912
 3027 000c 4023     		movs	r3, #64
 3028 000e 0393     		str	r3, [sp, #12]
1091:Drivers/STM32F7xx_HAL_Driver/Src/stm32f7xx_ll_sdmmc.c ****   sdmmc_cmdinit.CPSM             = SDMMC_CPSM_ENABLE;
 3029              		.loc 1 1091 3 is_stmt 1 view .LVU913
1091:Drivers/STM32F7xx_HAL_Driver/Src/stm32f7xx_ll_sdmmc.c ****   sdmmc_cmdinit.CPSM             = SDMMC_CPSM_ENABLE;
 3030              		.loc 1 1091 34 is_stmt 0 view .LVU914
 3031 0010 0023     		movs	r3, #0
 3032 0012 0493     		str	r3, [sp, #16]
1092:Drivers/STM32F7xx_HAL_Driver/Src/stm32f7xx_ll_sdmmc.c ****   (void)SDMMC_SendCommand(SDMMCx, &sdmmc_cmdinit);
 3033              		.loc 1 1092 3 is_stmt 1 view .LVU915
1092:Drivers/STM32F7xx_HAL_Driver/Src/stm32f7xx_ll_sdmmc.c ****   (void)SDMMC_SendCommand(SDMMCx, &sdmmc_cmdinit);
 3034              		.loc 1 1092 34 is_stmt 0 view .LVU916
 3035 0014 4FF48063 		mov	r3, #1024
 3036 0018 0593     		str	r3, [sp, #20]
1093:Drivers/STM32F7xx_HAL_Driver/Src/stm32f7xx_ll_sdmmc.c ****   
 3037              		.loc 1 1093 3 is_stmt 1 view .LVU917
1093:Drivers/STM32F7xx_HAL_Driver/Src/stm32f7xx_ll_sdmmc.c ****   
 3038              		.loc 1 1093 9 is_stmt 0 view .LVU918
 3039 001a 01A9     		add	r1, sp, #4
 3040              	.LVL199:
1093:Drivers/STM32F7xx_HAL_Driver/Src/stm32f7xx_ll_sdmmc.c ****   
 3041              		.loc 1 1093 9 view .LVU919
 3042 001c FFF7FEFF 		bl	SDMMC_SendCommand
 3043              	.LVL200:
1096:Drivers/STM32F7xx_HAL_Driver/Src/stm32f7xx_ll_sdmmc.c **** 
 3044              		.loc 1 1096 3 is_stmt 1 view .LVU920
1096:Drivers/STM32F7xx_HAL_Driver/Src/stm32f7xx_ll_sdmmc.c **** 
 3045              		.loc 1 1096 16 is_stmt 0 view .LVU921
 3046 0020 2046     		mov	r0, r4
 3047 0022 FFF7FEFF 		bl	SDMMC_GetCmdResp3
 3048              	.LVL201:
1098:Drivers/STM32F7xx_HAL_Driver/Src/stm32f7xx_ll_sdmmc.c **** }
 3049              		.loc 1 1098 3 is_stmt 1 view .LVU922
1099:Drivers/STM32F7xx_HAL_Driver/Src/stm32f7xx_ll_sdmmc.c **** 
ARM GAS  /tmp/ccPnSfMB.s 			page 94


 3050              		.loc 1 1099 1 is_stmt 0 view .LVU923
 3051 0026 06B0     		add	sp, sp, #24
 3052              	.LCFI78:
 3053              		.cfi_def_cfa_offset 8
 3054              		@ sp needed
 3055 0028 10BD     		pop	{r4, pc}
1099:Drivers/STM32F7xx_HAL_Driver/Src/stm32f7xx_ll_sdmmc.c **** 
 3056              		.loc 1 1099 1 view .LVU924
 3057              		.cfi_endproc
 3058              	.LFE177:
 3060              		.section	.text.SDMMC_CmdSwitch,"ax",%progbits
 3061              		.align	1
 3062              		.global	SDMMC_CmdSwitch
 3063              		.syntax unified
 3064              		.thumb
 3065              		.thumb_func
 3066              		.fpu fpv5-d16
 3068              	SDMMC_CmdSwitch:
 3069              	.LVL202:
 3070              	.LFB178:
1108:Drivers/STM32F7xx_HAL_Driver/Src/stm32f7xx_ll_sdmmc.c ****   SDMMC_CmdInitTypeDef  sdmmc_cmdinit;
 3071              		.loc 1 1108 1 is_stmt 1 view -0
 3072              		.cfi_startproc
 3073              		@ args = 0, pretend = 0, frame = 24
 3074              		@ frame_needed = 0, uses_anonymous_args = 0
1108:Drivers/STM32F7xx_HAL_Driver/Src/stm32f7xx_ll_sdmmc.c ****   SDMMC_CmdInitTypeDef  sdmmc_cmdinit;
 3075              		.loc 1 1108 1 is_stmt 0 view .LVU926
 3076 0000 30B5     		push	{r4, r5, lr}
 3077              	.LCFI79:
 3078              		.cfi_def_cfa_offset 12
 3079              		.cfi_offset 4, -12
 3080              		.cfi_offset 5, -8
 3081              		.cfi_offset 14, -4
 3082 0002 87B0     		sub	sp, sp, #28
 3083              	.LCFI80:
 3084              		.cfi_def_cfa_offset 40
 3085 0004 0446     		mov	r4, r0
1109:Drivers/STM32F7xx_HAL_Driver/Src/stm32f7xx_ll_sdmmc.c ****   uint32_t errorstate;
 3086              		.loc 1 1109 3 is_stmt 1 view .LVU927
1110:Drivers/STM32F7xx_HAL_Driver/Src/stm32f7xx_ll_sdmmc.c ****   
 3087              		.loc 1 1110 3 view .LVU928
1114:Drivers/STM32F7xx_HAL_Driver/Src/stm32f7xx_ll_sdmmc.c ****   sdmmc_cmdinit.CmdIndex         = SDMMC_CMD_HS_SWITCH;
 3088              		.loc 1 1114 3 view .LVU929
1114:Drivers/STM32F7xx_HAL_Driver/Src/stm32f7xx_ll_sdmmc.c ****   sdmmc_cmdinit.CmdIndex         = SDMMC_CMD_HS_SWITCH;
 3089              		.loc 1 1114 34 is_stmt 0 view .LVU930
 3090 0006 0191     		str	r1, [sp, #4]
1115:Drivers/STM32F7xx_HAL_Driver/Src/stm32f7xx_ll_sdmmc.c ****   sdmmc_cmdinit.Response         = SDMMC_RESPONSE_SHORT;
 3091              		.loc 1 1115 3 is_stmt 1 view .LVU931
1115:Drivers/STM32F7xx_HAL_Driver/Src/stm32f7xx_ll_sdmmc.c ****   sdmmc_cmdinit.Response         = SDMMC_RESPONSE_SHORT;
 3092              		.loc 1 1115 34 is_stmt 0 view .LVU932
 3093 0008 0625     		movs	r5, #6
 3094 000a 0295     		str	r5, [sp, #8]
1116:Drivers/STM32F7xx_HAL_Driver/Src/stm32f7xx_ll_sdmmc.c ****   sdmmc_cmdinit.WaitForInterrupt = SDMMC_WAIT_NO;
 3095              		.loc 1 1116 3 is_stmt 1 view .LVU933
1116:Drivers/STM32F7xx_HAL_Driver/Src/stm32f7xx_ll_sdmmc.c ****   sdmmc_cmdinit.WaitForInterrupt = SDMMC_WAIT_NO;
 3096              		.loc 1 1116 34 is_stmt 0 view .LVU934
 3097 000c 4023     		movs	r3, #64
ARM GAS  /tmp/ccPnSfMB.s 			page 95


 3098 000e 0393     		str	r3, [sp, #12]
1117:Drivers/STM32F7xx_HAL_Driver/Src/stm32f7xx_ll_sdmmc.c ****   sdmmc_cmdinit.CPSM             = SDMMC_CPSM_ENABLE;
 3099              		.loc 1 1117 3 is_stmt 1 view .LVU935
1117:Drivers/STM32F7xx_HAL_Driver/Src/stm32f7xx_ll_sdmmc.c ****   sdmmc_cmdinit.CPSM             = SDMMC_CPSM_ENABLE;
 3100              		.loc 1 1117 34 is_stmt 0 view .LVU936
 3101 0010 0023     		movs	r3, #0
 3102 0012 0493     		str	r3, [sp, #16]
1118:Drivers/STM32F7xx_HAL_Driver/Src/stm32f7xx_ll_sdmmc.c ****   (void)SDMMC_SendCommand(SDMMCx, &sdmmc_cmdinit);
 3103              		.loc 1 1118 3 is_stmt 1 view .LVU937
1118:Drivers/STM32F7xx_HAL_Driver/Src/stm32f7xx_ll_sdmmc.c ****   (void)SDMMC_SendCommand(SDMMCx, &sdmmc_cmdinit);
 3104              		.loc 1 1118 34 is_stmt 0 view .LVU938
 3105 0014 4FF48063 		mov	r3, #1024
 3106 0018 0593     		str	r3, [sp, #20]
1119:Drivers/STM32F7xx_HAL_Driver/Src/stm32f7xx_ll_sdmmc.c ****   
 3107              		.loc 1 1119 3 is_stmt 1 view .LVU939
1119:Drivers/STM32F7xx_HAL_Driver/Src/stm32f7xx_ll_sdmmc.c ****   
 3108              		.loc 1 1119 9 is_stmt 0 view .LVU940
 3109 001a 01A9     		add	r1, sp, #4
 3110              	.LVL203:
1119:Drivers/STM32F7xx_HAL_Driver/Src/stm32f7xx_ll_sdmmc.c ****   
 3111              		.loc 1 1119 9 view .LVU941
 3112 001c FFF7FEFF 		bl	SDMMC_SendCommand
 3113              	.LVL204:
1122:Drivers/STM32F7xx_HAL_Driver/Src/stm32f7xx_ll_sdmmc.c **** 
 3114              		.loc 1 1122 3 is_stmt 1 view .LVU942
1122:Drivers/STM32F7xx_HAL_Driver/Src/stm32f7xx_ll_sdmmc.c **** 
 3115              		.loc 1 1122 16 is_stmt 0 view .LVU943
 3116 0020 41F28832 		movw	r2, #5000
 3117 0024 2946     		mov	r1, r5
 3118 0026 2046     		mov	r0, r4
 3119 0028 FFF7FEFF 		bl	SDMMC_GetCmdResp1
 3120              	.LVL205:
1124:Drivers/STM32F7xx_HAL_Driver/Src/stm32f7xx_ll_sdmmc.c **** }
 3121              		.loc 1 1124 3 is_stmt 1 view .LVU944
1125:Drivers/STM32F7xx_HAL_Driver/Src/stm32f7xx_ll_sdmmc.c **** 
 3122              		.loc 1 1125 1 is_stmt 0 view .LVU945
 3123 002c 07B0     		add	sp, sp, #28
 3124              	.LCFI81:
 3125              		.cfi_def_cfa_offset 12
 3126              		@ sp needed
 3127 002e 30BD     		pop	{r4, r5, pc}
1125:Drivers/STM32F7xx_HAL_Driver/Src/stm32f7xx_ll_sdmmc.c **** 
 3128              		.loc 1 1125 1 view .LVU946
 3129              		.cfi_endproc
 3130              	.LFE178:
 3132              		.text
 3133              	.Letext0:
 3134              		.file 2 "/home/alex/Mass Storage/ARM-GCC/arm-none-eabi/include/machine/_default_types.h"
 3135              		.file 3 "/home/alex/Mass Storage/ARM-GCC/arm-none-eabi/include/sys/_stdint.h"
 3136              		.file 4 "Drivers/CMSIS/Include/core_cm7.h"
 3137              		.file 5 "Drivers/CMSIS/Device/ST/STM32F7xx/Include/system_stm32f7xx.h"
 3138              		.file 6 "Drivers/CMSIS/Device/ST/STM32F7xx/Include/stm32f765xx.h"
 3139              		.file 7 "Drivers/STM32F7xx_HAL_Driver/Inc/stm32f7xx_hal_def.h"
 3140              		.file 8 "Drivers/STM32F7xx_HAL_Driver/Inc/stm32f7xx_ll_sdmmc.h"
 3141              		.file 9 "Drivers/STM32F7xx_HAL_Driver/Inc/stm32f7xx_hal.h"
ARM GAS  /tmp/ccPnSfMB.s 			page 96


DEFINED SYMBOLS
                            *ABS*:0000000000000000 stm32f7xx_ll_sdmmc.c
     /tmp/ccPnSfMB.s:17     .text.SDMMC_GetCmdError:0000000000000000 $t
     /tmp/ccPnSfMB.s:24     .text.SDMMC_GetCmdError:0000000000000000 SDMMC_GetCmdError
     /tmp/ccPnSfMB.s:80     .text.SDMMC_GetCmdError:0000000000000030 $d
     /tmp/ccPnSfMB.s:86     .text.SDMMC_GetCmdResp2:0000000000000000 $t
     /tmp/ccPnSfMB.s:92     .text.SDMMC_GetCmdResp2:0000000000000000 SDMMC_GetCmdResp2
     /tmp/ccPnSfMB.s:181    .text.SDMMC_GetCmdResp2:0000000000000054 $d
     /tmp/ccPnSfMB.s:187    .text.SDMMC_GetCmdResp3:0000000000000000 $t
     /tmp/ccPnSfMB.s:193    .text.SDMMC_GetCmdResp3:0000000000000000 SDMMC_GetCmdResp3
     /tmp/ccPnSfMB.s:268    .text.SDMMC_GetCmdResp3:0000000000000044 $d
     /tmp/ccPnSfMB.s:274    .text.SDMMC_GetCmdResp7:0000000000000000 $t
     /tmp/ccPnSfMB.s:280    .text.SDMMC_GetCmdResp7:0000000000000000 SDMMC_GetCmdResp7
     /tmp/ccPnSfMB.s:382    .text.SDMMC_GetCmdResp7:000000000000005c $d
     /tmp/ccPnSfMB.s:388    .text.SDMMC_Init:0000000000000000 $t
     /tmp/ccPnSfMB.s:395    .text.SDMMC_Init:0000000000000000 SDMMC_Init
     /tmp/ccPnSfMB.s:472    .text.SDMMC_Init:0000000000000034 $d
     /tmp/ccPnSfMB.s:477    .text.SDMMC_ReadFIFO:0000000000000000 $t
     /tmp/ccPnSfMB.s:484    .text.SDMMC_ReadFIFO:0000000000000000 SDMMC_ReadFIFO
     /tmp/ccPnSfMB.s:502    .text.SDMMC_WriteFIFO:0000000000000000 $t
     /tmp/ccPnSfMB.s:509    .text.SDMMC_WriteFIFO:0000000000000000 SDMMC_WriteFIFO
     /tmp/ccPnSfMB.s:532    .text.SDMMC_PowerState_ON:0000000000000000 $t
     /tmp/ccPnSfMB.s:539    .text.SDMMC_PowerState_ON:0000000000000000 SDMMC_PowerState_ON
     /tmp/ccPnSfMB.s:570    .text.SDMMC_PowerState_OFF:0000000000000000 $t
     /tmp/ccPnSfMB.s:577    .text.SDMMC_PowerState_OFF:0000000000000000 SDMMC_PowerState_OFF
     /tmp/ccPnSfMB.s:600    .text.SDMMC_GetPowerState:0000000000000000 $t
     /tmp/ccPnSfMB.s:607    .text.SDMMC_GetPowerState:0000000000000000 SDMMC_GetPowerState
     /tmp/ccPnSfMB.s:626    .text.SDMMC_SendCommand:0000000000000000 $t
     /tmp/ccPnSfMB.s:633    .text.SDMMC_SendCommand:0000000000000000 SDMMC_SendCommand
     /tmp/ccPnSfMB.s:687    .text.SDMMC_SendCommand:0000000000000020 $d
     /tmp/ccPnSfMB.s:692    .text.SDMMC_GetCommandResponse:0000000000000000 $t
     /tmp/ccPnSfMB.s:699    .text.SDMMC_GetCommandResponse:0000000000000000 SDMMC_GetCommandResponse
     /tmp/ccPnSfMB.s:718    .text.SDMMC_GetResponse:0000000000000000 $t
     /tmp/ccPnSfMB.s:725    .text.SDMMC_GetResponse:0000000000000000 SDMMC_GetResponse
     /tmp/ccPnSfMB.s:749    .text.SDMMC_GetCmdResp1:0000000000000000 $t
     /tmp/ccPnSfMB.s:755    .text.SDMMC_GetCmdResp1:0000000000000000 SDMMC_GetCmdResp1
     /tmp/ccPnSfMB.s:1033   .text.SDMMC_GetCmdResp1:0000000000000148 $d
     /tmp/ccPnSfMB.s:1040   .text.SDMMC_GetCmdResp6:0000000000000000 $t
     /tmp/ccPnSfMB.s:1046   .text.SDMMC_GetCmdResp6:0000000000000000 SDMMC_GetCmdResp6
     /tmp/ccPnSfMB.s:1201   .text.SDMMC_GetCmdResp6:0000000000000098 $d
     /tmp/ccPnSfMB.s:1207   .text.SDMMC_ConfigData:0000000000000000 $t
     /tmp/ccPnSfMB.s:1214   .text.SDMMC_ConfigData:0000000000000000 SDMMC_ConfigData
     /tmp/ccPnSfMB.s:1272   .text.SDMMC_GetDataCounter:0000000000000000 $t
     /tmp/ccPnSfMB.s:1279   .text.SDMMC_GetDataCounter:0000000000000000 SDMMC_GetDataCounter
     /tmp/ccPnSfMB.s:1297   .text.SDMMC_GetFIFOCount:0000000000000000 $t
     /tmp/ccPnSfMB.s:1304   .text.SDMMC_GetFIFOCount:0000000000000000 SDMMC_GetFIFOCount
     /tmp/ccPnSfMB.s:1322   .text.SDMMC_SetSDMMCReadWaitMode:0000000000000000 $t
     /tmp/ccPnSfMB.s:1329   .text.SDMMC_SetSDMMCReadWaitMode:0000000000000000 SDMMC_SetSDMMCReadWaitMode
     /tmp/ccPnSfMB.s:1353   .text.SDMMC_CmdBlockLength:0000000000000000 $t
     /tmp/ccPnSfMB.s:1360   .text.SDMMC_CmdBlockLength:0000000000000000 SDMMC_CmdBlockLength
     /tmp/ccPnSfMB.s:1425   .text.SDMMC_CmdReadSingleBlock:0000000000000000 $t
     /tmp/ccPnSfMB.s:1432   .text.SDMMC_CmdReadSingleBlock:0000000000000000 SDMMC_CmdReadSingleBlock
     /tmp/ccPnSfMB.s:1497   .text.SDMMC_CmdReadMultiBlock:0000000000000000 $t
     /tmp/ccPnSfMB.s:1504   .text.SDMMC_CmdReadMultiBlock:0000000000000000 SDMMC_CmdReadMultiBlock
     /tmp/ccPnSfMB.s:1569   .text.SDMMC_CmdWriteSingleBlock:0000000000000000 $t
     /tmp/ccPnSfMB.s:1576   .text.SDMMC_CmdWriteSingleBlock:0000000000000000 SDMMC_CmdWriteSingleBlock
     /tmp/ccPnSfMB.s:1641   .text.SDMMC_CmdWriteMultiBlock:0000000000000000 $t
ARM GAS  /tmp/ccPnSfMB.s 			page 97


     /tmp/ccPnSfMB.s:1648   .text.SDMMC_CmdWriteMultiBlock:0000000000000000 SDMMC_CmdWriteMultiBlock
     /tmp/ccPnSfMB.s:1713   .text.SDMMC_CmdSDEraseStartAdd:0000000000000000 $t
     /tmp/ccPnSfMB.s:1720   .text.SDMMC_CmdSDEraseStartAdd:0000000000000000 SDMMC_CmdSDEraseStartAdd
     /tmp/ccPnSfMB.s:1785   .text.SDMMC_CmdSDEraseEndAdd:0000000000000000 $t
     /tmp/ccPnSfMB.s:1792   .text.SDMMC_CmdSDEraseEndAdd:0000000000000000 SDMMC_CmdSDEraseEndAdd
     /tmp/ccPnSfMB.s:1857   .text.SDMMC_CmdEraseStartAdd:0000000000000000 $t
     /tmp/ccPnSfMB.s:1864   .text.SDMMC_CmdEraseStartAdd:0000000000000000 SDMMC_CmdEraseStartAdd
     /tmp/ccPnSfMB.s:1929   .text.SDMMC_CmdEraseEndAdd:0000000000000000 $t
     /tmp/ccPnSfMB.s:1936   .text.SDMMC_CmdEraseEndAdd:0000000000000000 SDMMC_CmdEraseEndAdd
     /tmp/ccPnSfMB.s:2001   .text.SDMMC_CmdErase:0000000000000000 $t
     /tmp/ccPnSfMB.s:2008   .text.SDMMC_CmdErase:0000000000000000 SDMMC_CmdErase
     /tmp/ccPnSfMB.s:2071   .text.SDMMC_CmdStopTransfer:0000000000000000 $t
     /tmp/ccPnSfMB.s:2078   .text.SDMMC_CmdStopTransfer:0000000000000000 SDMMC_CmdStopTransfer
     /tmp/ccPnSfMB.s:2141   .text.SDMMC_CmdStopTransfer:0000000000000030 $d
     /tmp/ccPnSfMB.s:2146   .text.SDMMC_CmdSelDesel:0000000000000000 $t
     /tmp/ccPnSfMB.s:2153   .text.SDMMC_CmdSelDesel:0000000000000000 SDMMC_CmdSelDesel
     /tmp/ccPnSfMB.s:2216   .text.SDMMC_CmdGoIdleState:0000000000000000 $t
     /tmp/ccPnSfMB.s:2223   .text.SDMMC_CmdGoIdleState:0000000000000000 SDMMC_CmdGoIdleState
     /tmp/ccPnSfMB.s:2281   .text.SDMMC_CmdOperCond:0000000000000000 $t
     /tmp/ccPnSfMB.s:2288   .text.SDMMC_CmdOperCond:0000000000000000 SDMMC_CmdOperCond
     /tmp/ccPnSfMB.s:2349   .text.SDMMC_CmdAppCommand:0000000000000000 $t
     /tmp/ccPnSfMB.s:2356   .text.SDMMC_CmdAppCommand:0000000000000000 SDMMC_CmdAppCommand
     /tmp/ccPnSfMB.s:2421   .text.SDMMC_CmdAppOperCommand:0000000000000000 $t
     /tmp/ccPnSfMB.s:2428   .text.SDMMC_CmdAppOperCommand:0000000000000000 SDMMC_CmdAppOperCommand
     /tmp/ccPnSfMB.s:2493   .text.SDMMC_CmdAppOperCommand:0000000000000030 $d
     /tmp/ccPnSfMB.s:2498   .text.SDMMC_CmdBusWidth:0000000000000000 $t
     /tmp/ccPnSfMB.s:2505   .text.SDMMC_CmdBusWidth:0000000000000000 SDMMC_CmdBusWidth
     /tmp/ccPnSfMB.s:2570   .text.SDMMC_CmdSendSCR:0000000000000000 $t
     /tmp/ccPnSfMB.s:2577   .text.SDMMC_CmdSendSCR:0000000000000000 SDMMC_CmdSendSCR
     /tmp/ccPnSfMB.s:2640   .text.SDMMC_CmdSendCID:0000000000000000 $t
     /tmp/ccPnSfMB.s:2647   .text.SDMMC_CmdSendCID:0000000000000000 SDMMC_CmdSendCID
     /tmp/ccPnSfMB.s:2707   .text.SDMMC_CmdSendCSD:0000000000000000 $t
     /tmp/ccPnSfMB.s:2714   .text.SDMMC_CmdSendCSD:0000000000000000 SDMMC_CmdSendCSD
     /tmp/ccPnSfMB.s:2776   .text.SDMMC_CmdSetRelAdd:0000000000000000 $t
     /tmp/ccPnSfMB.s:2783   .text.SDMMC_CmdSetRelAdd:0000000000000000 SDMMC_CmdSetRelAdd
     /tmp/ccPnSfMB.s:2850   .text.SDMMC_CmdSendStatus:0000000000000000 $t
     /tmp/ccPnSfMB.s:2857   .text.SDMMC_CmdSendStatus:0000000000000000 SDMMC_CmdSendStatus
     /tmp/ccPnSfMB.s:2922   .text.SDMMC_CmdStatusRegister:0000000000000000 $t
     /tmp/ccPnSfMB.s:2929   .text.SDMMC_CmdStatusRegister:0000000000000000 SDMMC_CmdStatusRegister
     /tmp/ccPnSfMB.s:2992   .text.SDMMC_CmdOpCondition:0000000000000000 $t
     /tmp/ccPnSfMB.s:2999   .text.SDMMC_CmdOpCondition:0000000000000000 SDMMC_CmdOpCondition
     /tmp/ccPnSfMB.s:3061   .text.SDMMC_CmdSwitch:0000000000000000 $t
     /tmp/ccPnSfMB.s:3068   .text.SDMMC_CmdSwitch:0000000000000000 SDMMC_CmdSwitch

UNDEFINED SYMBOLS
SystemCoreClock
HAL_Delay
